((lp0
(lp1
(I0
I0
I1
I1
I0
I1
I0
tp2
a(I1
I1
I0
I0
I1
I0
I1
tp3
a(I0
I0
I0
I0
I0
I1
I1
tp4
a(I1
I1
I0
I0
I1
I0
I0
tp5
a(I0
I1
I0
I1
I0
I1
I0
tp6
a(I0
I0
I1
I1
I1
I0
I1
tp7
a(I1
I0
I1
I0
I1
I1
I0
tp8
aa(lp9
(I0
I0
I1
I1
I0
I1
I0
tp10
a(I1
I1
I0
I0
I1
I0
I1
tp11
a(I0
I0
I0
I0
I0
I1
I1
tp12
a(I1
I1
I0
I0
I1
I0
I0
tp13
a(I1
I1
I1
I1
I0
I1
I0
tp14
a(I0
I0
I1
I1
I1
I0
I1
tp15
a(I1
I0
I1
I0
I1
I1
I0
tp16
aa(lp17
(I0
I0
I1
I1
I0
I1
I0
tp18
a(I1
I1
I0
I0
I1
I0
I0
tp19
a(I0
I0
I0
I0
I0
I1
I1
tp20
a(I1
I1
I0
I0
I1
I0
I0
tp21
a(I0
I1
I1
I0
I0
I1
I0
tp22
a(I0
I0
I1
I1
I1
I0
I1
tp23
a(I1
I0
I1
I0
I1
I1
I0
tp24
aa(lp25
(I0
I0
I1
I1
I0
I1
I0
tp26
a(I1
I1
I0
I0
I1
I0
I0
tp27
a(I0
I0
I0
I0
I0
I1
I1
tp28
a(I1
I1
I0
I0
I1
I0
I0
tp29
a(I1
I0
I0
I1
I0
I1
I1
tp30
a(I0
I0
I1
I1
I1
I0
I1
tp31
a(I1
I0
I1
I0
I1
I1
I0
tp32
aa(lp33
(I0
I0
I1
I1
I0
I1
I0
tp34
a(I1
I1
I0
I0
I1
I0
I0
tp35
a(I0
I0
I0
I0
I0
I1
I1
tp36
a(I1
I1
I0
I0
I1
I0
I0
tp37
a(I1
I1
I1
I0
I0
I1
I0
tp38
a(I0
I0
I1
I1
I1
I0
I1
tp39
a(I1
I0
I1
I0
I1
I1
I0
tp40
aa(lp41
(I0
I0
I1
I1
I0
I1
I0
tp42
a(I1
I1
I0
I0
I1
I0
I1
tp43
a(I0
I0
I0
I0
I0
I1
I1
tp44
a(I1
I1
I0
I0
I1
I0
I0
tp45
a(I0
I0
I1
I1
I0
I0
I0
tp46
a(I0
I0
I1
I1
I1
I0
I1
tp47
a(I1
I0
I1
I0
I1
I0
I0
tp48
aa(lp49
(I0
I0
I1
I1
I0
I1
I0
tp50
a(I1
I1
I0
I0
I1
I0
I1
tp51
a(I0
I0
I0
I0
I0
I1
I1
tp52
a(I1
I1
I0
I0
I1
I0
I0
tp53
a(I1
I1
I1
I1
I0
I0
I0
tp54
a(I0
I0
I1
I1
I1
I0
I1
tp55
a(I1
I0
I1
I0
I1
I0
I0
tp56
aa(lp57
(I0
I0
I1
I1
I0
I1
I0
tp58
a(I1
I1
I0
I0
I1
I0
I1
tp59
a(I0
I0
I0
I0
I0
I1
I1
tp60
a(I1
I1
I0
I0
I1
I0
I0
tp61
a(I1
I1
I1
I1
I0
I1
I0
tp62
a(I0
I0
I1
I1
I1
I0
I1
tp63
a(I1
I0
I1
I0
I1
I0
I0
tp64
aa(lp65
(I0
I0
I1
I1
I0
I1
I0
tp66
a(I1
I1
I0
I0
I1
I0
I1
tp67
a(I0
I0
I0
I0
I0
I1
I1
tp68
a(I1
I1
I0
I0
I1
I0
I0
tp69
a(I1
I1
I1
I1
I0
I1
I1
tp70
a(I0
I0
I1
I1
I1
I0
I1
tp71
a(I1
I0
I1
I0
I1
I0
I0
tp72
aa(lp73
(I0
I0
I1
I1
I0
I1
I0
tp74
a(I1
I1
I0
I0
I1
I0
I0
tp75
a(I0
I0
I0
I0
I0
I1
I1
tp76
a(I1
I1
I0
I0
I1
I0
I0
tp77
a(I1
I1
I1
I1
I0
I1
I0
tp78
a(I0
I0
I1
I1
I1
I0
I1
tp79
a(I1
I0
I1
I0
I1
I0
I0
tp80
aa(lp81
(I0
I0
I1
I1
I0
I1
I0
tp82
a(I1
I1
I0
I0
I1
I0
I0
tp83
a(I0
I0
I0
I0
I0
I1
I1
tp84
a(I1
I1
I0
I0
I1
I0
I0
tp85
a(I1
I1
I1
I1
I0
I1
I1
tp86
a(I0
I0
I1
I1
I1
I0
I1
tp87
a(I1
I0
I1
I0
I1
I0
I0
tp88
aa(lp89
(I0
I0
I1
I1
I0
I1
I0
tp90
a(I1
I1
I0
I0
I1
I0
I0
tp91
a(I0
I0
I0
I0
I0
I1
I1
tp92
a(I0
I1
I0
I0
I1
I0
I0
tp93
a(I1
I0
I0
I1
I0
I1
I1
tp94
a(I0
I0
I1
I1
I1
I0
I1
tp95
a(I1
I0
I1
I0
I1
I0
I0
tp96
aa(lp97
(I0
I0
I1
I1
I0
I1
I0
tp98
a(I1
I1
I0
I0
I1
I0
I0
tp99
a(I0
I0
I0
I0
I0
I1
I1
tp100
a(I1
I1
I0
I1
I0
I0
I0
tp101
a(I0
I1
I0
I1
I0
I1
I0
tp102
a(I0
I0
I1
I1
I1
I0
I1
tp103
a(I1
I0
I1
I0
I1
I0
I0
tp104
aa(lp105
(I0
I0
I1
I1
I0
I1
I0
tp106
a(I1
I1
I0
I0
I1
I0
I0
tp107
a(I0
I0
I0
I0
I0
I1
I1
tp108
a(I1
I0
I0
I1
I1
I1
I0
tp109
a(I0
I0
I0
I1
I0
I1
I1
tp110
a(I0
I0
I1
I1
I1
I0
I0
tp111
a(I1
I0
I1
I0
I1
I0
I0
tp112
aa(lp113
(I0
I0
I1
I1
I0
I1
I0
tp114
a(I1
I1
I0
I0
I1
I0
I0
tp115
a(I0
I0
I0
I0
I0
I1
I1
tp116
a(I1
I0
I1
I1
I1
I1
I0
tp117
a(I0
I0
I0
I1
I0
I1
I1
tp118
a(I0
I0
I1
I1
I1
I0
I0
tp119
a(I1
I0
I1
I0
I1
I0
I0
tp120
aa(lp121
(I0
I0
I1
I1
I0
I1
I0
tp122
a(I1
I1
I0
I0
I1
I0
I0
tp123
a(I0
I0
I0
I0
I0
I1
I1
tp124
a(I1
I0
I1
I1
I1
I1
I1
tp125
a(I0
I0
I0
I1
I0
I1
I1
tp126
a(I0
I0
I1
I1
I1
I0
I0
tp127
a(I1
I0
I1
I0
I1
I0
I0
tp128
aa(lp129
(I0
I0
I1
I1
I0
I1
I0
tp130
a(I1
I1
I0
I0
I1
I0
I1
tp131
a(I0
I0
I0
I0
I0
I1
I0
tp132
a(I1
I1
I0
I0
I1
I0
I0
tp133
a(I0
I1
I0
I1
I0
I1
I0
tp134
a(I0
I0
I1
I1
I1
I0
I1
tp135
a(I1
I0
I1
I0
I1
I0
I0
tp136
aa(lp137
(I0
I0
I1
I1
I0
I1
I0
tp138
a(I1
I1
I0
I0
I1
I0
I1
tp139
a(I0
I0
I0
I0
I0
I1
I0
tp140
a(I1
I1
I0
I0
I1
I0
I0
tp141
a(I0
I1
I0
I1
I1
I1
I0
tp142
a(I0
I0
I1
I1
I1
I0
I1
tp143
a(I1
I0
I1
I0
I1
I0
I0
tp144
aa(lp145
(I0
I0
I1
I1
I0
I1
I0
tp146
a(I1
I1
I0
I0
I1
I0
I1
tp147
a(I0
I0
I0
I0
I0
I1
I0
tp148
a(I1
I1
I0
I0
I1
I0
I0
tp149
a(I1
I1
I1
I1
I1
I1
I0
tp150
a(I0
I0
I1
I1
I1
I0
I1
tp151
a(I1
I0
I1
I0
I1
I0
I0
tp152
aa(lp153
(I0
I0
I1
I1
I0
I1
I0
tp154
a(I1
I1
I0
I0
I1
I0
I1
tp155
a(I0
I0
I0
I0
I0
I1
I0
tp156
a(I1
I1
I0
I0
I1
I0
I0
tp157
a(I0
I1
I0
I0
I0
I1
I1
tp158
a(I0
I0
I1
I1
I1
I0
I1
tp159
a(I1
I0
I1
I0
I1
I0
I0
tp160
aa(lp161
(I0
I0
I1
I1
I0
I1
I0
tp162
a(I1
I1
I0
I0
I1
I0
I1
tp163
a(I0
I0
I0
I0
I0
I1
I0
tp164
a(I1
I1
I0
I0
I1
I0
I0
tp165
a(I0
I1
I0
I1
I0
I1
I1
tp166
a(I0
I0
I1
I1
I1
I0
I1
tp167
a(I1
I0
I1
I0
I1
I0
I0
tp168
aa(lp169
(I0
I0
I1
I1
I0
I1
I0
tp170
a(I1
I1
I0
I0
I1
I0
I1
tp171
a(I0
I0
I0
I0
I0
I1
I0
tp172
a(I1
I1
I0
I0
I1
I0
I0
tp173
a(I0
I0
I0
I1
I0
I1
I1
tp174
a(I0
I0
I1
I1
I1
I0
I1
tp175
a(I1
I0
I1
I0
I1
I0
I0
tp176
aa(lp177
(I0
I0
I1
I1
I0
I1
I0
tp178
a(I1
I1
I0
I0
I1
I0
I1
tp179
a(I0
I0
I0
I0
I0
I1
I0
tp180
a(I1
I1
I0
I0
I1
I0
I0
tp181
a(I1
I0
I0
I1
I1
I1
I1
tp182
a(I0
I0
I1
I1
I1
I0
I1
tp183
a(I1
I0
I1
I0
I1
I0
I0
tp184
aa(lp185
(I0
I0
I1
I1
I0
I1
I0
tp186
a(I1
I1
I0
I0
I1
I0
I1
tp187
a(I0
I0
I0
I0
I0
I1
I0
tp188
a(I1
I1
I0
I0
I1
I0
I0
tp189
a(I1
I1
I1
I0
I1
I1
I1
tp190
a(I0
I0
I1
I1
I1
I0
I1
tp191
a(I1
I0
I1
I0
I1
I0
I0
tp192
aa(lp193
(I0
I0
I1
I1
I0
I1
I0
tp194
a(I1
I1
I0
I0
I1
I0
I1
tp195
a(I0
I0
I0
I0
I0
I1
I0
tp196
a(I1
I1
I0
I0
I1
I0
I0
tp197
a(I1
I0
I1
I0
I1
I1
I1
tp198
a(I0
I0
I1
I1
I1
I0
I1
tp199
a(I1
I0
I1
I0
I1
I0
I0
tp200
aa(lp201
(I0
I0
I1
I1
I0
I1
I0
tp202
a(I1
I1
I0
I0
I1
I0
I1
tp203
a(I0
I0
I0
I0
I0
I1
I0
tp204
a(I1
I1
I0
I0
I1
I0
I0
tp205
a(I1
I1
I0
I1
I0
I1
I0
tp206
a(I0
I0
I1
I1
I1
I0
I1
tp207
a(I1
I0
I1
I0
I1
I0
I0
tp208
aa(lp209
(I0
I0
I1
I1
I0
I1
I0
tp210
a(I1
I1
I0
I0
I1
I0
I0
tp211
a(I0
I0
I0
I0
I0
I1
I0
tp212
a(I1
I1
I0
I0
I1
I0
I0
tp213
a(I1
I1
I1
I0
I0
I1
I0
tp214
a(I0
I0
I1
I1
I1
I0
I1
tp215
a(I1
I0
I1
I0
I1
I0
I0
tp216
aa(lp217
(I0
I0
I1
I1
I0
I1
I0
tp218
a(I1
I1
I0
I0
I1
I0
I0
tp219
a(I0
I0
I0
I0
I0
I1
I0
tp220
a(I1
I1
I0
I0
I1
I0
I0
tp221
a(I0
I1
I0
I0
I0
I1
I1
tp222
a(I0
I0
I1
I1
I1
I0
I1
tp223
a(I1
I0
I1
I0
I1
I0
I0
tp224
aa(lp225
(I0
I0
I1
I1
I0
I1
I0
tp226
a(I1
I1
I0
I0
I1
I0
I0
tp227
a(I0
I0
I0
I0
I0
I1
I0
tp228
a(I1
I1
I0
I0
I1
I0
I0
tp229
a(I1
I1
I0
I1
I0
I1
I0
tp230
a(I0
I0
I1
I1
I1
I0
I1
tp231
a(I1
I0
I1
I0
I1
I0
I0
tp232
aa(lp233
(I0
I0
I1
I1
I0
I1
I0
tp234
a(I1
I1
I0
I0
I1
I0
I0
tp235
a(I0
I0
I0
I0
I0
I1
I0
tp236
a(I1
I1
I0
I0
I1
I0
I0
tp237
a(I0
I0
I0
I1
I0
I1
I1
tp238
a(I0
I0
I1
I1
I1
I0
I1
tp239
a(I1
I0
I1
I0
I1
I0
I0
tp240
aa(lp241
(I0
I0
I1
I1
I0
I1
I0
tp242
a(I1
I1
I0
I0
I1
I0
I0
tp243
a(I0
I0
I0
I0
I0
I1
I0
tp244
a(I1
I1
I0
I0
I1
I0
I0
tp245
a(I1
I1
I1
I0
I1
I1
I1
tp246
a(I0
I0
I1
I1
I1
I0
I1
tp247
a(I1
I0
I1
I0
I1
I0
I0
tp248
aa(lp249
(I0
I0
I1
I1
I0
I1
I0
tp250
a(I1
I1
I0
I0
I1
I0
I0
tp251
a(I0
I0
I0
I0
I0
I1
I0
tp252
a(I1
I1
I0
I0
I1
I0
I0
tp253
a(I1
I0
I1
I1
I0
I1
I0
tp254
a(I0
I0
I1
I1
I1
I0
I1
tp255
a(I1
I0
I1
I0
I1
I0
I0
tp256
aa(lp257
(I0
I0
I1
I1
I0
I1
I0
tp258
a(I1
I1
I0
I0
I1
I0
I0
tp259
a(I0
I0
I0
I0
I0
I1
I0
tp260
a(I1
I1
I0
I0
I1
I0
I0
tp261
a(I1
I0
I0
I1
I0
I1
I1
tp262
a(I0
I0
I1
I1
I1
I0
I1
tp263
a(I1
I0
I1
I0
I1
I0
I0
tp264
aa(lp265
(I0
I0
I1
I1
I0
I1
I0
tp266
a(I1
I1
I0
I0
I1
I0
I0
tp267
a(I0
I0
I0
I0
I0
I1
I0
tp268
a(I1
I1
I0
I0
I1
I0
I0
tp269
a(I1
I0
I1
I1
I0
I1
I1
tp270
a(I0
I0
I1
I1
I1
I0
I1
tp271
a(I1
I0
I1
I0
I1
I0
I0
tp272
aa(lp273
(I0
I0
I1
I1
I0
I1
I0
tp274
a(I1
I1
I0
I0
I1
I0
I0
tp275
a(I0
I0
I0
I0
I0
I1
I0
tp276
a(I1
I1
I0
I0
I1
I0
I0
tp277
a(I1
I0
I1
I1
I1
I1
I1
tp278
a(I0
I0
I1
I1
I1
I0
I1
tp279
a(I1
I0
I1
I0
I1
I0
I0
tp280
aa(lp281
(I0
I0
I1
I1
I0
I1
I0
tp282
a(I1
I1
I0
I0
I1
I0
I0
tp283
a(I0
I0
I0
I0
I0
I1
I0
tp284
a(I1
I1
I0
I0
I1
I0
I0
tp285
a(I0
I1
I0
I1
I0
I1
I0
tp286
a(I0
I0
I1
I1
I1
I0
I1
tp287
a(I1
I0
I1
I0
I1
I0
I0
tp288
aa(lp289
(I0
I0
I1
I1
I0
I1
I0
tp290
a(I1
I1
I0
I0
I1
I0
I0
tp291
a(I0
I0
I0
I0
I0
I1
I0
tp292
a(I0
I1
I0
I1
I1
I0
I0
tp293
a(I0
I1
I0
I0
I0
I1
I1
tp294
a(I0
I0
I1
I1
I1
I0
I1
tp295
a(I1
I0
I1
I0
I1
I0
I0
tp296
aa(lp297
(I0
I0
I1
I1
I0
I1
I0
tp298
a(I1
I1
I0
I0
I1
I0
I0
tp299
a(I0
I0
I0
I0
I0
I1
I0
tp300
a(I0
I1
I0
I1
I1
I0
I0
tp301
a(I1
I1
I1
I0
I0
I1
I0
tp302
a(I0
I0
I1
I1
I1
I0
I1
tp303
a(I1
I0
I1
I0
I1
I0
I0
tp304
aa(lp305
(I0
I0
I1
I1
I0
I1
I0
tp306
a(I1
I1
I0
I0
I1
I0
I0
tp307
a(I0
I0
I0
I0
I0
I1
I0
tp308
a(I1
I1
I0
I0
I1
I0
I0
tp309
a(I0
I1
I0
I1
I0
I1
I1
tp310
a(I0
I1
I1
I1
I1
I0
I1
tp311
a(I1
I0
I1
I0
I1
I0
I0
tp312
aa(lp313
(I0
I0
I1
I1
I0
I1
I0
tp314
a(I1
I1
I0
I0
I1
I0
I0
tp315
a(I0
I0
I0
I0
I0
I1
I0
tp316
a(I1
I1
I0
I0
I1
I0
I0
tp317
a(I1
I0
I0
I1
I0
I1
I1
tp318
a(I0
I1
I1
I1
I1
I0
I1
tp319
a(I1
I0
I1
I0
I1
I0
I0
tp320
aa(lp321
(I0
I0
I1
I1
I0
I1
I0
tp322
a(I1
I1
I0
I0
I1
I0
I0
tp323
a(I0
I0
I0
I0
I0
I1
I0
tp324
a(I1
I1
I0
I1
I0
I0
I0
tp325
a(I0
I1
I0
I1
I0
I1
I0
tp326
a(I0
I0
I1
I1
I1
I0
I1
tp327
a(I1
I0
I1
I0
I1
I0
I0
tp328
aa(lp329
(I0
I0
I1
I1
I0
I1
I0
tp330
a(I1
I1
I0
I0
I1
I0
I0
tp331
a(I0
I0
I0
I0
I0
I1
I0
tp332
a(I1
I0
I0
I0
I0
I0
I0
tp333
a(I1
I1
I0
I1
I0
I1
I1
tp334
a(I0
I0
I1
I1
I1
I0
I1
tp335
a(I1
I0
I1
I0
I1
I0
I0
tp336
aa(lp337
(I0
I0
I1
I1
I0
I1
I0
tp338
a(I1
I1
I0
I0
I1
I0
I0
tp339
a(I0
I0
I0
I0
I0
I1
I0
tp340
a(I0
I1
I0
I1
I0
I0
I0
tp341
a(I0
I0
I0
I1
I0
I1
I1
tp342
a(I0
I0
I1
I1
I1
I0
I1
tp343
a(I1
I0
I1
I0
I1
I0
I0
tp344
aa(lp345
(I0
I0
I1
I1
I0
I1
I0
tp346
a(I1
I1
I0
I0
I1
I0
I0
tp347
a(I0
I0
I0
I0
I0
I1
I0
tp348
a(I0
I1
I0
I1
I0
I0
I0
tp349
a(I1
I1
I0
I1
I0
I1
I1
tp350
a(I0
I0
I1
I1
I1
I0
I1
tp351
a(I1
I0
I1
I0
I1
I0
I0
tp352
aa(lp353
(I0
I0
I1
I1
I0
I1
I0
tp354
a(I1
I1
I0
I0
I1
I0
I0
tp355
a(I0
I0
I0
I0
I0
I1
I0
tp356
a(I0
I1
I0
I1
I0
I0
I0
tp357
a(I1
I0
I0
I1
I0
I1
I0
tp358
a(I0
I0
I1
I1
I1
I0
I1
tp359
a(I1
I0
I1
I0
I1
I0
I0
tp360
aa(lp361
(I0
I0
I1
I1
I0
I1
I0
tp362
a(I1
I1
I0
I0
I1
I0
I0
tp363
a(I0
I0
I0
I0
I0
I1
I0
tp364
a(I0
I0
I0
I1
I0
I0
I0
tp365
a(I1
I1
I0
I1
I0
I1
I0
tp366
a(I0
I0
I1
I1
I1
I0
I1
tp367
a(I1
I0
I1
I0
I1
I0
I0
tp368
aa(lp369
(I0
I0
I1
I1
I0
I1
I0
tp370
a(I1
I1
I0
I0
I1
I0
I0
tp371
a(I0
I0
I0
I0
I0
I1
I0
tp372
a(I0
I0
I0
I1
I0
I0
I0
tp373
a(I0
I0
I1
I1
I1
I1
I1
tp374
a(I0
I0
I1
I1
I1
I0
I1
tp375
a(I1
I0
I1
I0
I1
I0
I0
tp376
aa(lp377
(I0
I0
I1
I1
I0
I1
I0
tp378
a(I1
I1
I0
I0
I1
I0
I0
tp379
a(I0
I0
I0
I0
I0
I1
I0
tp380
a(I0
I0
I0
I1
I0
I0
I0
tp381
a(I1
I0
I0
I1
I0
I1
I0
tp382
a(I0
I0
I1
I1
I1
I0
I1
tp383
a(I1
I0
I1
I0
I1
I0
I0
tp384
aa(lp385
(I0
I0
I1
I1
I0
I1
I0
tp386
a(I1
I1
I0
I0
I1
I0
I0
tp387
a(I0
I0
I0
I0
I0
I1
I0
tp388
a(I0
I0
I0
I1
I0
I0
I0
tp389
a(I0
I0
I0
I1
I0
I1
I1
tp390
a(I0
I0
I1
I1
I1
I0
I1
tp391
a(I1
I0
I1
I0
I1
I0
I0
tp392
aa(lp393
(I0
I0
I1
I1
I0
I1
I0
tp394
a(I1
I1
I0
I0
I1
I0
I0
tp395
a(I0
I0
I0
I0
I0
I1
I0
tp396
a(I0
I0
I0
I1
I0
I0
I0
tp397
a(I0
I0
I0
I1
I0
I1
I0
tp398
a(I0
I1
I1
I1
I1
I0
I1
tp399
a(I1
I0
I1
I0
I1
I0
I0
tp400
aa(lp401
(I0
I0
I1
I1
I0
I1
I0
tp402
a(I1
I1
I0
I0
I1
I0
I0
tp403
a(I0
I0
I0
I0
I0
I1
I0
tp404
a(I1
I1
I0
I0
I1
I0
I0
tp405
a(I1
I0
I0
I1
I0
I1
I1
tp406
a(I0
I0
I1
I1
I1
I0
I0
tp407
a(I1
I0
I1
I0
I1
I0
I0
tp408
aa(lp409
(I0
I0
I1
I1
I0
I1
I0
tp410
a(I1
I1
I0
I0
I1
I0
I0
tp411
a(I0
I0
I0
I0
I0
I1
I0
tp412
a(I1
I1
I0
I0
I1
I0
I0
tp413
a(I0
I0
I0
I1
I0
I1
I0
tp414
a(I0
I0
I1
I1
I1
I0
I0
tp415
a(I1
I0
I1
I0
I1
I0
I0
tp416
aa(lp417
(I0
I0
I1
I1
I0
I1
I0
tp418
a(I1
I1
I0
I0
I1
I0
I0
tp419
a(I0
I0
I0
I0
I0
I1
I0
tp420
a(I1
I1
I0
I0
I1
I0
I0
tp421
a(I0
I0
I0
I1
I0
I1
I1
tp422
a(I0
I0
I1
I1
I1
I0
I0
tp423
a(I1
I0
I1
I0
I1
I0
I0
tp424
aa(lp425
(I0
I0
I1
I1
I0
I1
I0
tp426
a(I1
I1
I0
I0
I1
I0
I0
tp427
a(I0
I0
I0
I0
I0
I1
I0
tp428
a(I1
I1
I0
I0
I1
I0
I0
tp429
a(I0
I1
I0
I1
I0
I1
I0
tp430
a(I0
I0
I1
I1
I1
I0
I0
tp431
a(I1
I0
I1
I0
I1
I0
I0
tp432
aa(lp433
(I0
I0
I1
I1
I0
I1
I0
tp434
a(I1
I1
I0
I1
I0
I0
I0
tp435
a(I0
I0
I0
I0
I0
I1
I0
tp436
a(I1
I1
I0
I0
I1
I0
I0
tp437
a(I1
I0
I0
I1
I0
I1
I0
tp438
a(I0
I0
I1
I1
I1
I0
I1
tp439
a(I1
I0
I1
I0
I1
I0
I0
tp440
aa(lp441
(I0
I0
I1
I1
I0
I1
I0
tp442
a(I1
I0
I0
I1
I0
I0
I0
tp443
a(I0
I0
I0
I0
I0
I1
I0
tp444
a(I1
I1
I0
I0
I1
I0
I0
tp445
a(I1
I0
I0
I1
I0
I1
I0
tp446
a(I0
I0
I1
I1
I1
I0
I1
tp447
a(I1
I0
I1
I0
I1
I0
I0
tp448
aa(lp449
(I0
I0
I1
I1
I0
I1
I0
tp450
a(I1
I1
I0
I1
I0
I0
I0
tp451
a(I0
I0
I0
I0
I0
I1
I0
tp452
a(I1
I1
I0
I1
I0
I0
I0
tp453
a(I1
I1
I0
I1
I0
I1
I1
tp454
a(I0
I0
I1
I1
I1
I0
I1
tp455
a(I1
I0
I1
I0
I1
I0
I0
tp456
aa(lp457
(I0
I0
I1
I1
I0
I1
I0
tp458
a(I1
I1
I0
I1
I0
I0
I0
tp459
a(I0
I0
I0
I0
I0
I1
I0
tp460
a(I1
I0
I0
I1
I0
I0
I0
tp461
a(I1
I1
I0
I1
I0
I1
I0
tp462
a(I0
I0
I1
I1
I1
I0
I1
tp463
a(I1
I0
I1
I0
I1
I0
I0
tp464
aa(lp465
(I0
I0
I1
I1
I0
I1
I0
tp466
a(I1
I1
I0
I0
I0
I0
I0
tp467
a(I0
I0
I0
I0
I0
I1
I0
tp468
a(I1
I1
I0
I0
I1
I0
I0
tp469
a(I0
I1
I0
I1
I0
I1
I0
tp470
a(I0
I0
I1
I1
I1
I0
I1
tp471
a(I1
I0
I1
I0
I1
I0
I0
tp472
aa(lp473
(I0
I0
I1
I1
I0
I1
I0
tp474
a(I1
I1
I0
I0
I0
I0
I0
tp475
a(I0
I0
I0
I0
I0
I1
I0
tp476
a(I1
I1
I0
I0
I1
I0
I0
tp477
a(I0
I1
I0
I1
I1
I1
I1
tp478
a(I0
I0
I1
I1
I1
I0
I1
tp479
a(I1
I0
I1
I0
I1
I0
I0
tp480
aa(lp481
(I0
I0
I1
I1
I0
I1
I0
tp482
a(I1
I1
I0
I0
I0
I0
I0
tp483
a(I0
I0
I0
I0
I0
I1
I0
tp484
a(I1
I1
I0
I0
I1
I0
I0
tp485
a(I1
I1
I1
I1
I0
I0
I0
tp486
a(I0
I0
I1
I1
I1
I0
I1
tp487
a(I1
I0
I1
I0
I1
I0
I0
tp488
aa(lp489
(I0
I0
I1
I1
I0
I1
I0
tp490
a(I1
I1
I0
I0
I0
I0
I0
tp491
a(I0
I0
I0
I0
I0
I1
I0
tp492
a(I1
I1
I0
I0
I1
I0
I0
tp493
a(I1
I1
I1
I1
I0
I1
I1
tp494
a(I0
I0
I1
I1
I1
I0
I1
tp495
a(I1
I0
I1
I0
I1
I0
I0
tp496
aa(lp497
(I0
I0
I1
I1
I0
I1
I0
tp498
a(I1
I1
I0
I0
I0
I0
I0
tp499
a(I0
I0
I0
I0
I0
I1
I0
tp500
a(I1
I1
I0
I0
I1
I0
I0
tp501
a(I1
I1
I1
I1
I0
I1
I0
tp502
a(I0
I0
I1
I1
I1
I0
I1
tp503
a(I1
I0
I1
I0
I1
I0
I0
tp504
aa(lp505
(I0
I0
I1
I1
I0
I1
I0
tp506
a(I1
I1
I0
I0
I0
I0
I0
tp507
a(I0
I0
I0
I0
I0
I1
I0
tp508
a(I1
I1
I0
I0
I1
I0
I0
tp509
a(I0
I0
I0
I1
I0
I1
I0
tp510
a(I0
I0
I1
I1
I1
I0
I1
tp511
a(I1
I0
I1
I0
I1
I0
I0
tp512
aa(lp513
(I0
I0
I1
I1
I0
I1
I0
tp514
a(I1
I1
I0
I0
I0
I0
I0
tp515
a(I0
I0
I0
I0
I0
I1
I0
tp516
a(I1
I1
I0
I0
I1
I0
I0
tp517
a(I0
I0
I0
I1
I0
I1
I1
tp518
a(I0
I0
I1
I1
I1
I0
I1
tp519
a(I1
I0
I1
I0
I1
I0
I0
tp520
aa(lp521
(I0
I0
I1
I1
I0
I1
I0
tp522
a(I1
I1
I0
I0
I0
I0
I0
tp523
a(I0
I0
I0
I0
I0
I1
I0
tp524
a(I1
I1
I0
I0
I1
I0
I0
tp525
a(I1
I1
I1
I0
I1
I1
I1
tp526
a(I0
I0
I1
I1
I1
I0
I1
tp527
a(I1
I0
I1
I0
I1
I0
I0
tp528
aa(lp529
(I0
I0
I1
I1
I0
I1
I0
tp530
a(I1
I1
I0
I0
I0
I0
I0
tp531
a(I0
I0
I0
I0
I0
I1
I0
tp532
a(I1
I1
I0
I0
I1
I0
I0
tp533
a(I1
I0
I1
I0
I1
I1
I1
tp534
a(I0
I0
I1
I1
I1
I0
I1
tp535
a(I1
I0
I1
I0
I1
I0
I0
tp536
aa(lp537
(I0
I0
I1
I1
I0
I1
I0
tp538
a(I1
I1
I0
I0
I0
I0
I0
tp539
a(I0
I0
I0
I0
I0
I1
I0
tp540
a(I1
I1
I0
I0
I1
I0
I0
tp541
a(I1
I0
I1
I1
I0
I1
I0
tp542
a(I0
I0
I1
I1
I1
I0
I1
tp543
a(I1
I0
I1
I0
I1
I0
I0
tp544
aa(lp545
(I0
I0
I1
I1
I0
I1
I0
tp546
a(I1
I1
I0
I0
I0
I0
I0
tp547
a(I0
I0
I0
I0
I0
I1
I0
tp548
a(I1
I1
I0
I0
I1
I0
I0
tp549
a(I1
I0
I1
I1
I1
I1
I1
tp550
a(I0
I0
I1
I1
I1
I0
I1
tp551
a(I1
I0
I1
I0
I1
I0
I0
tp552
aa(lp553
(I0
I0
I1
I1
I0
I1
I0
tp554
a(I1
I0
I0
I0
I0
I0
I0
tp555
a(I0
I0
I0
I0
I0
I1
I0
tp556
a(I1
I1
I0
I0
I1
I0
I0
tp557
a(I0
I1
I0
I1
I0
I1
I0
tp558
a(I0
I0
I1
I1
I1
I0
I1
tp559
a(I1
I0
I1
I0
I1
I0
I0
tp560
aa(lp561
(I0
I0
I1
I1
I0
I1
I0
tp562
a(I1
I0
I0
I0
I0
I0
I0
tp563
a(I0
I0
I0
I0
I0
I1
I0
tp564
a(I0
I1
I0
I1
I1
I0
I0
tp565
a(I1
I1
I1
I0
I0
I1
I0
tp566
a(I0
I0
I1
I1
I1
I0
I1
tp567
a(I1
I0
I1
I0
I1
I0
I0
tp568
aa(lp569
(I0
I0
I1
I1
I0
I1
I0
tp570
a(I1
I0
I0
I0
I0
I0
I0
tp571
a(I0
I0
I0
I0
I0
I1
I0
tp572
a(I0
I1
I0
I1
I1
I0
I0
tp573
a(I1
I1
I0
I1
I1
I1
I1
tp574
a(I0
I0
I1
I1
I1
I0
I1
tp575
a(I1
I0
I1
I0
I1
I0
I0
tp576
aa(lp577
(I0
I0
I1
I1
I0
I1
I0
tp578
a(I1
I0
I0
I0
I0
I0
I0
tp579
a(I0
I0
I0
I0
I0
I1
I0
tp580
a(I1
I1
I0
I1
I0
I0
I0
tp581
a(I1
I1
I0
I1
I0
I1
I1
tp582
a(I0
I0
I1
I1
I1
I0
I1
tp583
a(I1
I0
I1
I0
I1
I0
I0
tp584
aa(lp585
(I0
I0
I1
I1
I0
I1
I0
tp586
a(I1
I0
I0
I0
I0
I0
I0
tp587
a(I0
I0
I0
I0
I0
I1
I0
tp588
a(I1
I1
I0
I0
I0
I0
I0
tp589
a(I0
I0
I0
I1
I0
I1
I1
tp590
a(I0
I0
I1
I1
I1
I0
I1
tp591
a(I1
I0
I1
I0
I1
I0
I0
tp592
aa(lp593
(I0
I0
I1
I1
I0
I1
I0
tp594
a(I1
I0
I0
I0
I0
I0
I0
tp595
a(I0
I0
I0
I0
I0
I1
I0
tp596
a(I1
I1
I0
I0
I0
I0
I0
tp597
a(I1
I1
I0
I1
I0
I1
I1
tp598
a(I0
I0
I1
I1
I1
I0
I1
tp599
a(I1
I0
I1
I0
I1
I0
I0
tp600
aa(lp601
(I0
I0
I1
I1
I0
I1
I0
tp602
a(I1
I0
I0
I0
I0
I0
I0
tp603
a(I0
I0
I0
I0
I0
I1
I0
tp604
a(I1
I1
I0
I0
I0
I0
I0
tp605
a(I1
I0
I0
I1
I0
I1
I1
tp606
a(I0
I0
I1
I1
I1
I0
I1
tp607
a(I1
I0
I1
I0
I1
I0
I0
tp608
aa(lp609
(I0
I0
I1
I1
I0
I1
I0
tp610
a(I1
I0
I0
I0
I0
I0
I0
tp611
a(I0
I0
I0
I0
I0
I1
I0
tp612
a(I1
I1
I0
I0
I0
I0
I0
tp613
a(I0
I1
I0
I0
I1
I1
I1
tp614
a(I0
I0
I1
I1
I1
I0
I1
tp615
a(I1
I0
I1
I0
I1
I0
I0
tp616
aa(lp617
(I0
I0
I1
I1
I0
I1
I0
tp618
a(I1
I0
I0
I0
I0
I0
I0
tp619
a(I0
I0
I0
I0
I0
I1
I0
tp620
a(I1
I0
I0
I0
I0
I0
I0
tp621
a(I0
I0
I0
I1
I0
I1
I1
tp622
a(I0
I0
I1
I1
I1
I0
I1
tp623
a(I1
I0
I1
I0
I1
I0
I0
tp624
aa(lp625
(I0
I0
I1
I1
I0
I1
I0
tp626
a(I1
I0
I0
I0
I0
I0
I0
tp627
a(I0
I0
I0
I0
I0
I1
I0
tp628
a(I1
I0
I0
I0
I0
I0
I0
tp629
a(I1
I1
I0
I1
I0
I1
I1
tp630
a(I0
I0
I1
I1
I1
I0
I1
tp631
a(I1
I0
I1
I0
I1
I0
I0
tp632
aa(lp633
(I0
I0
I1
I1
I0
I1
I0
tp634
a(I1
I0
I0
I0
I0
I0
I0
tp635
a(I0
I0
I0
I0
I0
I1
I0
tp636
a(I1
I0
I0
I0
I0
I0
I0
tp637
a(I1
I1
I0
I1
I1
I1
I1
tp638
a(I0
I0
I1
I1
I1
I0
I1
tp639
a(I1
I0
I1
I0
I1
I0
I0
tp640
aa(lp641
(I0
I0
I1
I1
I0
I1
I0
tp642
a(I1
I0
I0
I0
I0
I0
I0
tp643
a(I0
I0
I0
I0
I0
I1
I0
tp644
a(I0
I1
I0
I1
I0
I0
I0
tp645
a(I1
I1
I0
I1
I1
I1
I1
tp646
a(I0
I0
I1
I1
I1
I0
I1
tp647
a(I1
I0
I1
I0
I1
I0
I0
tp648
aa(lp649
(I0
I0
I1
I1
I0
I1
I0
tp650
a(I1
I0
I0
I0
I0
I0
I0
tp651
a(I0
I0
I0
I0
I0
I1
I0
tp652
a(I1
I0
I0
I1
I0
I0
I0
tp653
a(I1
I1
I0
I1
I0
I1
I1
tp654
a(I0
I1
I1
I1
I1
I0
I1
tp655
a(I1
I0
I1
I0
I1
I0
I0
tp656
aa(lp657
(I0
I0
I1
I1
I0
I1
I0
tp658
a(I1
I1
I0
I1
I0
I0
I0
tp659
a(I0
I0
I0
I0
I0
I1
I0
tp660
a(I1
I1
I0
I0
I1
I0
I0
tp661
a(I1
I0
I0
I1
I0
I1
I1
tp662
a(I0
I0
I1
I1
I1
I0
I0
tp663
a(I1
I0
I1
I0
I1
I0
I0
tp664
aa(lp665
(I0
I0
I1
I1
I0
I1
I0
tp666
a(I1
I0
I0
I0
I0
I0
I0
tp667
a(I0
I0
I0
I0
I0
I1
I0
tp668
a(I1
I1
I0
I0
I1
I0
I1
tp669
a(I1
I1
I1
I1
I0
I1
I0
tp670
a(I0
I0
I1
I1
I1
I0
I0
tp671
a(I1
I0
I1
I0
I1
I0
I0
tp672
aa(lp673
(I0
I0
I1
I1
I0
I1
I0
tp674
a(I1
I0
I0
I0
I0
I0
I0
tp675
a(I0
I0
I0
I0
I0
I1
I0
tp676
a(I1
I1
I0
I0
I1
I0
I0
tp677
a(I0
I1
I0
I1
I0
I1
I0
tp678
a(I0
I0
I1
I1
I1
I0
I0
tp679
a(I1
I0
I1
I0
I1
I0
I0
tp680
aa(lp681
(I0
I0
I1
I1
I0
I1
I0
tp682
a(I1
I0
I0
I0
I0
I0
I0
tp683
a(I0
I0
I0
I0
I0
I1
I0
tp684
a(I1
I1
I0
I0
I1
I0
I0
tp685
a(I1
I1
I1
I1
I0
I1
I0
tp686
a(I0
I0
I1
I1
I1
I0
I0
tp687
a(I1
I0
I1
I0
I1
I0
I0
tp688
aa(lp689
(I0
I0
I1
I1
I0
I1
I0
tp690
a(I1
I0
I0
I0
I0
I0
I0
tp691
a(I0
I0
I0
I0
I0
I1
I0
tp692
a(I1
I1
I0
I0
I1
I0
I0
tp693
a(I1
I0
I0
I1
I0
I1
I1
tp694
a(I0
I0
I1
I1
I1
I0
I0
tp695
a(I1
I0
I1
I0
I1
I0
I0
tp696
aa(lp697
(I0
I0
I1
I1
I0
I1
I0
tp698
a(I1
I0
I0
I0
I0
I0
I0
tp699
a(I0
I0
I0
I0
I0
I1
I0
tp700
a(I1
I1
I0
I0
I1
I0
I0
tp701
a(I0
I0
I0
I1
I0
I1
I1
tp702
a(I0
I0
I1
I1
I1
I0
I0
tp703
a(I1
I0
I1
I0
I1
I0
I0
tp704
aa(lp705
(I0
I0
I1
I1
I0
I1
I0
tp706
a(I1
I0
I0
I0
I0
I0
I0
tp707
a(I0
I0
I0
I0
I0
I1
I0
tp708
a(I1
I1
I0
I0
I1
I0
I0
tp709
a(I1
I0
I1
I1
I0
I1
I1
tp710
a(I0
I0
I1
I1
I1
I0
I0
tp711
a(I1
I0
I1
I0
I1
I0
I0
tp712
aa(lp713
(I0
I0
I1
I1
I0
I1
I0
tp714
a(I1
I0
I0
I0
I0
I0
I0
tp715
a(I0
I0
I0
I0
I0
I1
I0
tp716
a(I1
I1
I0
I0
I1
I0
I0
tp717
a(I0
I0
I0
I1
I0
I1
I0
tp718
a(I0
I0
I1
I1
I1
I0
I0
tp719
a(I1
I0
I1
I0
I1
I0
I0
tp720
aa(lp721
(I0
I0
I1
I1
I0
I1
I0
tp722
a(I1
I0
I0
I0
I0
I0
I0
tp723
a(I0
I0
I0
I0
I0
I1
I0
tp724
a(I1
I1
I0
I0
I1
I0
I0
tp725
a(I1
I0
I1
I1
I0
I1
I0
tp726
a(I0
I0
I1
I1
I1
I0
I0
tp727
a(I1
I0
I1
I0
I1
I0
I0
tp728
aa(lp729
(I0
I0
I1
I1
I0
I1
I0
tp730
a(I1
I0
I0
I0
I0
I0
I0
tp731
a(I0
I0
I0
I0
I0
I1
I0
tp732
a(I1
I1
I0
I0
I1
I0
I0
tp733
a(I1
I1
I0
I1
I1
I1
I1
tp734
a(I0
I0
I1
I1
I1
I0
I0
tp735
a(I1
I0
I1
I0
I1
I0
I0
tp736
aa(lp737
(I0
I0
I1
I1
I0
I1
I0
tp738
a(I1
I1
I0
I0
I0
I0
I0
tp739
a(I0
I0
I0
I0
I0
I1
I0
tp740
a(I1
I1
I0
I0
I0
I0
I0
tp741
a(I1
I0
I0
I1
I0
I1
I1
tp742
a(I0
I0
I1
I1
I1
I0
I0
tp743
a(I1
I0
I1
I0
I1
I0
I0
tp744
aa(lp745
(I0
I0
I1
I1
I0
I1
I0
tp746
a(I1
I0
I0
I0
I0
I0
I0
tp747
a(I0
I0
I0
I0
I0
I1
I0
tp748
a(I1
I1
I0
I1
I0
I0
I0
tp749
a(I1
I1
I0
I1
I0
I1
I0
tp750
a(I0
I0
I1
I1
I1
I0
I0
tp751
a(I1
I0
I1
I0
I1
I0
I0
tp752
aa(lp753
(I0
I0
I1
I1
I0
I1
I0
tp754
a(I1
I0
I0
I0
I0
I0
I0
tp755
a(I0
I0
I0
I0
I0
I1
I0
tp756
a(I1
I0
I0
I1
I0
I0
I0
tp757
a(I1
I1
I0
I1
I0
I1
I0
tp758
a(I0
I0
I1
I1
I1
I0
I0
tp759
a(I1
I0
I1
I0
I1
I0
I0
tp760
aa(lp761
(I0
I0
I1
I1
I0
I1
I1
tp762
a(I1
I1
I0
I0
I1
I0
I0
tp763
a(I0
I0
I0
I0
I0
I1
I0
tp764
a(I1
I1
I0
I0
I1
I0
I1
tp765
a(I1
I1
I0
I1
I0
I1
I0
tp766
a(I0
I0
I1
I1
I1
I0
I1
tp767
a(I1
I0
I1
I0
I0
I1
I0
tp768
aa(lp769
(I0
I0
I1
I1
I0
I1
I1
tp770
a(I1
I1
I0
I0
I1
I0
I0
tp771
a(I0
I0
I0
I0
I0
I1
I0
tp772
a(I1
I1
I0
I0
I1
I0
I0
tp773
a(I0
I1
I0
I1
I0
I1
I0
tp774
a(I0
I0
I1
I1
I1
I0
I1
tp775
a(I1
I0
I1
I0
I0
I1
I0
tp776
aa(lp777
(I0
I0
I1
I1
I0
I1
I1
tp778
a(I1
I1
I0
I0
I1
I0
I0
tp779
a(I0
I0
I0
I0
I0
I1
I0
tp780
a(I1
I1
I0
I0
I1
I0
I0
tp781
a(I0
I1
I0
I0
I0
I1
I1
tp782
a(I0
I0
I1
I1
I1
I0
I1
tp783
a(I1
I0
I1
I0
I0
I1
I0
tp784
aa(lp785
(I0
I0
I1
I1
I0
I1
I1
tp786
a(I1
I1
I0
I0
I1
I0
I0
tp787
a(I0
I0
I0
I0
I0
I1
I0
tp788
a(I1
I1
I0
I0
I1
I0
I0
tp789
a(I0
I1
I0
I1
I0
I1
I1
tp790
a(I0
I0
I1
I1
I1
I0
I1
tp791
a(I1
I0
I1
I0
I0
I1
I0
tp792
aa(lp793
(I0
I0
I1
I1
I0
I1
I1
tp794
a(I1
I1
I0
I0
I1
I0
I0
tp795
a(I0
I0
I0
I0
I0
I1
I0
tp796
a(I1
I1
I0
I0
I1
I0
I0
tp797
a(I0
I0
I0
I0
I0
I1
I0
tp798
a(I0
I0
I1
I1
I1
I0
I1
tp799
a(I1
I0
I1
I0
I0
I1
I0
tp800
aa(lp801
(I0
I0
I1
I1
I0
I1
I1
tp802
a(I1
I1
I0
I0
I1
I0
I0
tp803
a(I0
I0
I0
I0
I0
I1
I0
tp804
a(I1
I1
I0
I0
I1
I0
I0
tp805
a(I0
I0
I0
I1
I0
I1
I1
tp806
a(I0
I0
I1
I1
I1
I0
I1
tp807
a(I1
I0
I1
I0
I0
I1
I0
tp808
aa(lp809
(I0
I0
I1
I1
I0
I1
I1
tp810
a(I1
I1
I0
I0
I1
I0
I0
tp811
a(I0
I0
I0
I0
I0
I1
I0
tp812
a(I1
I1
I0
I0
I1
I0
I0
tp813
a(I1
I1
I0
I1
I0
I1
I0
tp814
a(I0
I0
I1
I1
I1
I0
I1
tp815
a(I1
I0
I1
I0
I0
I1
I0
tp816
aa(lp817
(I0
I0
I1
I1
I0
I1
I1
tp818
a(I1
I1
I0
I0
I1
I0
I0
tp819
a(I0
I0
I0
I0
I0
I1
I0
tp820
a(I1
I1
I0
I0
I1
I0
I0
tp821
a(I1
I0
I1
I1
I1
I1
I1
tp822
a(I0
I0
I1
I1
I1
I0
I1
tp823
a(I1
I0
I1
I0
I0
I1
I0
tp824
aa(lp825
(I0
I0
I1
I1
I0
I1
I1
tp826
a(I1
I1
I0
I0
I1
I0
I0
tp827
a(I0
I0
I0
I0
I0
I1
I0
tp828
a(I1
I1
I0
I0
I1
I0
I0
tp829
a(I1
I0
I1
I1
I0
I1
I0
tp830
a(I0
I0
I1
I1
I1
I0
I1
tp831
a(I1
I0
I1
I0
I0
I1
I0
tp832
aa(lp833
(I0
I0
I1
I1
I0
I1
I1
tp834
a(I1
I1
I0
I0
I1
I0
I0
tp835
a(I0
I0
I0
I0
I0
I1
I0
tp836
a(I1
I1
I0
I0
I1
I0
I0
tp837
a(I0
I0
I0
I1
I1
I1
I0
tp838
a(I0
I0
I1
I1
I1
I0
I1
tp839
a(I1
I0
I1
I0
I0
I1
I0
tp840
aa(lp841
(I0
I0
I1
I1
I0
I1
I1
tp842
a(I1
I1
I0
I0
I1
I0
I0
tp843
a(I0
I0
I0
I0
I0
I1
I0
tp844
a(I1
I1
I0
I0
I1
I0
I0
tp845
a(I1
I0
I0
I1
I0
I1
I0
tp846
a(I0
I0
I1
I1
I1
I0
I1
tp847
a(I1
I0
I1
I0
I0
I1
I0
tp848
aa(lp849
(I0
I0
I1
I1
I0
I1
I1
tp850
a(I1
I1
I0
I0
I1
I0
I0
tp851
a(I0
I0
I0
I0
I0
I1
I0
tp852
a(I0
I1
I0
I1
I1
I0
I0
tp853
a(I1
I1
I1
I0
I0
I1
I1
tp854
a(I0
I0
I1
I1
I1
I0
I1
tp855
a(I1
I0
I1
I0
I0
I1
I0
tp856
aa(lp857
(I0
I0
I1
I1
I0
I1
I1
tp858
a(I1
I1
I0
I0
I1
I0
I0
tp859
a(I0
I0
I0
I0
I0
I1
I0
tp860
a(I1
I0
I0
I1
I0
I0
I0
tp861
a(I0
I0
I0
I1
I0
I1
I1
tp862
a(I0
I0
I1
I1
I1
I0
I1
tp863
a(I1
I0
I1
I0
I0
I1
I0
tp864
aa(lp865
(I0
I0
I1
I1
I0
I1
I1
tp866
a(I1
I1
I0
I0
I1
I0
I0
tp867
a(I0
I0
I0
I0
I0
I1
I0
tp868
a(I1
I1
I0
I0
I0
I0
I0
tp869
a(I1
I1
I0
I1
I0
I1
I1
tp870
a(I0
I0
I1
I1
I1
I0
I1
tp871
a(I1
I0
I1
I0
I0
I1
I0
tp872
aa(lp873
(I0
I0
I1
I1
I0
I1
I1
tp874
a(I1
I1
I0
I0
I1
I0
I0
tp875
a(I0
I0
I0
I0
I0
I1
I0
tp876
a(I1
I1
I0
I0
I0
I0
I0
tp877
a(I1
I1
I0
I1
I0
I1
I1
tp878
a(I0
I1
I1
I1
I1
I0
I1
tp879
a(I1
I0
I1
I0
I0
I1
I0
tp880
aa(lp881
(I0
I0
I1
I1
I0
I1
I1
tp882
a(I1
I1
I0
I0
I1
I0
I0
tp883
a(I0
I0
I0
I0
I0
I1
I0
tp884
a(I0
I0
I0
I1
I0
I0
I0
tp885
a(I1
I0
I0
I1
I0
I1
I1
tp886
a(I0
I0
I1
I1
I1
I0
I1
tp887
a(I1
I0
I1
I0
I0
I1
I0
tp888
aa(lp889
(I0
I0
I1
I1
I0
I1
I1
tp890
a(I1
I1
I0
I0
I1
I0
I0
tp891
a(I0
I0
I0
I0
I0
I1
I0
tp892
a(I0
I0
I0
I1
I0
I0
I0
tp893
a(I0
I1
I0
I1
I0
I1
I1
tp894
a(I0
I0
I1
I1
I1
I0
I1
tp895
a(I1
I0
I1
I0
I0
I1
I0
tp896
aa(lp897
(I0
I0
I1
I1
I0
I1
I1
tp898
a(I1
I1
I0
I0
I1
I0
I0
tp899
a(I0
I0
I0
I0
I0
I1
I0
tp900
a(I0
I0
I0
I1
I0
I0
I0
tp901
a(I0
I0
I0
I1
I0
I1
I1
tp902
a(I0
I0
I1
I1
I1
I0
I1
tp903
a(I1
I0
I1
I0
I0
I1
I0
tp904
aa(lp905
(I0
I0
I1
I1
I0
I1
I1
tp906
a(I1
I1
I0
I0
I1
I0
I0
tp907
a(I0
I0
I0
I0
I0
I1
I0
tp908
a(I1
I1
I0
I0
I1
I0
I0
tp909
a(I1
I1
I1
I1
I0
I0
I0
tp910
a(I0
I0
I1
I1
I1
I0
I0
tp911
a(I1
I0
I1
I0
I0
I1
I0
tp912
aa(lp913
(I0
I0
I1
I1
I0
I1
I1
tp914
a(I1
I1
I0
I0
I1
I0
I0
tp915
a(I0
I0
I0
I0
I0
I1
I0
tp916
a(I1
I1
I0
I0
I1
I0
I0
tp917
a(I1
I0
I0
I1
I0
I0
I0
tp918
a(I0
I0
I1
I1
I1
I0
I0
tp919
a(I1
I0
I1
I0
I0
I1
I0
tp920
aa(lp921
(I0
I0
I1
I1
I0
I1
I1
tp922
a(I1
I0
I0
I1
I0
I0
I0
tp923
a(I0
I0
I0
I0
I0
I1
I0
tp924
a(I1
I1
I0
I0
I1
I0
I0
tp925
a(I1
I0
I0
I1
I0
I1
I0
tp926
a(I0
I0
I1
I1
I1
I0
I1
tp927
a(I1
I0
I1
I0
I0
I1
I0
tp928
aa(lp929
(I0
I0
I1
I1
I0
I1
I1
tp930
a(I1
I0
I0
I1
I0
I0
I0
tp931
a(I0
I0
I0
I0
I0
I1
I0
tp932
a(I1
I1
I0
I0
I1
I0
I0
tp933
a(I1
I1
I0
I1
I0
I1
I0
tp934
a(I0
I0
I1
I1
I1
I0
I1
tp935
a(I1
I0
I1
I0
I0
I1
I0
tp936
aa(lp937
(I0
I0
I1
I1
I0
I1
I1
tp938
a(I1
I0
I0
I1
I0
I0
I0
tp939
a(I0
I0
I0
I0
I0
I1
I0
tp940
a(I1
I1
I0
I0
I1
I0
I0
tp941
a(I0
I0
I0
I1
I0
I1
I0
tp942
a(I0
I0
I1
I1
I1
I0
I1
tp943
a(I1
I0
I1
I0
I0
I1
I0
tp944
aa(lp945
(I0
I0
I1
I1
I0
I1
I1
tp946
a(I1
I1
I0
I0
I0
I0
I0
tp947
a(I0
I0
I0
I0
I0
I1
I0
tp948
a(I1
I1
I0
I0
I1
I0
I0
tp949
a(I0
I1
I0
I1
I0
I1
I1
tp950
a(I0
I0
I1
I1
I1
I0
I1
tp951
a(I1
I0
I1
I0
I0
I1
I0
tp952
aa(lp953
(I0
I0
I1
I1
I0
I1
I1
tp954
a(I1
I1
I0
I0
I0
I0
I0
tp955
a(I0
I0
I0
I0
I0
I1
I0
tp956
a(I1
I1
I0
I0
I1
I0
I0
tp957
a(I1
I0
I0
I1
I0
I1
I1
tp958
a(I0
I0
I1
I1
I1
I0
I1
tp959
a(I1
I0
I1
I0
I0
I1
I0
tp960
aa(lp961
(I0
I0
I1
I1
I0
I1
I1
tp962
a(I1
I1
I0
I0
I0
I0
I0
tp963
a(I0
I0
I0
I0
I0
I1
I0
tp964
a(I1
I1
I0
I0
I1
I0
I0
tp965
a(I1
I0
I1
I1
I0
I1
I0
tp966
a(I0
I0
I1
I1
I1
I0
I1
tp967
a(I1
I0
I1
I0
I0
I1
I0
tp968
aa(lp969
(I0
I0
I1
I1
I0
I1
I1
tp970
a(I1
I1
I0
I0
I0
I0
I0
tp971
a(I0
I0
I0
I0
I0
I1
I0
tp972
a(I1
I1
I0
I0
I1
I0
I0
tp973
a(I1
I0
I0
I1
I0
I1
I0
tp974
a(I0
I0
I1
I1
I1
I0
I1
tp975
a(I1
I0
I1
I0
I0
I1
I0
tp976
aa(lp977
(I0
I0
I1
I1
I0
I1
I1
tp978
a(I1
I0
I0
I0
I0
I0
I0
tp979
a(I0
I0
I0
I0
I0
I1
I0
tp980
a(I1
I1
I0
I0
I1
I0
I1
tp981
a(I1
I1
I0
I1
I0
I1
I1
tp982
a(I0
I0
I1
I1
I1
I0
I1
tp983
a(I1
I0
I1
I0
I0
I1
I0
tp984
aa(lp985
(I0
I0
I1
I1
I0
I1
I1
tp986
a(I1
I0
I0
I0
I0
I0
I0
tp987
a(I0
I0
I0
I0
I0
I1
I0
tp988
a(I1
I1
I0
I0
I1
I0
I1
tp989
a(I1
I1
I0
I1
I1
I1
I1
tp990
a(I0
I0
I1
I1
I1
I0
I1
tp991
a(I1
I0
I1
I0
I0
I1
I0
tp992
aa(lp993
(I0
I0
I1
I1
I0
I1
I1
tp994
a(I1
I0
I0
I1
I0
I0
I0
tp995
a(I0
I0
I0
I0
I0
I1
I0
tp996
a(I1
I1
I0
I0
I0
I0
I0
tp997
a(I1
I0
I0
I1
I0
I1
I0
tp998
a(I0
I0
I1
I1
I1
I0
I1
tp999
a(I1
I0
I1
I0
I0
I1
I0
tp1000
aa(lp1001
(I0
I0
I1
I1
I0
I1
I1
tp1002
a(I1
I0
I0
I0
I0
I0
I0
tp1003
a(I0
I0
I0
I0
I0
I1
I0
tp1004
a(I1
I1
I0
I0
I1
I0
I0
tp1005
a(I1
I1
I0
I1
I1
I1
I1
tp1006
a(I0
I0
I1
I1
I1
I0
I1
tp1007
a(I1
I0
I1
I0
I0
I1
I0
tp1008
aa(lp1009
(I0
I0
I1
I1
I0
I1
I1
tp1010
a(I1
I0
I0
I0
I0
I0
I0
tp1011
a(I0
I0
I0
I0
I0
I1
I0
tp1012
a(I1
I1
I0
I0
I1
I0
I0
tp1013
a(I0
I1
I0
I1
I0
I1
I1
tp1014
a(I0
I0
I1
I1
I1
I0
I1
tp1015
a(I1
I0
I1
I0
I0
I1
I0
tp1016
aa(lp1017
(I0
I0
I1
I1
I0
I1
I1
tp1018
a(I1
I0
I0
I0
I0
I0
I0
tp1019
a(I0
I0
I0
I0
I0
I1
I0
tp1020
a(I1
I1
I0
I0
I1
I0
I0
tp1021
a(I1
I0
I0
I1
I0
I1
I1
tp1022
a(I0
I0
I1
I1
I1
I0
I1
tp1023
a(I1
I0
I1
I0
I0
I1
I0
tp1024
aa(lp1025
(I0
I0
I1
I1
I0
I1
I1
tp1026
a(I1
I0
I0
I0
I0
I0
I0
tp1027
a(I0
I0
I0
I0
I0
I1
I0
tp1028
a(I1
I1
I0
I0
I1
I0
I0
tp1029
a(I1
I0
I0
I1
I0
I1
I0
tp1030
a(I0
I0
I1
I1
I1
I0
I1
tp1031
a(I1
I0
I1
I0
I0
I1
I0
tp1032
aa(lp1033
(I0
I0
I1
I1
I0
I1
I1
tp1034
a(I1
I0
I0
I0
I0
I0
I0
tp1035
a(I0
I0
I0
I0
I0
I1
I0
tp1036
a(I1
I1
I0
I0
I1
I0
I0
tp1037
a(I0
I0
I0
I1
I0
I1
I1
tp1038
a(I0
I0
I1
I1
I1
I0
I1
tp1039
a(I1
I0
I1
I0
I0
I1
I0
tp1040
aa(lp1041
(I0
I0
I1
I1
I0
I1
I1
tp1042
a(I1
I0
I0
I0
I0
I0
I0
tp1043
a(I0
I0
I0
I0
I0
I1
I0
tp1044
a(I1
I1
I0
I0
I1
I0
I0
tp1045
a(I1
I1
I0
I1
I0
I1
I0
tp1046
a(I0
I0
I1
I1
I1
I0
I1
tp1047
a(I1
I0
I1
I0
I0
I1
I0
tp1048
aa(lp1049
(I0
I0
I1
I1
I0
I1
I1
tp1050
a(I1
I0
I0
I0
I0
I0
I0
tp1051
a(I0
I0
I0
I0
I0
I1
I0
tp1052
a(I1
I1
I0
I0
I1
I0
I0
tp1053
a(I0
I0
I0
I1
I0
I1
I0
tp1054
a(I0
I0
I1
I1
I1
I0
I1
tp1055
a(I1
I0
I1
I0
I0
I1
I0
tp1056
aa(lp1057
(I0
I0
I1
I1
I0
I1
I1
tp1058
a(I1
I0
I0
I0
I0
I0
I0
tp1059
a(I0
I0
I0
I0
I0
I1
I0
tp1060
a(I0
I1
I0
I1
I1
I0
I0
tp1061
a(I0
I0
I0
I1
I1
I1
I1
tp1062
a(I0
I0
I1
I1
I1
I1
I1
tp1063
a(I1
I0
I1
I0
I0
I1
I0
tp1064
aa(lp1065
(I0
I0
I1
I1
I0
I1
I1
tp1066
a(I1
I0
I0
I0
I0
I0
I0
tp1067
a(I0
I0
I0
I0
I0
I1
I0
tp1068
a(I1
I1
I0
I1
I0
I0
I0
tp1069
a(I0
I1
I0
I1
I0
I1
I0
tp1070
a(I0
I0
I1
I1
I1
I0
I1
tp1071
a(I1
I0
I1
I0
I0
I1
I0
tp1072
aa(lp1073
(I0
I0
I1
I1
I0
I1
I1
tp1074
a(I1
I0
I0
I0
I0
I0
I0
tp1075
a(I0
I0
I0
I0
I0
I1
I0
tp1076
a(I1
I1
I0
I1
I0
I0
I0
tp1077
a(I0
I1
I1
I1
I0
I1
I1
tp1078
a(I0
I0
I1
I1
I1
I0
I1
tp1079
a(I1
I0
I1
I0
I0
I1
I0
tp1080
aa(lp1081
(I0
I0
I1
I1
I0
I1
I1
tp1082
a(I1
I0
I0
I0
I0
I0
I0
tp1083
a(I0
I0
I0
I0
I0
I1
I0
tp1084
a(I1
I1
I0
I1
I0
I0
I0
tp1085
a(I0
I1
I0
I1
I0
I1
I1
tp1086
a(I0
I0
I1
I1
I1
I0
I1
tp1087
a(I1
I0
I1
I0
I0
I1
I0
tp1088
aa(lp1089
(I0
I0
I1
I1
I0
I1
I1
tp1090
a(I1
I0
I0
I0
I0
I0
I0
tp1091
a(I0
I0
I0
I0
I0
I1
I0
tp1092
a(I1
I0
I0
I1
I0
I0
I0
tp1093
a(I0
I1
I0
I1
I0
I1
I1
tp1094
a(I0
I0
I1
I1
I1
I0
I1
tp1095
a(I1
I0
I1
I0
I0
I1
I0
tp1096
aa(lp1097
(I0
I0
I1
I1
I0
I1
I1
tp1098
a(I1
I0
I0
I0
I0
I0
I0
tp1099
a(I0
I0
I0
I0
I0
I1
I0
tp1100
a(I1
I0
I0
I1
I0
I0
I0
tp1101
a(I0
I0
I0
I1
I0
I1
I1
tp1102
a(I0
I0
I1
I1
I1
I0
I1
tp1103
a(I1
I0
I1
I0
I0
I1
I0
tp1104
aa(lp1105
(I0
I0
I1
I1
I0
I1
I1
tp1106
a(I1
I0
I0
I0
I0
I0
I0
tp1107
a(I0
I0
I0
I0
I0
I1
I0
tp1108
a(I1
I1
I0
I0
I0
I0
I0
tp1109
a(I0
I0
I0
I1
I0
I1
I1
tp1110
a(I0
I0
I1
I1
I1
I0
I1
tp1111
a(I1
I0
I1
I0
I0
I1
I0
tp1112
aa(lp1113
(I0
I0
I1
I1
I0
I1
I1
tp1114
a(I1
I0
I0
I0
I0
I0
I0
tp1115
a(I0
I0
I0
I0
I0
I1
I0
tp1116
a(I1
I0
I0
I0
I0
I0
I0
tp1117
a(I0
I0
I0
I1
I0
I1
I1
tp1118
a(I0
I0
I1
I1
I1
I0
I1
tp1119
a(I1
I0
I1
I0
I0
I1
I0
tp1120
aa(lp1121
(I0
I0
I1
I1
I0
I1
I1
tp1122
a(I1
I0
I0
I0
I0
I0
I0
tp1123
a(I0
I0
I0
I0
I0
I1
I0
tp1124
a(I1
I1
I0
I0
I0
I0
I0
tp1125
a(I1
I1
I0
I1
I0
I1
I1
tp1126
a(I0
I1
I1
I1
I1
I0
I1
tp1127
a(I1
I0
I1
I0
I0
I1
I0
tp1128
aa(lp1129
(I0
I0
I1
I1
I0
I1
I1
tp1130
a(I1
I0
I0
I0
I0
I0
I0
tp1131
a(I0
I0
I0
I0
I0
I1
I0
tp1132
a(I1
I0
I0
I0
I0
I0
I0
tp1133
a(I1
I1
I0
I1
I0
I1
I1
tp1134
a(I0
I1
I1
I1
I1
I0
I1
tp1135
a(I1
I0
I1
I0
I0
I1
I0
tp1136
aa(lp1137
(I0
I0
I1
I1
I0
I1
I1
tp1138
a(I1
I1
I0
I0
I1
I0
I1
tp1139
a(I0
I0
I0
I0
I0
I1
I1
tp1140
a(I1
I1
I0
I0
I1
I0
I1
tp1141
a(I1
I0
I0
I1
I1
I1
I1
tp1142
a(I0
I0
I1
I1
I1
I0
I1
tp1143
a(I1
I0
I1
I0
I0
I0
I0
tp1144
aa(lp1145
(I0
I0
I1
I1
I0
I1
I1
tp1146
a(I1
I1
I0
I0
I1
I0
I1
tp1147
a(I0
I0
I0
I0
I0
I1
I1
tp1148
a(I1
I1
I0
I0
I1
I0
I1
tp1149
a(I1
I1
I0
I1
I1
I1
I0
tp1150
a(I0
I0
I1
I1
I1
I0
I1
tp1151
a(I1
I0
I1
I0
I0
I0
I0
tp1152
aa(lp1153
(I0
I0
I1
I1
I0
I1
I1
tp1154
a(I1
I1
I0
I0
I1
I0
I1
tp1155
a(I0
I0
I0
I0
I0
I1
I1
tp1156
a(I1
I1
I0
I0
I1
I0
I1
tp1157
a(I1
I1
I0
I1
I1
I1
I1
tp1158
a(I0
I0
I1
I1
I1
I0
I1
tp1159
a(I1
I0
I1
I0
I0
I0
I0
tp1160
aa(lp1161
(I0
I0
I1
I1
I0
I1
I1
tp1162
a(I1
I1
I0
I0
I1
I0
I1
tp1163
a(I0
I0
I0
I0
I0
I1
I1
tp1164
a(I1
I1
I0
I0
I1
I0
I1
tp1165
a(I1
I1
I0
I1
I0
I1
I0
tp1166
a(I0
I0
I1
I1
I1
I0
I1
tp1167
a(I1
I0
I1
I0
I0
I0
I0
tp1168
aa(lp1169
(I0
I0
I1
I1
I0
I1
I1
tp1170
a(I1
I1
I0
I0
I1
I0
I1
tp1171
a(I0
I0
I0
I0
I0
I1
I1
tp1172
a(I1
I1
I0
I0
I1
I0
I0
tp1173
a(I1
I1
I0
I1
I1
I1
I1
tp1174
a(I0
I0
I1
I1
I1
I0
I1
tp1175
a(I1
I0
I1
I0
I0
I0
I0
tp1176
aa(lp1177
(I0
I0
I1
I1
I0
I1
I1
tp1178
a(I1
I1
I0
I0
I1
I0
I1
tp1179
a(I0
I0
I0
I0
I0
I1
I1
tp1180
a(I1
I1
I0
I0
I1
I0
I0
tp1181
a(I1
I1
I1
I0
I0
I1
I0
tp1182
a(I0
I0
I1
I1
I1
I0
I1
tp1183
a(I1
I0
I1
I0
I0
I0
I0
tp1184
aa(lp1185
(I0
I0
I1
I1
I0
I1
I1
tp1186
a(I1
I1
I0
I0
I1
I0
I1
tp1187
a(I0
I0
I0
I0
I0
I1
I1
tp1188
a(I1
I1
I0
I0
I1
I0
I0
tp1189
a(I0
I1
I1
I1
I0
I1
I1
tp1190
a(I0
I0
I1
I1
I1
I0
I1
tp1191
a(I1
I0
I1
I0
I0
I0
I0
tp1192
aa(lp1193
(I0
I0
I1
I1
I0
I1
I1
tp1194
a(I1
I1
I0
I0
I1
I0
I1
tp1195
a(I0
I0
I0
I0
I0
I1
I1
tp1196
a(I1
I1
I0
I0
I1
I0
I0
tp1197
a(I1
I1
I1
I1
I0
I1
I0
tp1198
a(I0
I0
I1
I1
I1
I0
I1
tp1199
a(I1
I0
I1
I0
I0
I0
I0
tp1200
aa(lp1201
(I0
I0
I1
I1
I0
I1
I1
tp1202
a(I1
I1
I0
I0
I1
I0
I1
tp1203
a(I0
I0
I0
I0
I0
I1
I1
tp1204
a(I1
I1
I0
I0
I1
I0
I0
tp1205
a(I0
I1
I0
I1
I0
I1
I1
tp1206
a(I0
I0
I1
I1
I1
I0
I1
tp1207
a(I1
I0
I1
I0
I0
I0
I0
tp1208
aa(lp1209
(I0
I0
I1
I1
I0
I1
I1
tp1210
a(I1
I1
I0
I0
I1
I0
I1
tp1211
a(I0
I0
I0
I0
I0
I1
I1
tp1212
a(I1
I1
I0
I0
I1
I0
I0
tp1213
a(I1
I0
I1
I0
I1
I1
I1
tp1214
a(I0
I0
I1
I1
I1
I0
I1
tp1215
a(I1
I0
I1
I0
I0
I0
I0
tp1216
aa(lp1217
(I0
I0
I1
I1
I0
I1
I1
tp1218
a(I1
I1
I0
I0
I1
I0
I1
tp1219
a(I0
I0
I0
I0
I0
I1
I1
tp1220
a(I1
I1
I0
I0
I1
I0
I0
tp1221
a(I1
I0
I0
I1
I0
I1
I1
tp1222
a(I0
I0
I1
I1
I1
I0
I1
tp1223
a(I1
I0
I1
I0
I0
I0
I0
tp1224
aa(lp1225
(I0
I0
I1
I1
I0
I1
I1
tp1226
a(I1
I1
I0
I0
I1
I0
I1
tp1227
a(I0
I0
I0
I0
I0
I1
I1
tp1228
a(I1
I1
I0
I0
I1
I0
I0
tp1229
a(I0
I0
I0
I1
I0
I1
I1
tp1230
a(I0
I0
I1
I1
I1
I0
I1
tp1231
a(I1
I0
I1
I0
I0
I0
I0
tp1232
aa(lp1233
(I0
I0
I1
I1
I0
I1
I1
tp1234
a(I1
I1
I0
I0
I1
I0
I1
tp1235
a(I0
I0
I0
I0
I0
I1
I1
tp1236
a(I1
I1
I0
I0
I1
I0
I0
tp1237
a(I1
I0
I1
I1
I0
I0
I0
tp1238
a(I0
I0
I1
I1
I1
I0
I1
tp1239
a(I1
I0
I1
I0
I0
I0
I0
tp1240
aa(lp1241
(I0
I0
I1
I1
I0
I1
I1
tp1242
a(I1
I1
I0
I0
I1
I0
I1
tp1243
a(I0
I0
I0
I0
I0
I1
I1
tp1244
a(I1
I1
I0
I0
I1
I0
I0
tp1245
a(I1
I0
I1
I1
I1
I1
I1
tp1246
a(I0
I0
I1
I1
I1
I0
I1
tp1247
a(I1
I0
I1
I0
I0
I0
I0
tp1248
aa(lp1249
(I0
I0
I1
I1
I0
I1
I1
tp1250
a(I1
I1
I0
I0
I1
I0
I1
tp1251
a(I0
I0
I0
I0
I0
I1
I1
tp1252
a(I1
I1
I0
I0
I1
I0
I0
tp1253
a(I0
I1
I0
I1
I0
I1
I0
tp1254
a(I0
I0
I1
I1
I1
I0
I1
tp1255
a(I1
I0
I1
I0
I0
I0
I0
tp1256
aa(lp1257
(I0
I0
I1
I1
I0
I1
I1
tp1258
a(I1
I1
I0
I0
I1
I0
I0
tp1259
a(I0
I0
I0
I0
I0
I1
I1
tp1260
a(I1
I1
I0
I0
I1
I0
I1
tp1261
a(I1
I1
I0
I1
I0
I1
I0
tp1262
a(I0
I0
I1
I1
I1
I0
I1
tp1263
a(I1
I0
I1
I0
I0
I0
I0
tp1264
aa(lp1265
(I0
I0
I1
I1
I0
I1
I1
tp1266
a(I1
I1
I0
I0
I1
I0
I0
tp1267
a(I0
I0
I0
I0
I0
I1
I1
tp1268
a(I1
I1
I0
I0
I1
I0
I0
tp1269
a(I1
I1
I1
I0
I0
I1
I0
tp1270
a(I0
I0
I1
I1
I1
I0
I1
tp1271
a(I1
I0
I1
I0
I0
I0
I0
tp1272
aa(lp1273
(I0
I0
I1
I1
I0
I1
I1
tp1274
a(I1
I1
I0
I0
I1
I0
I0
tp1275
a(I0
I0
I0
I0
I0
I1
I1
tp1276
a(I1
I1
I0
I0
I1
I0
I0
tp1277
a(I1
I1
I1
I1
I0
I1
I0
tp1278
a(I0
I0
I1
I1
I1
I0
I1
tp1279
a(I1
I0
I1
I0
I0
I0
I0
tp1280
aa(lp1281
(I0
I0
I1
I1
I0
I1
I1
tp1282
a(I1
I1
I0
I0
I1
I0
I0
tp1283
a(I0
I0
I0
I0
I0
I1
I1
tp1284
a(I1
I1
I0
I0
I1
I0
I0
tp1285
a(I0
I0
I0
I1
I0
I1
I1
tp1286
a(I0
I0
I1
I1
I1
I0
I1
tp1287
a(I1
I0
I1
I0
I0
I0
I0
tp1288
aa(lp1289
(I0
I0
I1
I1
I0
I1
I1
tp1290
a(I1
I1
I0
I0
I1
I0
I0
tp1291
a(I0
I0
I0
I0
I0
I1
I1
tp1292
a(I1
I1
I0
I0
I1
I0
I0
tp1293
a(I1
I0
I1
I1
I0
I1
I1
tp1294
a(I0
I0
I1
I1
I1
I0
I1
tp1295
a(I1
I0
I1
I0
I0
I0
I0
tp1296
aa(lp1297
(I0
I0
I1
I1
I0
I1
I1
tp1298
a(I1
I1
I0
I0
I1
I0
I0
tp1299
a(I0
I0
I0
I0
I0
I1
I1
tp1300
a(I1
I1
I0
I0
I1
I0
I0
tp1301
a(I1
I0
I1
I1
I1
I1
I1
tp1302
a(I0
I0
I1
I1
I1
I0
I1
tp1303
a(I1
I0
I1
I0
I0
I0
I0
tp1304
aa(lp1305
(I0
I0
I1
I1
I0
I1
I1
tp1306
a(I1
I1
I0
I0
I1
I0
I0
tp1307
a(I0
I0
I0
I0
I0
I1
I1
tp1308
a(I1
I1
I0
I0
I1
I0
I0
tp1309
a(I0
I0
I0
I1
I0
I1
I1
tp1310
a(I0
I0
I1
I1
I1
I1
I1
tp1311
a(I1
I0
I1
I0
I0
I0
I0
tp1312
aa(lp1313
(I0
I0
I1
I1
I0
I1
I0
tp1314
a(I1
I1
I0
I0
I1
I0
I1
tp1315
a(I0
I0
I0
I0
I0
I1
I1
tp1316
a(I1
I1
I0
I0
I1
I0
I1
tp1317
a(I1
I1
I0
I1
I1
I1
I0
tp1318
a(I0
I0
I1
I1
I1
I0
I1
tp1319
a(I1
I0
I1
I0
I0
I0
I0
tp1320
aa(lp1321
(I0
I0
I1
I1
I0
I1
I0
tp1322
a(I1
I1
I0
I0
I1
I0
I1
tp1323
a(I0
I0
I0
I0
I0
I1
I1
tp1324
a(I1
I1
I0
I0
I1
I0
I1
tp1325
a(I0
I0
I1
I1
I0
I1
I1
tp1326
a(I0
I0
I1
I1
I1
I0
I1
tp1327
a(I1
I0
I1
I0
I0
I0
I0
tp1328
aa(lp1329
(I0
I0
I1
I1
I0
I1
I0
tp1330
a(I1
I1
I0
I0
I1
I0
I1
tp1331
a(I0
I0
I0
I0
I0
I1
I1
tp1332
a(I1
I1
I0
I0
I1
I1
I1
tp1333
a(I0
I0
I0
I1
I0
I1
I0
tp1334
a(I0
I0
I1
I1
I1
I0
I1
tp1335
a(I1
I0
I1
I0
I0
I0
I0
tp1336
aa(lp1337
(I0
I0
I1
I1
I0
I1
I0
tp1338
a(I1
I1
I0
I0
I1
I0
I1
tp1339
a(I0
I0
I0
I0
I0
I1
I1
tp1340
a(I1
I1
I0
I0
I1
I0
I0
tp1341
a(I0
I1
I0
I1
I0
I0
I0
tp1342
a(I0
I0
I1
I1
I1
I0
I1
tp1343
a(I1
I0
I1
I0
I0
I0
I0
tp1344
aa(lp1345
(I0
I0
I1
I1
I0
I1
I0
tp1346
a(I1
I1
I0
I0
I1
I0
I1
tp1347
a(I0
I0
I0
I0
I0
I1
I1
tp1348
a(I1
I1
I0
I0
I1
I0
I0
tp1349
a(I0
I1
I0
I1
I0
I1
I0
tp1350
a(I0
I0
I1
I1
I1
I0
I1
tp1351
a(I1
I0
I1
I0
I0
I0
I0
tp1352
aa(lp1353
(I0
I0
I1
I1
I0
I1
I0
tp1354
a(I1
I1
I0
I0
I1
I0
I0
tp1355
a(I0
I0
I0
I0
I0
I1
I1
tp1356
a(I1
I1
I0
I0
I1
I1
I1
tp1357
a(I0
I0
I0
I1
I0
I1
I1
tp1358
a(I0
I0
I1
I1
I1
I0
I1
tp1359
a(I1
I0
I1
I0
I0
I0
I0
tp1360
aa(lp1361
(I0
I0
I1
I1
I0
I1
I0
tp1362
a(I1
I1
I0
I0
I1
I0
I0
tp1363
a(I0
I0
I0
I0
I0
I1
I1
tp1364
a(I1
I1
I0
I0
I1
I0
I0
tp1365
a(I1
I0
I0
I1
I1
I1
I1
tp1366
a(I0
I0
I1
I1
I1
I0
I1
tp1367
a(I1
I0
I1
I0
I0
I0
I0
tp1368
aa(lp1369
(I0
I0
I1
I1
I0
I1
I0
tp1370
a(I1
I1
I0
I0
I1
I0
I0
tp1371
a(I0
I0
I0
I0
I0
I1
I1
tp1372
a(I1
I1
I0
I0
I1
I0
I0
tp1373
a(I0
I1
I1
I0
I0
I1
I0
tp1374
a(I0
I0
I1
I1
I1
I0
I1
tp1375
a(I1
I0
I1
I0
I0
I0
I0
tp1376
aa(lp1377
(I0
I0
I1
I1
I0
I1
I0
tp1378
a(I1
I1
I0
I0
I1
I0
I0
tp1379
a(I0
I0
I0
I0
I0
I1
I1
tp1380
a(I1
I1
I0
I0
I1
I0
I0
tp1381
a(I1
I1
I0
I1
I0
I1
I0
tp1382
a(I0
I0
I1
I1
I1
I0
I1
tp1383
a(I1
I0
I1
I0
I0
I0
I0
tp1384
aa(lp1385
(I0
I0
I1
I1
I0
I1
I0
tp1386
a(I1
I1
I0
I0
I1
I0
I0
tp1387
a(I0
I0
I0
I0
I0
I1
I1
tp1388
a(I1
I1
I0
I0
I1
I0
I0
tp1389
a(I1
I1
I1
I0
I0
I1
I0
tp1390
a(I0
I0
I1
I1
I1
I0
I1
tp1391
a(I1
I0
I1
I0
I0
I0
I0
tp1392
aa(lp1393
(I0
I0
I1
I1
I0
I1
I0
tp1394
a(I1
I1
I0
I0
I1
I0
I0
tp1395
a(I0
I0
I0
I0
I0
I1
I1
tp1396
a(I1
I1
I0
I0
I1
I0
I0
tp1397
a(I0
I1
I0
I1
I0
I1
I1
tp1398
a(I0
I0
I1
I1
I1
I0
I1
tp1399
a(I1
I0
I1
I0
I0
I0
I0
tp1400
aa(lp1401
(I0
I0
I1
I1
I0
I1
I0
tp1402
a(I1
I1
I0
I0
I1
I0
I0
tp1403
a(I0
I0
I0
I0
I0
I1
I1
tp1404
a(I1
I1
I0
I0
I1
I0
I0
tp1405
a(I0
I0
I0
I1
I0
I1
I1
tp1406
a(I0
I0
I1
I1
I1
I0
I1
tp1407
a(I1
I0
I1
I0
I0
I0
I0
tp1408
aa(lp1409
(I0
I0
I1
I1
I0
I1
I0
tp1410
a(I1
I1
I0
I0
I1
I0
I0
tp1411
a(I0
I0
I0
I0
I0
I1
I1
tp1412
a(I1
I1
I0
I0
I1
I0
I0
tp1413
a(I1
I0
I1
I1
I1
I1
I1
tp1414
a(I0
I0
I1
I1
I1
I0
I1
tp1415
a(I1
I0
I1
I0
I0
I0
I0
tp1416
aa(lp1417
(I0
I0
I1
I1
I0
I1
I1
tp1418
a(I1
I1
I0
I0
I1
I0
I1
tp1419
a(I0
I0
I0
I0
I0
I1
I0
tp1420
a(I1
I1
I0
I0
I1
I0
I1
tp1421
a(I1
I1
I0
I1
I1
I1
I1
tp1422
a(I0
I0
I1
I1
I1
I0
I1
tp1423
a(I1
I0
I1
I0
I0
I0
I0
tp1424
aa(lp1425
(I0
I0
I1
I1
I0
I1
I1
tp1426
a(I1
I1
I0
I0
I1
I0
I1
tp1427
a(I0
I0
I0
I0
I0
I1
I0
tp1428
a(I1
I1
I0
I0
I1
I0
I1
tp1429
a(I1
I1
I1
I0
I0
I1
I0
tp1430
a(I0
I0
I1
I1
I1
I0
I1
tp1431
a(I1
I0
I1
I0
I0
I0
I0
tp1432
aa(lp1433
(I0
I0
I1
I1
I0
I1
I1
tp1434
a(I1
I1
I0
I0
I1
I0
I1
tp1435
a(I0
I0
I0
I0
I0
I1
I0
tp1436
a(I1
I1
I0
I0
I1
I0
I1
tp1437
a(I1
I1
I0
I0
I0
I1
I0
tp1438
a(I0
I0
I1
I1
I1
I0
I1
tp1439
a(I1
I0
I1
I0
I0
I0
I0
tp1440
aa(lp1441
(I0
I0
I1
I1
I0
I1
I1
tp1442
a(I1
I1
I0
I0
I1
I0
I1
tp1443
a(I0
I0
I0
I0
I0
I1
I0
tp1444
a(I1
I1
I0
I0
I1
I0
I1
tp1445
a(I1
I1
I0
I1
I1
I0
I0
tp1446
a(I0
I0
I1
I1
I1
I0
I1
tp1447
a(I1
I0
I1
I0
I0
I0
I0
tp1448
aa(lp1449
(I0
I0
I1
I1
I0
I1
I1
tp1450
a(I1
I1
I0
I0
I1
I0
I1
tp1451
a(I0
I0
I0
I0
I0
I1
I0
tp1452
a(I1
I1
I0
I0
I1
I0
I1
tp1453
a(I1
I1
I0
I1
I0
I1
I0
tp1454
a(I0
I0
I1
I1
I1
I0
I1
tp1455
a(I1
I0
I1
I0
I0
I0
I0
tp1456
aa(lp1457
(I0
I0
I1
I1
I0
I1
I1
tp1458
a(I1
I1
I0
I0
I1
I0
I1
tp1459
a(I0
I0
I0
I0
I0
I1
I0
tp1460
a(I1
I1
I0
I0
I1
I0
I0
tp1461
a(I0
I1
I0
I1
I0
I1
I0
tp1462
a(I0
I0
I1
I1
I1
I0
I1
tp1463
a(I1
I0
I1
I0
I0
I0
I0
tp1464
aa(lp1465
(I0
I0
I1
I1
I0
I1
I1
tp1466
a(I1
I1
I0
I0
I1
I0
I1
tp1467
a(I0
I0
I0
I0
I0
I1
I0
tp1468
a(I1
I1
I0
I0
I1
I0
I0
tp1469
a(I1
I1
I1
I1
I0
I1
I1
tp1470
a(I0
I0
I1
I1
I1
I0
I1
tp1471
a(I1
I0
I1
I0
I0
I0
I0
tp1472
aa(lp1473
(I0
I0
I1
I1
I0
I1
I1
tp1474
a(I1
I1
I0
I0
I1
I0
I1
tp1475
a(I0
I0
I0
I0
I0
I1
I0
tp1476
a(I1
I1
I0
I0
I1
I0
I0
tp1477
a(I0
I0
I0
I1
I0
I1
I0
tp1478
a(I0
I0
I1
I1
I1
I0
I1
tp1479
a(I1
I0
I1
I0
I0
I0
I0
tp1480
aa(lp1481
(I0
I0
I1
I1
I0
I1
I1
tp1482
a(I1
I1
I0
I0
I1
I0
I1
tp1483
a(I0
I0
I0
I0
I0
I1
I0
tp1484
a(I1
I1
I0
I0
I1
I0
I0
tp1485
a(I1
I1
I1
I0
I0
I1
I0
tp1486
a(I0
I0
I1
I1
I1
I0
I1
tp1487
a(I1
I0
I1
I0
I0
I0
I0
tp1488
aa(lp1489
(I0
I0
I1
I1
I0
I1
I1
tp1490
a(I1
I1
I0
I0
I1
I0
I1
tp1491
a(I0
I0
I0
I0
I0
I1
I0
tp1492
a(I1
I1
I0
I0
I1
I0
I0
tp1493
a(I1
I1
I1
I1
I1
I1
I1
tp1494
a(I0
I0
I1
I1
I1
I0
I1
tp1495
a(I1
I0
I1
I0
I0
I0
I0
tp1496
aa(lp1497
(I0
I0
I1
I1
I0
I1
I1
tp1498
a(I1
I1
I0
I0
I1
I0
I1
tp1499
a(I0
I0
I0
I0
I0
I1
I0
tp1500
a(I1
I1
I0
I0
I1
I0
I0
tp1501
a(I1
I1
I0
I1
I0
I1
I0
tp1502
a(I0
I0
I1
I1
I1
I0
I1
tp1503
a(I1
I0
I1
I0
I0
I0
I0
tp1504
aa(lp1505
(I0
I0
I1
I1
I0
I1
I1
tp1506
a(I1
I1
I0
I0
I1
I0
I1
tp1507
a(I0
I0
I0
I0
I0
I1
I0
tp1508
a(I1
I1
I0
I0
I1
I0
I0
tp1509
a(I1
I1
I1
I1
I0
I1
I0
tp1510
a(I0
I0
I1
I1
I1
I0
I1
tp1511
a(I1
I0
I1
I0
I0
I0
I0
tp1512
aa(lp1513
(I0
I0
I1
I1
I0
I1
I1
tp1514
a(I1
I1
I0
I0
I1
I0
I1
tp1515
a(I0
I0
I0
I0
I0
I1
I0
tp1516
a(I1
I1
I0
I0
I1
I0
I0
tp1517
a(I0
I1
I0
I1
I0
I1
I1
tp1518
a(I0
I0
I1
I1
I1
I0
I1
tp1519
a(I1
I0
I1
I0
I0
I0
I0
tp1520
aa(lp1521
(I0
I0
I1
I1
I0
I1
I1
tp1522
a(I1
I1
I0
I0
I1
I0
I1
tp1523
a(I0
I0
I0
I0
I0
I1
I0
tp1524
a(I1
I1
I0
I0
I1
I0
I0
tp1525
a(I0
I0
I0
I1
I0
I1
I1
tp1526
a(I0
I0
I1
I1
I1
I0
I1
tp1527
a(I1
I0
I1
I0
I0
I0
I0
tp1528
aa(lp1529
(I0
I0
I1
I1
I0
I1
I1
tp1530
a(I1
I1
I0
I0
I1
I0
I1
tp1531
a(I0
I0
I0
I0
I0
I1
I0
tp1532
a(I1
I1
I0
I0
I1
I0
I0
tp1533
a(I1
I0
I0
I1
I0
I1
I1
tp1534
a(I0
I0
I1
I1
I1
I0
I1
tp1535
a(I1
I0
I1
I0
I0
I0
I0
tp1536
aa(lp1537
(I0
I0
I1
I1
I0
I1
I1
tp1538
a(I1
I1
I0
I0
I1
I0
I1
tp1539
a(I0
I0
I0
I0
I0
I1
I0
tp1540
a(I1
I1
I0
I0
I1
I0
I0
tp1541
a(I1
I0
I0
I1
I1
I1
I1
tp1542
a(I0
I0
I1
I1
I1
I0
I1
tp1543
a(I1
I0
I1
I0
I0
I0
I0
tp1544
aa(lp1545
(I0
I0
I1
I1
I0
I1
I1
tp1546
a(I1
I1
I0
I0
I1
I0
I0
tp1547
a(I0
I0
I0
I0
I0
I1
I0
tp1548
a(I1
I1
I0
I0
I1
I0
I1
tp1549
a(I1
I1
I0
I1
I0
I1
I0
tp1550
a(I0
I0
I1
I1
I1
I0
I1
tp1551
a(I1
I0
I1
I0
I0
I0
I0
tp1552
aa(lp1553
(I0
I0
I1
I1
I0
I1
I1
tp1554
a(I1
I1
I0
I0
I1
I0
I0
tp1555
a(I0
I0
I0
I0
I0
I1
I0
tp1556
a(I1
I1
I0
I0
I1
I0
I0
tp1557
a(I0
I1
I0
I1
I0
I1
I0
tp1558
a(I0
I0
I1
I1
I1
I0
I1
tp1559
a(I1
I0
I1
I0
I0
I0
I0
tp1560
aa(lp1561
(I0
I0
I1
I1
I0
I1
I1
tp1562
a(I1
I1
I0
I0
I1
I0
I0
tp1563
a(I0
I0
I0
I0
I0
I1
I0
tp1564
a(I0
I1
I0
I1
I0
I1
I0
tp1565
a(I1
I0
I1
I1
I0
I1
I0
tp1566
a(I0
I0
I1
I1
I1
I0
I1
tp1567
a(I1
I0
I1
I0
I0
I0
I0
tp1568
aa(lp1569
(I0
I0
I1
I1
I0
I1
I1
tp1570
a(I1
I1
I0
I0
I1
I0
I0
tp1571
a(I0
I0
I0
I0
I0
I1
I0
tp1572
a(I1
I1
I0
I1
I0
I0
I0
tp1573
a(I0
I1
I0
I1
I0
I1
I1
tp1574
a(I0
I0
I1
I1
I1
I0
I1
tp1575
a(I1
I0
I1
I0
I0
I0
I0
tp1576
aa(lp1577
(I0
I0
I1
I1
I0
I1
I1
tp1578
a(I1
I1
I0
I0
I1
I0
I0
tp1579
a(I0
I0
I0
I0
I0
I1
I0
tp1580
a(I1
I1
I0
I1
I0
I0
I0
tp1581
a(I1
I0
I1
I1
I1
I1
I1
tp1582
a(I0
I0
I1
I1
I1
I0
I1
tp1583
a(I1
I0
I1
I0
I0
I0
I0
tp1584
aa(lp1585
(I0
I0
I1
I1
I0
I1
I1
tp1586
a(I1
I1
I0
I0
I1
I0
I0
tp1587
a(I0
I0
I0
I0
I0
I1
I0
tp1588
a(I1
I1
I0
I1
I0
I0
I0
tp1589
a(I1
I1
I0
I1
I0
I1
I1
tp1590
a(I0
I0
I1
I1
I1
I0
I1
tp1591
a(I1
I0
I1
I0
I0
I0
I0
tp1592
aa(lp1593
(I0
I0
I1
I1
I0
I1
I1
tp1594
a(I1
I1
I0
I0
I1
I0
I0
tp1595
a(I0
I0
I0
I0
I0
I1
I0
tp1596
a(I1
I0
I0
I1
I0
I0
I0
tp1597
a(I0
I0
I0
I1
I0
I1
I1
tp1598
a(I0
I0
I1
I1
I1
I0
I1
tp1599
a(I1
I0
I1
I0
I0
I0
I0
tp1600
aa(lp1601
(I0
I0
I1
I1
I0
I1
I1
tp1602
a(I1
I1
I0
I0
I1
I0
I0
tp1603
a(I0
I0
I0
I0
I0
I1
I0
tp1604
a(I1
I0
I0
I1
I0
I0
I0
tp1605
a(I1
I0
I0
I1
I0
I1
I0
tp1606
a(I0
I0
I1
I1
I1
I0
I1
tp1607
a(I1
I0
I1
I0
I0
I0
I0
tp1608
aa(lp1609
(I0
I0
I1
I1
I0
I1
I1
tp1610
a(I1
I1
I0
I0
I1
I0
I0
tp1611
a(I0
I0
I0
I0
I0
I1
I0
tp1612
a(I1
I1
I1
I0
I0
I0
I0
tp1613
a(I0
I1
I0
I1
I0
I1
I1
tp1614
a(I0
I0
I1
I1
I1
I0
I1
tp1615
a(I1
I0
I1
I0
I0
I0
I0
tp1616
aa(lp1617
(I0
I0
I1
I1
I0
I1
I1
tp1618
a(I1
I1
I0
I0
I1
I0
I0
tp1619
a(I0
I0
I0
I0
I0
I1
I0
tp1620
a(I1
I1
I1
I0
I0
I0
I0
tp1621
a(I0
I0
I0
I1
I0
I1
I0
tp1622
a(I0
I0
I1
I1
I1
I0
I1
tp1623
a(I1
I0
I1
I0
I0
I0
I0
tp1624
aa(lp1625
(I0
I0
I1
I1
I0
I1
I1
tp1626
a(I1
I1
I0
I0
I1
I0
I0
tp1627
a(I0
I0
I0
I0
I0
I1
I0
tp1628
a(I1
I0
I0
I0
I0
I0
I0
tp1629
a(I0
I1
I1
I0
I0
I1
I1
tp1630
a(I0
I0
I1
I1
I1
I0
I1
tp1631
a(I1
I0
I1
I0
I0
I0
I0
tp1632
aa(lp1633
(I0
I0
I1
I1
I0
I1
I0
tp1634
a(I1
I1
I0
I0
I1
I0
I1
tp1635
a(I0
I0
I0
I0
I0
I1
I0
tp1636
a(I1
I1
I0
I0
I1
I0
I1
tp1637
a(I1
I1
I0
I1
I1
I1
I1
tp1638
a(I0
I0
I1
I1
I1
I0
I1
tp1639
a(I1
I0
I1
I0
I0
I0
I0
tp1640
aa(lp1641
(I0
I0
I1
I1
I0
I1
I0
tp1642
a(I1
I1
I0
I0
I1
I0
I1
tp1643
a(I0
I0
I0
I0
I0
I1
I0
tp1644
a(I0
I1
I0
I1
I1
I0
I0
tp1645
a(I0
I1
I0
I1
I0
I1
I0
tp1646
a(I0
I0
I1
I1
I1
I0
I1
tp1647
a(I1
I0
I1
I0
I0
I0
I0
tp1648
aa(lp1649
(I0
I0
I1
I1
I0
I1
I0
tp1650
a(I1
I1
I0
I0
I1
I0
I0
tp1651
a(I0
I0
I0
I0
I0
I1
I0
tp1652
a(I0
I1
I0
I1
I1
I0
I0
tp1653
a(I0
I1
I0
I0
I0
I1
I1
tp1654
a(I0
I0
I1
I1
I1
I0
I1
tp1655
a(I1
I0
I1
I0
I0
I0
I0
tp1656
aa(lp1657
(I0
I0
I1
I1
I0
I1
I0
tp1658
a(I1
I1
I0
I0
I1
I0
I0
tp1659
a(I0
I0
I0
I0
I0
I1
I0
tp1660
a(I0
I1
I0
I1
I1
I0
I0
tp1661
a(I1
I1
I1
I0
I0
I1
I0
tp1662
a(I0
I0
I1
I1
I1
I0
I1
tp1663
a(I1
I0
I1
I0
I0
I0
I0
tp1664
aa(lp1665
(I0
I0
I1
I1
I0
I1
I0
tp1666
a(I1
I1
I0
I0
I1
I0
I0
tp1667
a(I0
I0
I0
I0
I0
I1
I0
tp1668
a(I1
I1
I0
I0
I1
I0
I0
tp1669
a(I1
I1
I0
I1
I0
I0
I0
tp1670
a(I0
I1
I1
I1
I1
I0
I1
tp1671
a(I1
I0
I1
I0
I0
I0
I0
tp1672
aa(lp1673
(I0
I0
I1
I1
I0
I1
I0
tp1674
a(I1
I1
I0
I0
I1
I0
I0
tp1675
a(I0
I0
I0
I0
I0
I1
I0
tp1676
a(I0
I1
I0
I0
I1
I0
I0
tp1677
a(I0
I1
I0
I1
I0
I1
I0
tp1678
a(I0
I0
I1
I1
I1
I0
I1
tp1679
a(I1
I0
I1
I0
I0
I0
I0
tp1680
aa(lp1681
(I0
I0
I1
I1
I0
I1
I0
tp1682
a(I1
I1
I0
I0
I1
I0
I0
tp1683
a(I0
I0
I0
I0
I0
I1
I0
tp1684
a(I1
I1
I0
I1
I0
I0
I0
tp1685
a(I0
I1
I0
I1
I0
I1
I0
tp1686
a(I0
I0
I1
I1
I1
I0
I1
tp1687
a(I1
I0
I1
I0
I0
I0
I0
tp1688
aa(lp1689
(I0
I0
I1
I1
I0
I1
I0
tp1690
a(I1
I1
I0
I0
I1
I0
I0
tp1691
a(I0
I0
I0
I0
I0
I1
I0
tp1692
a(I1
I0
I0
I1
I0
I0
I0
tp1693
a(I1
I1
I0
I1
I0
I1
I0
tp1694
a(I0
I0
I1
I1
I1
I0
I1
tp1695
a(I1
I0
I1
I0
I0
I0
I0
tp1696
aa(lp1697
(I0
I0
I1
I1
I0
I1
I0
tp1698
a(I1
I1
I0
I0
I1
I0
I0
tp1699
a(I0
I0
I0
I0
I0
I1
I0
tp1700
a(I1
I0
I0
I1
I0
I0
I0
tp1701
a(I1
I1
I0
I1
I1
I1
I1
tp1702
a(I0
I0
I1
I1
I1
I0
I1
tp1703
a(I1
I0
I1
I0
I0
I0
I0
tp1704
aa(lp1705
(I0
I0
I1
I1
I0
I1
I0
tp1706
a(I1
I1
I0
I0
I1
I0
I0
tp1707
a(I0
I0
I0
I0
I0
I1
I0
tp1708
a(I1
I1
I0
I0
I0
I0
I0
tp1709
a(I0
I0
I0
I1
I0
I1
I0
tp1710
a(I0
I0
I1
I1
I1
I0
I1
tp1711
a(I1
I0
I1
I0
I0
I0
I0
tp1712
aa(lp1713
(I0
I0
I1
I1
I0
I1
I0
tp1714
a(I1
I1
I0
I0
I1
I0
I0
tp1715
a(I0
I0
I0
I0
I0
I1
I0
tp1716
a(I1
I1
I0
I0
I0
I0
I0
tp1717
a(I0
I0
I0
I1
I0
I1
I1
tp1718
a(I0
I0
I1
I1
I1
I0
I1
tp1719
a(I1
I0
I1
I0
I0
I0
I0
tp1720
aa(lp1721
(I0
I0
I1
I1
I0
I1
I0
tp1722
a(I1
I1
I0
I0
I1
I0
I0
tp1723
a(I0
I0
I0
I0
I0
I1
I0
tp1724
a(I1
I1
I0
I0
I0
I0
I0
tp1725
a(I1
I1
I0
I1
I0
I1
I1
tp1726
a(I0
I0
I1
I1
I1
I0
I1
tp1727
a(I1
I0
I1
I0
I0
I0
I0
tp1728
aa(lp1729
(I0
I0
I1
I1
I0
I1
I0
tp1730
a(I1
I1
I0
I0
I1
I0
I0
tp1731
a(I0
I0
I0
I0
I0
I1
I0
tp1732
a(I0
I1
I0
I1
I0
I0
I0
tp1733
a(I1
I1
I0
I1
I1
I1
I0
tp1734
a(I0
I0
I1
I1
I1
I1
I1
tp1735
a(I1
I0
I1
I0
I0
I0
I0
tp1736
aa(lp1737
(I0
I0
I1
I1
I0
I1
I0
tp1738
a(I1
I1
I0
I0
I1
I0
I0
tp1739
a(I0
I0
I0
I0
I0
I1
I0
tp1740
a(I1
I1
I0
I0
I0
I0
I0
tp1741
a(I0
I0
I0
I1
I0
I1
I1
tp1742
a(I0
I0
I1
I1
I1
I1
I1
tp1743
a(I1
I0
I1
I0
I0
I0
I0
tp1744
aa(lp1745
(I0
I0
I1
I1
I0
I1
I0
tp1746
a(I1
I1
I0
I0
I1
I0
I0
tp1747
a(I0
I0
I0
I0
I0
I1
I0
tp1748
a(I0
I1
I1
I1
I0
I0
I0
tp1749
a(I1
I1
I1
I0
I1
I1
I1
tp1750
a(I0
I0
I1
I1
I1
I1
I1
tp1751
a(I1
I0
I1
I0
I0
I0
I0
tp1752
aa(lp1753
(I0
I0
I1
I1
I0
I1
I0
tp1754
a(I1
I1
I0
I0
I1
I0
I0
tp1755
a(I0
I0
I0
I0
I0
I1
I0
tp1756
a(I1
I0
I0
I1
I1
I1
I0
tp1757
a(I0
I0
I1
I1
I1
I0
I1
tp1758
a(I0
I0
I1
I1
I1
I0
I0
tp1759
a(I1
I0
I1
I0
I0
I0
I0
tp1760
aa(lp1761
(I0
I0
I1
I1
I0
I1
I0
tp1762
a(I1
I1
I0
I0
I1
I0
I0
tp1763
a(I0
I0
I0
I0
I0
I1
I0
tp1764
a(I1
I1
I0
I0
I1
I0
I0
tp1765
a(I1
I0
I0
I1
I0
I0
I0
tp1766
a(I0
I0
I1
I1
I1
I0
I0
tp1767
a(I1
I0
I1
I0
I0
I0
I0
tp1768
aa(lp1769
(I0
I0
I1
I1
I0
I1
I0
tp1770
a(I1
I1
I0
I0
I1
I0
I0
tp1771
a(I0
I0
I0
I0
I0
I1
I0
tp1772
a(I1
I1
I0
I0
I1
I0
I0
tp1773
a(I1
I0
I1
I1
I0
I1
I0
tp1774
a(I0
I0
I1
I1
I1
I0
I0
tp1775
a(I1
I0
I1
I0
I0
I0
I0
tp1776
aa(lp1777
(I0
I0
I1
I1
I0
I1
I0
tp1778
a(I1
I1
I0
I0
I1
I0
I0
tp1779
a(I0
I0
I0
I0
I0
I1
I0
tp1780
a(I1
I1
I0
I0
I1
I0
I0
tp1781
a(I1
I0
I0
I1
I0
I1
I1
tp1782
a(I0
I0
I1
I1
I1
I0
I0
tp1783
a(I1
I0
I1
I0
I0
I0
I0
tp1784
aa(lp1785
(I0
I0
I1
I1
I0
I1
I0
tp1786
a(I1
I1
I0
I0
I1
I0
I0
tp1787
a(I0
I0
I0
I0
I0
I1
I0
tp1788
a(I1
I0
I0
I1
I1
I1
I1
tp1789
a(I0
I0
I0
I1
I0
I1
I0
tp1790
a(I0
I0
I1
I1
I1
I1
I1
tp1791
a(I0
I0
I1
I0
I0
I1
I0
tp1792
aa(lp1793
(I0
I0
I1
I1
I0
I1
I0
tp1794
a(I1
I1
I0
I0
I1
I0
I0
tp1795
a(I0
I0
I0
I0
I0
I1
I0
tp1796
a(I1
I0
I0
I1
I1
I1
I1
tp1797
a(I0
I0
I0
I1
I0
I1
I1
tp1798
a(I0
I0
I1
I1
I1
I1
I1
tp1799
a(I0
I0
I1
I0
I0
I1
I0
tp1800
aa(lp1801
(I0
I0
I1
I1
I0
I1
I0
tp1802
a(I1
I1
I0
I0
I1
I0
I0
tp1803
a(I0
I0
I0
I0
I0
I1
I0
tp1804
a(I1
I0
I0
I1
I1
I1
I0
tp1805
a(I1
I0
I0
I1
I0
I1
I1
tp1806
a(I0
I0
I1
I1
I1
I1
I1
tp1807
a(I0
I0
I1
I0
I0
I1
I0
tp1808
aa(lp1809
(I0
I0
I1
I1
I0
I1
I0
tp1810
a(I1
I1
I0
I0
I1
I0
I0
tp1811
a(I0
I0
I0
I0
I0
I1
I0
tp1812
a(I1
I0
I0
I1
I1
I1
I0
tp1813
a(I1
I0
I1
I1
I0
I1
I1
tp1814
a(I0
I0
I1
I1
I1
I1
I1
tp1815
a(I0
I0
I1
I0
I0
I1
I0
tp1816
aa(lp1817
(I0
I0
I1
I1
I0
I1
I0
tp1818
a(I1
I0
I0
I1
I0
I0
I0
tp1819
a(I0
I0
I0
I0
I0
I1
I0
tp1820
a(I1
I0
I0
I1
I1
I0
I0
tp1821
a(I0
I0
I0
I1
I1
I1
I1
tp1822
a(I0
I0
I1
I1
I1
I0
I1
tp1823
a(I1
I0
I1
I0
I0
I0
I0
tp1824
aa(lp1825
(I0
I0
I1
I1
I0
I1
I0
tp1826
a(I1
I0
I0
I1
I0
I0
I0
tp1827
a(I0
I0
I0
I0
I0
I1
I0
tp1828
a(I1
I0
I0
I1
I1
I0
I0
tp1829
a(I1
I0
I1
I1
I0
I1
I1
tp1830
a(I0
I0
I1
I1
I1
I0
I1
tp1831
a(I1
I0
I1
I0
I0
I0
I0
tp1832
aa(lp1833
(I0
I0
I1
I1
I0
I1
I0
tp1834
a(I1
I0
I0
I1
I0
I0
I0
tp1835
a(I0
I0
I0
I0
I0
I1
I0
tp1836
a(I1
I0
I0
I1
I1
I0
I0
tp1837
a(I0
I0
I0
I1
I0
I1
I1
tp1838
a(I0
I0
I1
I1
I1
I0
I1
tp1839
a(I1
I0
I1
I0
I0
I0
I0
tp1840
aa(lp1841
(I0
I0
I1
I1
I0
I1
I0
tp1842
a(I1
I1
I0
I0
I1
I0
I0
tp1843
a(I0
I0
I0
I0
I0
I1
I0
tp1844
a(I1
I1
I0
I0
I1
I0
I0
tp1845
a(I0
I0
I1
I1
I0
I1
I1
tp1846
a(I0
I0
I1
I1
I1
I1
I1
tp1847
a(I0
I0
I1
I0
I0
I1
I0
tp1848
aa(lp1849
(I0
I0
I1
I1
I0
I1
I0
tp1850
a(I1
I0
I0
I0
I0
I0
I0
tp1851
a(I0
I0
I0
I0
I0
I1
I0
tp1852
a(I1
I1
I0
I0
I1
I0
I1
tp1853
a(I1
I1
I0
I1
I1
I1
I1
tp1854
a(I0
I0
I1
I1
I1
I0
I1
tp1855
a(I1
I0
I1
I0
I0
I0
I0
tp1856
aa(lp1857
(I0
I0
I1
I1
I0
I1
I0
tp1858
a(I1
I0
I0
I0
I0
I0
I0
tp1859
a(I0
I0
I0
I0
I0
I1
I0
tp1860
a(I1
I1
I0
I0
I1
I0
I1
tp1861
a(I1
I0
I0
I1
I0
I1
I1
tp1862
a(I0
I0
I1
I1
I1
I0
I1
tp1863
a(I1
I0
I1
I0
I0
I0
I0
tp1864
aa(lp1865
(I0
I0
I1
I1
I0
I1
I0
tp1866
a(I1
I0
I0
I0
I0
I0
I0
tp1867
a(I0
I0
I0
I0
I0
I1
I0
tp1868
a(I1
I1
I0
I0
I1
I0
I0
tp1869
a(I0
I1
I0
I1
I0
I1
I0
tp1870
a(I0
I0
I1
I1
I1
I0
I1
tp1871
a(I1
I0
I1
I0
I0
I0
I0
tp1872
aa(lp1873
(I0
I0
I1
I1
I0
I1
I0
tp1874
a(I1
I0
I0
I0
I0
I0
I0
tp1875
a(I0
I0
I0
I0
I0
I1
I0
tp1876
a(I1
I1
I0
I0
I1
I0
I0
tp1877
a(I1
I1
I0
I1
I0
I0
I1
tp1878
a(I0
I0
I1
I1
I1
I0
I1
tp1879
a(I1
I0
I1
I0
I0
I0
I0
tp1880
aa(lp1881
(I0
I0
I1
I1
I0
I1
I0
tp1882
a(I1
I0
I0
I0
I0
I0
I0
tp1883
a(I0
I0
I0
I0
I0
I1
I0
tp1884
a(I0
I1
I0
I1
I1
I0
I0
tp1885
a(I0
I0
I1
I1
I0
I0
I1
tp1886
a(I0
I0
I1
I1
I1
I0
I1
tp1887
a(I1
I0
I1
I0
I0
I0
I0
tp1888
aa(lp1889
(I0
I0
I1
I1
I0
I1
I0
tp1890
a(I1
I0
I0
I0
I0
I0
I0
tp1891
a(I0
I0
I0
I0
I0
I1
I0
tp1892
a(I0
I1
I0
I1
I1
I0
I0
tp1893
a(I0
I1
I1
I0
I0
I1
I0
tp1894
a(I0
I0
I1
I1
I1
I0
I1
tp1895
a(I1
I0
I1
I0
I0
I0
I0
tp1896
aa(lp1897
(I0
I0
I1
I1
I0
I1
I0
tp1898
a(I1
I0
I0
I0
I0
I0
I0
tp1899
a(I0
I0
I0
I0
I0
I1
I0
tp1900
a(I0
I1
I0
I1
I1
I0
I0
tp1901
a(I1
I1
I1
I0
I0
I1
I0
tp1902
a(I0
I0
I1
I1
I1
I0
I1
tp1903
a(I1
I0
I1
I0
I0
I0
I0
tp1904
aa(lp1905
(I0
I0
I1
I1
I0
I1
I0
tp1906
a(I1
I0
I0
I0
I0
I0
I0
tp1907
a(I0
I0
I0
I0
I0
I1
I0
tp1908
a(I0
I1
I0
I1
I1
I0
I0
tp1909
a(I1
I0
I0
I1
I0
I1
I1
tp1910
a(I0
I0
I1
I1
I1
I0
I1
tp1911
a(I1
I0
I1
I0
I0
I0
I0
tp1912
aa(lp1913
(I0
I0
I1
I1
I0
I1
I0
tp1914
a(I1
I0
I0
I0
I0
I0
I0
tp1915
a(I0
I0
I0
I0
I0
I1
I0
tp1916
a(I0
I1
I0
I1
I1
I0
I0
tp1917
a(I0
I0
I0
I1
I0
I1
I1
tp1918
a(I0
I0
I1
I1
I1
I0
I1
tp1919
a(I1
I0
I1
I0
I0
I0
I0
tp1920
aa(lp1921
(I0
I0
I1
I1
I0
I1
I0
tp1922
a(I1
I0
I0
I0
I0
I0
I0
tp1923
a(I0
I0
I0
I0
I0
I1
I0
tp1924
a(I1
I1
I0
I0
I1
I0
I0
tp1925
a(I1
I0
I0
I1
I1
I1
I1
tp1926
a(I0
I0
I1
I1
I1
I1
I1
tp1927
a(I1
I0
I1
I0
I0
I0
I0
tp1928
aa(lp1929
(I0
I0
I1
I1
I0
I1
I0
tp1930
a(I1
I0
I0
I0
I0
I0
I0
tp1931
a(I0
I0
I0
I0
I0
I1
I0
tp1932
a(I1
I1
I0
I0
I1
I0
I0
tp1933
a(I1
I0
I0
I1
I0
I1
I1
tp1934
a(I0
I0
I1
I1
I1
I1
I1
tp1935
a(I1
I0
I1
I0
I0
I0
I0
tp1936
aa(lp1937
(I0
I0
I1
I1
I0
I1
I0
tp1938
a(I1
I0
I0
I0
I0
I0
I0
tp1939
a(I0
I0
I0
I0
I0
I1
I0
tp1940
a(I0
I1
I0
I0
I1
I0
I0
tp1941
a(I1
I1
I1
I0
I0
I1
I0
tp1942
a(I0
I0
I1
I1
I1
I0
I1
tp1943
a(I1
I0
I1
I0
I0
I0
I0
tp1944
aa(lp1945
(I0
I0
I1
I1
I0
I1
I0
tp1946
a(I1
I0
I0
I0
I0
I0
I0
tp1947
a(I0
I0
I0
I0
I0
I1
I0
tp1948
a(I1
I0
I0
I1
I0
I0
I0
tp1949
a(I1
I0
I0
I1
I1
I1
I1
tp1950
a(I0
I0
I1
I1
I1
I0
I1
tp1951
a(I1
I0
I1
I0
I0
I0
I0
tp1952
aa(lp1953
(I0
I0
I1
I1
I0
I1
I0
tp1954
a(I1
I0
I0
I0
I0
I0
I0
tp1955
a(I0
I0
I0
I0
I0
I1
I0
tp1956
a(I1
I1
I1
I0
I0
I0
I0
tp1957
a(I0
I0
I0
I1
I0
I1
I1
tp1958
a(I0
I0
I1
I1
I1
I0
I1
tp1959
a(I1
I0
I1
I0
I0
I0
I0
tp1960
aa(lp1961
(I0
I0
I1
I1
I0
I1
I0
tp1962
a(I1
I0
I0
I0
I0
I0
I0
tp1963
a(I0
I0
I0
I0
I0
I1
I0
tp1964
a(I1
I0
I0
I0
I0
I0
I0
tp1965
a(I1
I1
I1
I0
I0
I1
I0
tp1966
a(I0
I0
I1
I1
I1
I0
I1
tp1967
a(I1
I0
I1
I0
I0
I0
I0
tp1968
aa(lp1969
(I0
I0
I1
I1
I0
I1
I0
tp1970
a(I1
I0
I0
I0
I0
I0
I0
tp1971
a(I0
I0
I0
I0
I0
I1
I0
tp1972
a(I1
I0
I0
I0
I0
I0
I0
tp1973
a(I0
I0
I0
I0
I0
I1
I0
tp1974
a(I0
I0
I1
I1
I1
I0
I1
tp1975
a(I1
I0
I1
I0
I0
I0
I0
tp1976
aa(lp1977
(I0
I0
I1
I1
I0
I1
I0
tp1978
a(I1
I0
I0
I0
I0
I0
I0
tp1979
a(I0
I0
I0
I0
I0
I1
I0
tp1980
a(I1
I0
I0
I0
I0
I0
I0
tp1981
a(I0
I0
I0
I1
I0
I1
I1
tp1982
a(I0
I0
I1
I1
I1
I0
I1
tp1983
a(I1
I0
I1
I0
I0
I0
I0
tp1984
aa(lp1985
(I0
I0
I1
I1
I0
I1
I0
tp1986
a(I1
I1
I0
I0
I1
I0
I0
tp1987
a(I0
I0
I0
I0
I0
I1
I0
tp1988
a(I0
I1
I0
I1
I1
I0
I0
tp1989
a(I1
I1
I1
I0
I0
I1
I0
tp1990
a(I0
I0
I1
I1
I1
I0
I0
tp1991
a(I0
I0
I1
I0
I0
I1
I0
tp1992
aa(lp1993
(I0
I0
I1
I1
I0
I1
I0
tp1994
a(I1
I1
I0
I0
I1
I0
I0
tp1995
a(I0
I0
I0
I0
I0
I1
I0
tp1996
a(I0
I1
I0
I0
I1
I0
I0
tp1997
a(I0
I1
I0
I1
I0
I1
I0
tp1998
a(I0
I0
I1
I1
I1
I0
I0
tp1999
a(I0
I0
I1
I0
I0
I1
I0
tp2000
aa(lp2001
(I0
I0
I1
I1
I0
I1
I0
tp2002
a(I1
I0
I0
I0
I0
I0
I0
tp2003
a(I0
I0
I0
I0
I0
I1
I0
tp2004
a(I0
I1
I0
I1
I1
I0
I0
tp2005
a(I1
I1
I1
I1
I0
I1
I0
tp2006
a(I0
I0
I1
I1
I1
I1
I1
tp2007
a(I0
I0
I1
I0
I0
I1
I0
tp2008
aa(lp2009
(I0
I0
I1
I1
I0
I1
I0
tp2010
a(I1
I0
I0
I0
I0
I0
I0
tp2011
a(I0
I0
I0
I0
I0
I1
I0
tp2012
a(I1
I1
I0
I0
I1
I0
I0
tp2013
a(I1
I1
I1
I0
I1
I1
I1
tp2014
a(I0
I0
I1
I1
I1
I1
I1
tp2015
a(I0
I0
I1
I0
I0
I1
I0
tp2016
aa(lp2017
(I0
I0
I1
I1
I0
I1
I0
tp2018
a(I1
I0
I0
I0
I0
I0
I0
tp2019
a(I0
I0
I0
I0
I0
I1
I0
tp2020
a(I0
I1
I0
I1
I1
I0
I0
tp2021
a(I0
I0
I0
I1
I0
I1
I0
tp2022
a(I0
I0
I1
I1
I1
I1
I0
tp2023
a(I0
I0
I1
I0
I0
I1
I0
tp2024
aa(lp2025
(I0
I0
I1
I1
I0
I1
I0
tp2026
a(I1
I0
I0
I0
I0
I0
I0
tp2027
a(I0
I0
I0
I0
I0
I1
I0
tp2028
a(I0
I1
I0
I1
I1
I0
I0
tp2029
a(I1
I0
I0
I1
I0
I1
I0
tp2030
a(I0
I0
I1
I1
I1
I1
I0
tp2031
a(I0
I0
I1
I0
I0
I1
I0
tp2032
aa(lp2033
(I0
I0
I1
I1
I0
I1
I0
tp2034
a(I1
I0
I0
I0
I0
I0
I0
tp2035
a(I0
I0
I0
I0
I0
I1
I0
tp2036
a(I0
I1
I0
I1
I1
I0
I0
tp2037
a(I1
I1
I1
I1
I0
I1
I1
tp2038
a(I0
I0
I1
I1
I1
I1
I0
tp2039
a(I0
I0
I1
I0
I0
I1
I0
tp2040
aa(lp2041
(I0
I0
I1
I1
I0
I1
I0
tp2042
a(I1
I0
I0
I0
I0
I0
I0
tp2043
a(I0
I0
I0
I0
I0
I1
I0
tp2044
a(I0
I1
I0
I1
I1
I0
I0
tp2045
a(I0
I1
I0
I1
I0
I1
I1
tp2046
a(I0
I0
I1
I1
I1
I1
I0
tp2047
a(I0
I0
I1
I0
I0
I1
I0
tp2048
aa(lp2049
(I0
I0
I1
I1
I0
I1
I0
tp2050
a(I1
I0
I0
I0
I0
I0
I0
tp2051
a(I0
I0
I0
I0
I0
I1
I0
tp2052
a(I0
I1
I0
I1
I1
I0
I0
tp2053
a(I1
I1
I0
I1
I0
I1
I1
tp2054
a(I0
I0
I1
I1
I1
I1
I0
tp2055
a(I0
I0
I1
I0
I0
I1
I0
tp2056
aa(lp2057
(I0
I0
I1
I1
I0
I1
I0
tp2058
a(I1
I1
I0
I0
I0
I0
I0
tp2059
a(I0
I0
I0
I0
I0
I1
I0
tp2060
a(I0
I1
I0
I1
I0
I0
I0
tp2061
a(I1
I1
I1
I1
I0
I1
I1
tp2062
a(I0
I0
I1
I1
I1
I1
I1
tp2063
a(I0
I0
I1
I0
I0
I1
I0
tp2064
aa(lp2065
(I0
I0
I1
I1
I0
I1
I0
tp2066
a(I1
I0
I0
I1
I0
I0
I0
tp2067
a(I0
I0
I0
I0
I0
I1
I0
tp2068
a(I1
I0
I0
I1
I1
I1
I0
tp2069
a(I1
I0
I1
I1
I1
I1
I1
tp2070
a(I0
I0
I1
I1
I1
I0
I0
tp2071
a(I0
I0
I1
I0
I0
I1
I0
tp2072
aa(lp2073
(I0
I0
I1
I1
I0
I1
I0
tp2074
a(I1
I0
I0
I1
I0
I0
I0
tp2075
a(I0
I0
I0
I0
I0
I1
I0
tp2076
a(I1
I0
I0
I1
I1
I1
I0
tp2077
a(I0
I0
I0
I1
I0
I1
I1
tp2078
a(I0
I0
I1
I1
I1
I0
I0
tp2079
a(I0
I0
I1
I0
I0
I1
I0
tp2080
aa(lp2081
(I0
I0
I1
I1
I0
I1
I0
tp2082
a(I1
I0
I0
I1
I0
I0
I0
tp2083
a(I0
I0
I0
I0
I0
I1
I0
tp2084
a(I1
I1
I0
I0
I1
I1
I1
tp2085
a(I0
I0
I1
I1
I0
I1
I1
tp2086
a(I0
I0
I1
I1
I1
I0
I0
tp2087
a(I0
I0
I1
I0
I0
I1
I0
tp2088
aa(lp2089
(I0
I0
I1
I1
I0
I1
I0
tp2090
a(I1
I0
I0
I1
I0
I0
I0
tp2091
a(I0
I0
I0
I0
I0
I1
I0
tp2092
a(I1
I1
I0
I0
I1
I1
I1
tp2093
a(I0
I0
I0
I1
I0
I1
I0
tp2094
a(I0
I0
I1
I1
I1
I0
I0
tp2095
a(I0
I0
I1
I0
I0
I1
I0
tp2096
aa(lp2097
(I0
I0
I1
I1
I0
I1
I0
tp2098
a(I1
I1
I0
I1
I0
I0
I0
tp2099
a(I0
I0
I0
I0
I0
I1
I0
tp2100
a(I1
I1
I0
I0
I1
I0
I0
tp2101
a(I1
I0
I0
I1
I0
I1
I0
tp2102
a(I0
I0
I1
I1
I1
I0
I0
tp2103
a(I0
I0
I1
I0
I0
I1
I0
tp2104
aa(lp2105
(I0
I0
I1
I1
I0
I1
I0
tp2106
a(I1
I0
I0
I1
I0
I0
I0
tp2107
a(I0
I0
I0
I0
I0
I1
I0
tp2108
a(I1
I0
I0
I0
I1
I0
I0
tp2109
a(I1
I0
I1
I1
I1
I1
I1
tp2110
a(I0
I0
I1
I1
I1
I0
I0
tp2111
a(I0
I0
I1
I0
I0
I1
I0
tp2112
aa(lp2113
(I0
I0
I1
I1
I0
I1
I0
tp2114
a(I1
I0
I0
I1
I0
I0
I0
tp2115
a(I0
I0
I0
I0
I0
I1
I0
tp2116
a(I1
I0
I0
I0
I1
I0
I0
tp2117
a(I0
I0
I0
I1
I0
I1
I0
tp2118
a(I0
I0
I1
I1
I1
I0
I0
tp2119
a(I0
I0
I1
I0
I0
I1
I0
tp2120
aa(lp2121
(I0
I0
I1
I1
I0
I1
I0
tp2122
a(I1
I1
I0
I0
I0
I0
I0
tp2123
a(I0
I0
I0
I0
I0
I1
I0
tp2124
a(I0
I1
I0
I1
I1
I0
I0
tp2125
a(I0
I0
I0
I1
I0
I1
I0
tp2126
a(I0
I0
I1
I1
I1
I0
I0
tp2127
a(I0
I0
I1
I0
I0
I1
I0
tp2128
aa(lp2129
(I0
I0
I1
I1
I0
I1
I0
tp2130
a(I1
I0
I0
I0
I0
I0
I0
tp2131
a(I0
I0
I0
I0
I0
I1
I0
tp2132
a(I0
I1
I0
I1
I1
I0
I0
tp2133
a(I0
I0
I1
I1
I0
I1
I0
tp2134
a(I0
I0
I1
I1
I1
I0
I0
tp2135
a(I0
I0
I1
I0
I0
I1
I0
tp2136
aa(lp2137
(I0
I0
I1
I1
I0
I1
I0
tp2138
a(I1
I0
I0
I0
I0
I0
I0
tp2139
a(I0
I0
I0
I0
I0
I1
I0
tp2140
a(I0
I1
I0
I1
I1
I0
I0
tp2141
a(I0
I0
I0
I1
I0
I1
I0
tp2142
a(I0
I0
I1
I1
I1
I0
I0
tp2143
a(I0
I0
I1
I0
I0
I1
I0
tp2144
aa(lp2145
(I0
I0
I1
I1
I0
I1
I0
tp2146
a(I1
I0
I0
I0
I0
I0
I0
tp2147
a(I0
I0
I0
I0
I0
I1
I0
tp2148
a(I0
I1
I0
I1
I1
I0
I0
tp2149
a(I0
I0
I0
I1
I0
I1
I1
tp2150
a(I0
I0
I1
I1
I1
I0
I0
tp2151
a(I0
I0
I1
I0
I0
I1
I0
tp2152
aa(lp2153
(I0
I0
I1
I1
I0
I1
I0
tp2154
a(I1
I0
I0
I0
I0
I0
I0
tp2155
a(I0
I0
I0
I0
I0
I1
I0
tp2156
a(I0
I1
I0
I0
I1
I0
I0
tp2157
a(I0
I1
I0
I1
I0
I1
I0
tp2158
a(I0
I0
I1
I1
I1
I0
I0
tp2159
a(I0
I0
I1
I0
I0
I1
I0
tp2160
aa(lp2161
(I0
I0
I1
I1
I0
I1
I0
tp2162
a(I1
I0
I0
I0
I0
I0
I0
tp2163
a(I0
I0
I0
I0
I0
I1
I0
tp2164
a(I1
I0
I0
I1
I0
I0
I0
tp2165
a(I1
I1
I0
I1
I0
I1
I0
tp2166
a(I0
I0
I1
I1
I1
I0
I0
tp2167
a(I0
I0
I1
I0
I0
I1
I0
tp2168
aa(lp2169
(I0
I0
I1
I1
I0
I1
I0
tp2170
a(I1
I0
I0
I0
I0
I0
I0
tp2171
a(I0
I0
I0
I0
I0
I1
I0
tp2172
a(I1
I0
I0
I1
I0
I0
I0
tp2173
a(I0
I0
I1
I1
I1
I1
I1
tp2174
a(I0
I0
I1
I1
I1
I0
I0
tp2175
a(I0
I0
I1
I0
I0
I1
I0
tp2176
aa(lp2177
(I0
I0
I1
I1
I0
I1
I0
tp2178
a(I1
I0
I0
I0
I0
I0
I0
tp2179
a(I0
I0
I0
I0
I0
I1
I0
tp2180
a(I1
I0
I0
I0
I0
I0
I0
tp2181
a(I0
I1
I0
I1
I0
I1
I1
tp2182
a(I0
I0
I1
I1
I1
I0
I0
tp2183
a(I0
I0
I1
I0
I0
I1
I0
tp2184
aa(lp2185
(I0
I0
I1
I1
I0
I1
I0
tp2186
a(I1
I0
I0
I0
I0
I0
I0
tp2187
a(I0
I0
I0
I0
I0
I1
I0
tp2188
a(I0
I0
I0
I1
I0
I0
I0
tp2189
a(I1
I0
I1
I1
I0
I1
I0
tp2190
a(I0
I0
I1
I1
I1
I0
I0
tp2191
a(I0
I0
I1
I0
I0
I1
I0
tp2192
aa(lp2193
(I0
I0
I1
I1
I0
I1
I0
tp2194
a(I1
I0
I0
I0
I0
I0
I0
tp2195
a(I0
I0
I0
I0
I0
I1
I0
tp2196
a(I0
I0
I0
I1
I0
I0
I0
tp2197
a(I1
I0
I1
I1
I0
I0
I0
tp2198
a(I0
I0
I1
I1
I1
I0
I0
tp2199
a(I0
I0
I1
I0
I0
I1
I0
tp2200
aa(lp2201
(I0
I0
I1
I1
I0
I1
I0
tp2202
a(I1
I0
I0
I0
I0
I0
I0
tp2203
a(I0
I0
I0
I0
I0
I1
I0
tp2204
a(I0
I0
I0
I1
I0
I0
I0
tp2205
a(I1
I1
I1
I1
I1
I1
I1
tp2206
a(I0
I0
I1
I1
I1
I0
I0
tp2207
a(I0
I0
I1
I0
I0
I1
I0
tp2208
aa(lp2209
(I0
I0
I1
I1
I0
I1
I0
tp2210
a(I1
I0
I0
I0
I0
I0
I0
tp2211
a(I0
I0
I0
I0
I0
I1
I0
tp2212
a(I0
I0
I0
I1
I0
I0
I0
tp2213
a(I1
I0
I0
I1
I0
I1
I0
tp2214
a(I0
I0
I1
I1
I1
I0
I0
tp2215
a(I0
I0
I1
I0
I0
I1
I0
tp2216
aa(lp2217
(I0
I0
I1
I1
I0
I1
I0
tp2218
a(I1
I0
I0
I0
I0
I0
I0
tp2219
a(I0
I0
I0
I0
I0
I1
I0
tp2220
a(I0
I0
I0
I1
I0
I0
I0
tp2221
a(I0
I0
I1
I1
I1
I1
I1
tp2222
a(I0
I0
I1
I1
I1
I0
I0
tp2223
a(I0
I0
I1
I0
I0
I1
I0
tp2224
aa(lp2225
(I0
I0
I1
I1
I0
I1
I0
tp2226
a(I1
I0
I0
I0
I0
I0
I0
tp2227
a(I0
I0
I0
I0
I0
I1
I0
tp2228
a(I0
I0
I1
I1
I0
I0
I0
tp2229
a(I0
I0
I0
I1
I0
I1
I1
tp2230
a(I0
I0
I1
I1
I1
I0
I0
tp2231
a(I0
I0
I1
I0
I0
I1
I0
tp2232
aa(lp2233
(I0
I0
I1
I1
I0
I1
I0
tp2234
a(I1
I0
I0
I0
I0
I0
I0
tp2235
a(I0
I0
I0
I0
I0
I1
I0
tp2236
a(I0
I0
I1
I1
I0
I0
I0
tp2237
a(I0
I0
I1
I1
I0
I1
I1
tp2238
a(I0
I0
I1
I1
I1
I0
I0
tp2239
a(I0
I0
I1
I0
I0
I1
I0
tp2240
aa(lp2241
(I0
I0
I1
I1
I0
I1
I0
tp2242
a(I1
I0
I0
I0
I0
I0
I0
tp2243
a(I0
I0
I0
I0
I0
I1
I0
tp2244
a(I1
I1
I0
I0
I1
I0
I0
tp2245
a(I0
I0
I1
I1
I0
I0
I0
tp2246
a(I0
I0
I1
I1
I0
I1
I0
tp2247
a(I0
I0
I1
I0
I0
I1
I0
tp2248
aa(lp2249
(I0
I0
I1
I1
I0
I1
I0
tp2250
a(I1
I0
I0
I0
I0
I0
I0
tp2251
a(I0
I0
I0
I0
I0
I1
I0
tp2252
a(I1
I1
I0
I0
I1
I0
I0
tp2253
a(I1
I1
I1
I1
I0
I1
I0
tp2254
a(I0
I0
I1
I1
I0
I1
I0
tp2255
a(I0
I0
I1
I0
I0
I1
I0
tp2256
aa(lp2257
(I0
I0
I1
I1
I0
I1
I0
tp2258
a(I1
I1
I0
I1
I0
I0
I0
tp2259
a(I0
I0
I0
I0
I0
I1
I0
tp2260
a(I1
I1
I0
I0
I1
I0
I0
tp2261
a(I1
I0
I0
I1
I0
I1
I0
tp2262
a(I0
I0
I1
I0
I0
I1
I0
tp2263
a(I0
I0
I1
I0
I0
I1
I0
tp2264
aa(lp2265
(I0
I0
I1
I1
I0
I1
I0
tp2266
a(I1
I0
I0
I0
I0
I0
I0
tp2267
a(I0
I0
I0
I0
I0
I1
I0
tp2268
a(I1
I1
I0
I0
I1
I0
I1
tp2269
a(I1
I1
I0
I1
I1
I1
I1
tp2270
a(I0
I0
I1
I0
I0
I1
I0
tp2271
a(I0
I0
I1
I0
I0
I1
I0
tp2272
aa(lp2273
(I0
I0
I1
I1
I0
I1
I0
tp2274
a(I1
I0
I0
I0
I0
I0
I0
tp2275
a(I0
I0
I0
I0
I0
I1
I0
tp2276
a(I1
I1
I0
I0
I1
I0
I1
tp2277
a(I1
I1
I1
I1
I1
I1
I0
tp2278
a(I0
I0
I1
I0
I0
I1
I0
tp2279
a(I0
I0
I1
I0
I0
I1
I0
tp2280
aa(lp2281
(I0
I0
I1
I1
I0
I1
I0
tp2282
a(I1
I0
I0
I0
I0
I0
I0
tp2283
a(I0
I0
I0
I0
I0
I1
I0
tp2284
a(I1
I1
I0
I0
I1
I0
I1
tp2285
a(I1
I0
I0
I1
I0
I1
I0
tp2286
a(I0
I0
I1
I0
I0
I1
I0
tp2287
a(I0
I0
I1
I0
I0
I1
I0
tp2288
aa(lp2289
(I0
I0
I1
I1
I0
I1
I0
tp2290
a(I1
I0
I0
I0
I0
I0
I0
tp2291
a(I0
I0
I0
I0
I0
I1
I0
tp2292
a(I1
I1
I0
I0
I1
I0
I0
tp2293
a(I0
I1
I0
I1
I0
I1
I0
tp2294
a(I0
I0
I1
I0
I0
I1
I0
tp2295
a(I0
I0
I1
I0
I0
I1
I0
tp2296
aa(lp2297
(I0
I0
I1
I1
I0
I1
I0
tp2298
a(I1
I0
I0
I0
I0
I0
I0
tp2299
a(I0
I0
I0
I0
I0
I1
I0
tp2300
a(I1
I1
I0
I0
I1
I0
I0
tp2301
a(I1
I1
I0
I1
I0
I0
I1
tp2302
a(I0
I0
I1
I0
I0
I1
I0
tp2303
a(I0
I0
I1
I0
I0
I1
I0
tp2304
aa(lp2305
(I0
I0
I1
I1
I0
I1
I0
tp2306
a(I1
I0
I0
I0
I0
I0
I0
tp2307
a(I0
I0
I0
I0
I0
I1
I0
tp2308
a(I1
I1
I0
I0
I1
I0
I0
tp2309
a(I1
I0
I0
I1
I0
I0
I1
tp2310
a(I0
I0
I1
I0
I0
I1
I0
tp2311
a(I0
I0
I1
I0
I0
I1
I0
tp2312
aa(lp2313
(I0
I0
I1
I1
I0
I1
I0
tp2314
a(I1
I0
I0
I0
I0
I0
I0
tp2315
a(I0
I0
I0
I0
I0
I1
I0
tp2316
a(I0
I1
I0
I1
I1
I0
I0
tp2317
a(I1
I0
I0
I1
I0
I1
I1
tp2318
a(I0
I0
I1
I0
I0
I1
I0
tp2319
a(I0
I0
I1
I0
I0
I1
I0
tp2320
aa(lp2321
(I0
I0
I1
I1
I0
I1
I0
tp2322
a(I1
I0
I0
I0
I0
I0
I0
tp2323
a(I0
I0
I0
I0
I0
I1
I0
tp2324
a(I0
I1
I0
I1
I1
I0
I0
tp2325
a(I1
I1
I1
I0
I0
I1
I0
tp2326
a(I0
I0
I1
I0
I0
I1
I0
tp2327
a(I0
I0
I1
I0
I0
I1
I0
tp2328
aa(lp2329
(I0
I0
I1
I1
I0
I1
I0
tp2330
a(I1
I0
I0
I0
I0
I0
I0
tp2331
a(I0
I0
I0
I0
I0
I1
I0
tp2332
a(I0
I1
I0
I1
I1
I0
I0
tp2333
a(I1
I1
I1
I1
I1
I1
I0
tp2334
a(I0
I0
I1
I0
I0
I1
I0
tp2335
a(I0
I0
I1
I0
I0
I1
I0
tp2336
aa(lp2337
(I0
I0
I1
I1
I0
I1
I0
tp2338
a(I1
I1
I0
I0
I0
I0
I0
tp2339
a(I0
I0
I0
I0
I0
I1
I0
tp2340
a(I1
I1
I0
I1
I0
I0
I0
tp2341
a(I1
I0
I0
I1
I0
I1
I0
tp2342
a(I0
I0
I1
I0
I0
I1
I0
tp2343
a(I0
I0
I1
I0
I0
I1
I0
tp2344
aa(lp2345
(I0
I0
I1
I1
I0
I1
I0
tp2346
a(I1
I0
I0
I0
I0
I0
I0
tp2347
a(I0
I0
I0
I0
I0
I1
I0
tp2348
a(I1
I0
I0
I1
I0
I0
I0
tp2349
a(I0
I0
I1
I1
I0
I0
I0
tp2350
a(I0
I0
I1
I0
I0
I1
I0
tp2351
a(I0
I0
I1
I0
I0
I1
I0
tp2352
aa(lp2353
(I0
I0
I1
I1
I0
I1
I0
tp2354
a(I1
I0
I0
I0
I0
I0
I0
tp2355
a(I0
I0
I0
I0
I0
I1
I0
tp2356
a(I1
I0
I0
I1
I0
I0
I0
tp2357
a(I0
I0
I0
I1
I0
I1
I0
tp2358
a(I0
I0
I1
I0
I0
I1
I0
tp2359
a(I0
I0
I1
I0
I0
I1
I0
tp2360
aa(lp2361
(I0
I0
I1
I1
I0
I1
I0
tp2362
a(I1
I0
I0
I0
I0
I0
I0
tp2363
a(I0
I0
I0
I0
I0
I1
I0
tp2364
a(I1
I1
I0
I0
I0
I0
I0
tp2365
a(I1
I1
I0
I1
I0
I0
I0
tp2366
a(I0
I0
I1
I0
I0
I1
I0
tp2367
a(I0
I0
I1
I0
I0
I1
I0
tp2368
aa(lp2369
(I0
I0
I1
I1
I0
I1
I0
tp2370
a(I1
I0
I0
I0
I0
I0
I0
tp2371
a(I0
I0
I0
I0
I0
I1
I0
tp2372
a(I1
I1
I0
I0
I0
I0
I0
tp2373
a(I0
I0
I1
I1
I0
I0
I0
tp2374
a(I0
I0
I1
I0
I0
I1
I0
tp2375
a(I0
I0
I1
I0
I0
I1
I0
tp2376
aa(lp2377
(I0
I0
I1
I1
I0
I1
I0
tp2378
a(I1
I0
I0
I0
I0
I0
I0
tp2379
a(I0
I0
I0
I0
I0
I1
I0
tp2380
a(I1
I1
I0
I0
I0
I0
I0
tp2381
a(I0
I0
I0
I0
I0
I0
I0
tp2382
a(I0
I0
I1
I0
I0
I1
I0
tp2383
a(I0
I0
I1
I0
I0
I1
I0
tp2384
aa(lp2385
(I0
I0
I1
I1
I0
I1
I0
tp2386
a(I1
I0
I0
I0
I0
I0
I0
tp2387
a(I0
I0
I0
I0
I0
I1
I0
tp2388
a(I1
I1
I0
I0
I0
I0
I0
tp2389
a(I0
I1
I0
I0
I0
I1
I0
tp2390
a(I0
I0
I1
I0
I0
I1
I0
tp2391
a(I0
I0
I1
I0
I0
I1
I0
tp2392
aa(lp2393
(I0
I0
I1
I1
I0
I1
I0
tp2394
a(I1
I0
I0
I0
I0
I0
I0
tp2395
a(I0
I0
I0
I0
I0
I1
I0
tp2396
a(I1
I1
I0
I0
I0
I0
I0
tp2397
a(I0
I0
I0
I1
I0
I1
I0
tp2398
a(I0
I0
I1
I0
I0
I1
I0
tp2399
a(I0
I0
I1
I0
I0
I1
I0
tp2400
aa(lp2401
(I0
I0
I1
I1
I0
I1
I0
tp2402
a(I1
I0
I0
I0
I0
I0
I0
tp2403
a(I0
I0
I0
I0
I0
I1
I0
tp2404
a(I0
I0
I0
I1
I0
I0
I0
tp2405
a(I0
I1
I0
I1
I1
I1
I0
tp2406
a(I0
I0
I1
I0
I0
I1
I0
tp2407
a(I0
I0
I1
I0
I0
I1
I0
tp2408
aa(lp2409
(I0
I0
I1
I1
I0
I1
I0
tp2410
a(I1
I0
I0
I0
I0
I0
I0
tp2411
a(I0
I0
I0
I0
I0
I1
I0
tp2412
a(I0
I1
I0
I1
I0
I0
I0
tp2413
a(I1
I1
I0
I1
I1
I1
I0
tp2414
a(I0
I0
I1
I1
I0
I0
I0
tp2415
a(I0
I0
I1
I0
I0
I1
I0
tp2416
aa(lp2417
(I0
I0
I1
I1
I0
I1
I0
tp2418
a(I1
I0
I0
I0
I0
I0
I0
tp2419
a(I0
I0
I0
I0
I0
I1
I0
tp2420
a(I0
I1
I1
I1
I0
I0
I0
tp2421
a(I1
I0
I1
I1
I0
I1
I0
tp2422
a(I0
I0
I1
I1
I0
I0
I0
tp2423
a(I0
I0
I1
I0
I0
I1
I0
tp2424
aa(lp2425
(I0
I0
I1
I0
I0
I1
I0
tp2426
a(I1
I0
I0
I0
I0
I0
I0
tp2427
a(I0
I0
I0
I0
I0
I1
I0
tp2428
a(I1
I1
I0
I0
I1
I0
I0
tp2429
a(I1
I1
I1
I1
I1
I1
I1
tp2430
a(I0
I0
I1
I0
I0
I1
I0
tp2431
a(I0
I0
I1
I0
I0
I1
I0
tp2432
aa(lp2433
(I0
I0
I1
I0
I0
I1
I0
tp2434
a(I1
I0
I0
I0
I0
I0
I0
tp2435
a(I0
I0
I0
I0
I0
I1
I0
tp2436
a(I1
I1
I0
I0
I1
I0
I0
tp2437
a(I1
I1
I0
I1
I1
I1
I1
tp2438
a(I0
I0
I1
I0
I0
I1
I0
tp2439
a(I0
I0
I1
I0
I0
I1
I0
tp2440
aa(lp2441
(I0
I0
I1
I0
I0
I1
I0
tp2442
a(I1
I0
I0
I0
I0
I0
I0
tp2443
a(I0
I0
I0
I0
I0
I1
I0
tp2444
a(I1
I1
I0
I0
I1
I0
I0
tp2445
a(I1
I1
I0
I1
I1
I1
I0
tp2446
a(I0
I0
I1
I0
I0
I1
I0
tp2447
a(I0
I0
I1
I0
I0
I1
I0
tp2448
aa(lp2449
(I0
I0
I1
I0
I0
I1
I0
tp2450
a(I1
I0
I0
I0
I0
I0
I0
tp2451
a(I0
I0
I0
I0
I0
I1
I0
tp2452
a(I1
I1
I0
I0
I1
I0
I0
tp2453
a(I1
I0
I0
I1
I0
I1
I1
tp2454
a(I0
I0
I1
I0
I0
I1
I0
tp2455
a(I0
I0
I1
I0
I0
I1
I0
tp2456
aa(lp2457
(I0
I0
I1
I0
I0
I1
I0
tp2458
a(I1
I0
I0
I0
I0
I0
I0
tp2459
a(I0
I0
I0
I0
I0
I1
I0
tp2460
a(I0
I1
I0
I1
I1
I0
I0
tp2461
a(I1
I1
I0
I1
I1
I1
I1
tp2462
a(I0
I0
I1
I0
I0
I1
I0
tp2463
a(I0
I0
I1
I0
I0
I1
I0
tp2464
aa(lp2465
(I0
I0
I1
I1
I0
I1
I0
tp2466
a(I1
I0
I0
I0
I0
I0
I0
tp2467
a(I0
I0
I0
I0
I0
I1
I0
tp2468
a(I1
I0
I0
I1
I1
I0
I0
tp2469
a(I0
I0
I0
I1
I0
I1
I1
tp2470
a(I0
I0
I0
I0
I0
I0
I0
tp2471
a(I0
I0
I1
I0
I0
I1
I0
tp2472
aa(lp2473
(I0
I0
I1
I0
I0
I1
I0
tp2474
a(I1
I0
I0
I0
I0
I0
I0
tp2475
a(I0
I0
I0
I0
I0
I1
I0
tp2476
a(I1
I0
I0
I1
I0
I0
I0
tp2477
a(I1
I0
I0
I1
I0
I1
I1
tp2478
a(I0
I0
I1
I0
I0
I1
I0
tp2479
a(I0
I0
I1
I0
I0
I1
I0
tp2480
aa(lp2481
(I0
I0
I1
I0
I0
I1
I0
tp2482
a(I1
I0
I0
I0
I0
I0
I0
tp2483
a(I0
I0
I0
I0
I0
I1
I0
tp2484
a(I1
I0
I0
I0
I0
I0
I0
tp2485
a(I1
I1
I1
I1
I0
I1
I0
tp2486
a(I0
I0
I1
I0
I0
I1
I0
tp2487
a(I0
I0
I1
I0
I0
I1
I0
tp2488
aa(lp2489
(I0
I0
I1
I1
I0
I1
I0
tp2490
a(I1
I0
I0
I0
I0
I0
I0
tp2491
a(I0
I0
I0
I0
I0
I1
I0
tp2492
a(I1
I0
I0
I1
I0
I0
I0
tp2493
a(I1
I0
I0
I1
I1
I1
I1
tp2494
a(I0
I0
I0
I0
I0
I0
I0
tp2495
a(I0
I0
I1
I0
I0
I1
I0
tp2496
aa(lp2497
(I0
I0
I1
I1
I0
I1
I0
tp2498
a(I1
I0
I0
I0
I0
I0
I0
tp2499
a(I0
I0
I0
I0
I0
I1
I0
tp2500
a(I1
I0
I0
I1
I0
I0
I0
tp2501
a(I1
I0
I0
I1
I0
I1
I0
tp2502
a(I0
I0
I0
I0
I0
I0
I0
tp2503
a(I0
I0
I1
I0
I0
I1
I0
tp2504
aa(lp2505
(I0
I0
I1
I1
I0
I1
I0
tp2506
a(I1
I0
I0
I0
I0
I0
I0
tp2507
a(I0
I0
I0
I0
I0
I1
I0
tp2508
a(I1
I1
I0
I0
I0
I0
I0
tp2509
a(I0
I0
I0
I1
I0
I1
I0
tp2510
a(I0
I0
I0
I0
I0
I0
I0
tp2511
a(I0
I0
I1
I0
I0
I1
I0
tp2512
aa(lp2513
(I0
I0
I1
I0
I0
I1
I0
tp2514
a(I1
I0
I0
I0
I0
I0
I0
tp2515
a(I0
I0
I0
I0
I0
I1
I0
tp2516
a(I0
I0
I0
I1
I0
I0
I0
tp2517
a(I1
I1
I0
I1
I0
I1
I1
tp2518
a(I0
I0
I1
I0
I0
I1
I0
tp2519
a(I0
I0
I1
I0
I0
I1
I0
tp2520
aa(lp2521
(I0
I0
I1
I0
I0
I1
I0
tp2522
a(I1
I0
I0
I0
I0
I0
I0
tp2523
a(I0
I0
I0
I0
I0
I1
I0
tp2524
a(I0
I0
I0
I1
I0
I0
I0
tp2525
a(I0
I0
I0
I1
I0
I1
I0
tp2526
a(I0
I0
I1
I0
I0
I1
I0
tp2527
a(I0
I0
I1
I0
I0
I1
I0
tp2528
aa(lp2529
(I0
I0
I1
I0
I0
I1
I0
tp2530
a(I1
I0
I0
I0
I0
I0
I0
tp2531
a(I0
I0
I0
I0
I0
I1
I0
tp2532
a(I0
I0
I0
I1
I0
I0
I0
tp2533
a(I1
I0
I0
I1
I0
I1
I1
tp2534
a(I0
I0
I1
I0
I0
I1
I0
tp2535
a(I0
I0
I1
I0
I0
I1
I0
tp2536
aa(lp2537
(I0
I0
I1
I0
I0
I1
I0
tp2538
a(I1
I0
I0
I0
I0
I0
I0
tp2539
a(I0
I0
I0
I0
I0
I1
I0
tp2540
a(I0
I0
I0
I1
I0
I0
I0
tp2541
a(I1
I0
I0
I1
I0
I1
I0
tp2542
a(I0
I0
I1
I0
I0
I1
I0
tp2543
a(I0
I0
I1
I0
I0
I1
I0
tp2544
aa(lp2545
(I0
I0
I1
I0
I0
I1
I0
tp2546
a(I1
I0
I0
I0
I0
I0
I0
tp2547
a(I0
I0
I0
I0
I0
I1
I0
tp2548
a(I0
I0
I0
I1
I0
I0
I0
tp2549
a(I1
I1
I0
I1
I0
I1
I0
tp2550
a(I0
I0
I1
I0
I0
I1
I0
tp2551
a(I0
I0
I1
I0
I0
I1
I0
tp2552
aa(lp2553
(I0
I0
I1
I1
I0
I1
I0
tp2554
a(I1
I0
I0
I0
I0
I0
I0
tp2555
a(I0
I0
I0
I0
I0
I1
I0
tp2556
a(I1
I0
I0
I1
I0
I0
I0
tp2557
a(I0
I1
I1
I0
I0
I1
I1
tp2558
a(I0
I0
I1
I0
I0
I0
I0
tp2559
a(I0
I0
I1
I0
I0
I1
I0
tp2560
aa(lp2561
(I0
I0
I1
I1
I0
I1
I0
tp2562
a(I1
I0
I0
I0
I0
I0
I0
tp2563
a(I0
I0
I0
I0
I0
I1
I0
tp2564
a(I1
I0
I0
I0
I0
I0
I0
tp2565
a(I1
I1
I1
I1
I0
I1
I0
tp2566
a(I0
I0
I1
I0
I0
I0
I0
tp2567
a(I0
I0
I1
I0
I0
I1
I0
tp2568
aa(lp2569
(I0
I0
I1
I1
I0
I1
I0
tp2570
a(I1
I1
I0
I1
I0
I0
I0
tp2571
a(I0
I0
I0
I0
I0
I1
I0
tp2572
a(I1
I1
I0
I1
I1
I1
I0
tp2573
a(I0
I0
I0
I1
I0
I1
I1
tp2574
a(I0
I0
I1
I0
I0
I1
I0
tp2575
a(I0
I0
I1
I1
I0
I0
I0
tp2576
aa(lp2577
(I0
I0
I1
I1
I0
I1
I0
tp2578
a(I1
I1
I0
I0
I0
I0
I0
tp2579
a(I0
I0
I0
I0
I0
I1
I0
tp2580
a(I1
I1
I0
I0
I1
I1
I1
tp2581
a(I0
I0
I0
I1
I0
I1
I0
tp2582
a(I0
I0
I1
I0
I0
I1
I0
tp2583
a(I0
I0
I1
I1
I0
I0
I0
tp2584
aa(lp2585
(I0
I0
I1
I1
I0
I1
I0
tp2586
a(I1
I1
I0
I0
I0
I0
I0
tp2587
a(I0
I0
I0
I0
I0
I1
I0
tp2588
a(I0
I0
I0
I1
I1
I0
I0
tp2589
a(I0
I0
I1
I1
I1
I1
I1
tp2590
a(I0
I0
I1
I0
I0
I1
I0
tp2591
a(I0
I0
I1
I1
I0
I0
I0
tp2592
aa(lp2593
(I0
I0
I1
I1
I0
I1
I0
tp2594
a(I1
I0
I0
I0
I0
I0
I0
tp2595
a(I0
I0
I0
I0
I0
I1
I0
tp2596
a(I0
I0
I0
I1
I1
I0
I0
tp2597
a(I0
I0
I1
I1
I1
I1
I1
tp2598
a(I0
I0
I1
I0
I0
I1
I0
tp2599
a(I0
I0
I1
I1
I0
I0
I0
tp2600
aa(lp2601
(I0
I0
I1
I1
I0
I1
I0
tp2602
a(I1
I0
I0
I0
I0
I0
I0
tp2603
a(I0
I0
I0
I0
I0
I1
I0
tp2604
a(I0
I0
I0
I1
I1
I0
I0
tp2605
a(I0
I0
I0
I1
I1
I1
I0
tp2606
a(I0
I0
I1
I0
I0
I1
I0
tp2607
a(I0
I0
I1
I1
I0
I0
I0
tp2608
aa(lp2609
(I0
I0
I1
I0
I0
I1
I0
tp2610
a(I1
I0
I0
I0
I0
I0
I0
tp2611
a(I0
I0
I0
I0
I0
I1
I0
tp2612
a(I1
I0
I0
I0
I0
I0
I0
tp2613
a(I1
I1
I1
I0
I0
I1
I0
tp2614
a(I0
I0
I1
I0
I0
I0
I0
tp2615
a(I0
I0
I1
I0
I0
I1
I0
tp2616
aa(lp2617
(I0
I0
I1
I0
I0
I1
I0
tp2618
a(I1
I0
I0
I0
I0
I0
I0
tp2619
a(I0
I0
I0
I0
I0
I1
I0
tp2620
a(I1
I0
I0
I0
I0
I0
I0
tp2621
a(I1
I1
I1
I1
I0
I1
I1
tp2622
a(I0
I0
I1
I0
I0
I0
I0
tp2623
a(I0
I0
I1
I0
I0
I1
I0
tp2624
aa(lp2625
(I0
I0
I1
I0
I0
I1
I0
tp2626
a(I1
I0
I0
I0
I0
I0
I0
tp2627
a(I0
I0
I0
I0
I0
I1
I0
tp2628
a(I1
I0
I0
I0
I0
I0
I0
tp2629
a(I1
I1
I0
I1
I0
I1
I0
tp2630
a(I0
I0
I1
I0
I0
I0
I0
tp2631
a(I0
I0
I1
I0
I0
I1
I0
tp2632
aa(lp2633
(I0
I0
I1
I0
I0
I1
I0
tp2634
a(I1
I0
I0
I0
I0
I0
I0
tp2635
a(I0
I0
I0
I0
I0
I1
I0
tp2636
a(I1
I0
I0
I0
I0
I0
I0
tp2637
a(I1
I1
I1
I1
I0
I1
I0
tp2638
a(I0
I0
I1
I0
I0
I0
I0
tp2639
a(I0
I0
I1
I0
I0
I1
I0
tp2640
aa(lp2641
(I0
I0
I1
I0
I0
I1
I0
tp2642
a(I1
I0
I0
I0
I0
I0
I0
tp2643
a(I0
I0
I0
I0
I0
I1
I0
tp2644
a(I1
I0
I0
I0
I0
I0
I0
tp2645
a(I0
I0
I0
I0
I0
I1
I0
tp2646
a(I0
I0
I1
I0
I0
I0
I0
tp2647
a(I0
I0
I1
I0
I0
I1
I0
tp2648
aa(lp2649
(I0
I0
I1
I0
I0
I1
I0
tp2650
a(I1
I0
I0
I0
I0
I0
I0
tp2651
a(I0
I0
I0
I0
I0
I1
I0
tp2652
a(I0
I1
I0
I1
I0
I0
I0
tp2653
a(I1
I1
I0
I1
I0
I1
I1
tp2654
a(I0
I0
I1
I0
I0
I0
I0
tp2655
a(I0
I0
I1
I0
I0
I1
I0
tp2656
aa(lp2657
(I0
I0
I1
I0
I0
I1
I0
tp2658
a(I1
I0
I0
I0
I0
I0
I0
tp2659
a(I0
I0
I0
I0
I0
I1
I0
tp2660
a(I0
I1
I0
I0
I0
I0
I0
tp2661
a(I1
I1
I0
I1
I0
I1
I0
tp2662
a(I0
I0
I1
I0
I0
I0
I0
tp2663
a(I0
I0
I1
I0
I0
I1
I0
tp2664
aa(lp2665
(I0
I0
I1
I0
I0
I1
I0
tp2666
a(I1
I0
I0
I0
I0
I0
I0
tp2667
a(I0
I0
I0
I0
I0
I1
I0
tp2668
a(I0
I1
I0
I0
I0
I0
I0
tp2669
a(I1
I1
I0
I1
I0
I1
I1
tp2670
a(I0
I0
I1
I0
I0
I0
I0
tp2671
a(I0
I0
I1
I0
I0
I1
I0
tp2672
aa(lp2673
(I0
I0
I1
I0
I0
I1
I0
tp2674
a(I1
I0
I0
I0
I0
I0
I0
tp2675
a(I0
I0
I0
I0
I0
I1
I0
tp2676
a(I0
I0
I0
I1
I0
I0
I0
tp2677
a(I0
I0
I0
I1
I0
I1
I1
tp2678
a(I0
I0
I1
I0
I0
I0
I0
tp2679
a(I0
I0
I1
I0
I0
I1
I0
tp2680
aa(lp2681
(I0
I0
I1
I0
I0
I1
I0
tp2682
a(I1
I0
I0
I0
I0
I0
I0
tp2683
a(I0
I0
I0
I0
I0
I1
I0
tp2684
a(I0
I0
I0
I1
I0
I0
I0
tp2685
a(I1
I1
I0
I1
I0
I1
I1
tp2686
a(I0
I0
I1
I0
I0
I0
I0
tp2687
a(I0
I0
I1
I0
I0
I1
I0
tp2688
aa(lp2689
(I0
I0
I1
I1
I0
I1
I0
tp2690
a(I1
I1
I0
I0
I0
I0
I0
tp2691
a(I0
I0
I0
I0
I0
I1
I0
tp2692
a(I1
I0
I0
I1
I1
I1
I0
tp2693
a(I1
I1
I0
I1
I0
I1
I0
tp2694
a(I0
I0
I1
I0
I0
I0
I0
tp2695
a(I0
I0
I1
I1
I0
I0
I0
tp2696
aa(lp2697
(I0
I0
I1
I1
I0
I1
I0
tp2698
a(I1
I1
I0
I0
I0
I0
I0
tp2699
a(I0
I0
I0
I0
I0
I1
I0
tp2700
a(I1
I0
I0
I1
I1
I0
I0
tp2701
a(I1
I1
I0
I1
I0
I1
I0
tp2702
a(I0
I0
I1
I0
I0
I0
I0
tp2703
a(I0
I0
I1
I1
I0
I0
I0
tp2704
aa(lp2705
(I0
I0
I1
I1
I0
I1
I0
tp2706
a(I1
I1
I0
I0
I0
I0
I0
tp2707
a(I0
I0
I0
I0
I0
I1
I0
tp2708
a(I1
I1
I1
I1
I1
I0
I0
tp2709
a(I1
I1
I0
I1
I0
I1
I1
tp2710
a(I0
I0
I1
I0
I0
I0
I0
tp2711
a(I0
I0
I1
I1
I0
I0
I0
tp2712
aa(lp2713
(I0
I0
I1
I1
I0
I0
I0
tp2714
a(I1
I1
I1
I0
I0
I0
I0
tp2715
a(I0
I0
I0
I0
I0
I1
I0
tp2716
a(I1
I1
I0
I0
I1
I1
I0
tp2717
a(I1
I1
I1
I1
I1
I1
I0
tp2718
a(I0
I0
I1
I0
I0
I1
I0
tp2719
a(I0
I0
I1
I1
I0
I0
I0
tp2720
aa(lp2721
(I0
I0
I1
I0
I0
I0
I0
tp2722
a(I1
I0
I0
I0
I0
I0
I0
tp2723
a(I0
I0
I0
I0
I0
I1
I0
tp2724
a(I1
I0
I0
I1
I0
I0
I0
tp2725
a(I0
I1
I1
I1
I1
I1
I1
tp2726
a(I0
I0
I1
I0
I0
I0
I0
tp2727
a(I0
I0
I1
I0
I0
I1
I0
tp2728
aa(lp2729
(I0
I0
I1
I0
I0
I0
I0
tp2730
a(I1
I0
I0
I0
I0
I0
I0
tp2731
a(I0
I0
I0
I0
I0
I1
I0
tp2732
a(I1
I0
I0
I1
I0
I0
I0
tp2733
a(I0
I1
I1
I0
I0
I1
I0
tp2734
a(I0
I0
I1
I0
I0
I0
I0
tp2735
a(I0
I0
I1
I0
I0
I1
I0
tp2736
aa(lp2737
(I0
I0
I1
I0
I0
I0
I0
tp2738
a(I1
I0
I0
I0
I0
I0
I0
tp2739
a(I0
I0
I0
I0
I0
I1
I0
tp2740
a(I1
I1
I0
I1
I0
I0
I0
tp2741
a(I0
I0
I0
I1
I0
I1
I1
tp2742
a(I0
I0
I1
I0
I0
I0
I0
tp2743
a(I0
I0
I1
I0
I0
I1
I0
tp2744
aa(lp2745
(I0
I0
I1
I0
I0
I0
I0
tp2746
a(I1
I0
I0
I0
I0
I0
I0
tp2747
a(I0
I0
I0
I0
I0
I1
I0
tp2748
a(I1
I1
I0
I0
I0
I0
I0
tp2749
a(I1
I1
I1
I0
I0
I1
I0
tp2750
a(I0
I0
I1
I0
I0
I0
I0
tp2751
a(I0
I0
I1
I0
I0
I1
I0
tp2752
aa(lp2753
(I0
I0
I1
I0
I0
I0
I0
tp2754
a(I1
I0
I0
I0
I0
I0
I0
tp2755
a(I0
I0
I0
I0
I0
I1
I0
tp2756
a(I1
I1
I0
I0
I0
I0
I0
tp2757
a(I1
I0
I0
I1
I0
I1
I1
tp2758
a(I0
I0
I1
I0
I0
I0
I0
tp2759
a(I0
I0
I1
I0
I0
I1
I0
tp2760
aa(lp2761
(I0
I0
I1
I0
I0
I0
I0
tp2762
a(I1
I0
I0
I0
I0
I0
I0
tp2763
a(I0
I0
I0
I0
I0
I1
I0
tp2764
a(I1
I1
I0
I0
I0
I0
I0
tp2765
a(I0
I0
I0
I1
I0
I1
I1
tp2766
a(I0
I0
I1
I0
I0
I0
I0
tp2767
a(I0
I0
I1
I0
I0
I1
I0
tp2768
aa(lp2769
(I0
I0
I1
I0
I0
I0
I0
tp2770
a(I1
I0
I0
I0
I0
I0
I0
tp2771
a(I0
I0
I0
I0
I0
I1
I0
tp2772
a(I1
I1
I0
I0
I0
I0
I0
tp2773
a(I1
I1
I0
I1
I0
I1
I0
tp2774
a(I0
I0
I1
I0
I0
I0
I0
tp2775
a(I0
I0
I1
I0
I0
I1
I0
tp2776
aa(lp2777
(I0
I0
I1
I0
I0
I0
I0
tp2778
a(I1
I0
I0
I0
I0
I0
I0
tp2779
a(I0
I0
I0
I0
I0
I1
I0
tp2780
a(I1
I1
I0
I0
I0
I0
I0
tp2781
a(I0
I1
I0
I0
I0
I1
I1
tp2782
a(I0
I0
I1
I0
I0
I0
I0
tp2783
a(I0
I0
I1
I0
I0
I1
I0
tp2784
aa(lp2785
(I0
I0
I1
I1
I0
I1
I0
tp2786
a(I1
I1
I0
I0
I0
I0
I0
tp2787
a(I0
I0
I0
I0
I0
I1
I0
tp2788
a(I0
I0
I0
I1
I0
I0
I0
tp2789
a(I1
I1
I0
I1
I0
I1
I0
tp2790
a(I0
I0
I1
I0
I0
I0
I0
tp2791
a(I0
I0
I1
I1
I0
I0
I0
tp2792
aa(lp2793
(I0
I0
I1
I1
I0
I1
I0
tp2794
a(I1
I1
I0
I0
I1
I0
I0
tp2795
a(I0
I0
I0
I0
I0
I1
I0
tp2796
a(I1
I0
I0
I1
I1
I1
I1
tp2797
a(I0
I1
I0
I0
I0
I1
I1
tp2798
a(I0
I0
I1
I1
I1
I1
I1
tp2799
a(I0
I0
I1
I0
I0
I0
I0
tp2800
aa(lp2801
(I0
I0
I1
I1
I0
I1
I0
tp2802
a(I1
I1
I0
I0
I1
I0
I0
tp2803
a(I0
I0
I0
I0
I0
I1
I0
tp2804
a(I1
I0
I0
I1
I1
I1
I1
tp2805
a(I1
I1
I1
I0
I0
I1
I0
tp2806
a(I0
I0
I1
I1
I1
I1
I1
tp2807
a(I0
I0
I1
I0
I0
I0
I0
tp2808
aa(lp2809
(I0
I0
I1
I1
I0
I1
I0
tp2810
a(I1
I1
I0
I0
I1
I0
I0
tp2811
a(I0
I0
I0
I0
I0
I1
I0
tp2812
a(I1
I0
I0
I1
I1
I1
I1
tp2813
a(I0
I1
I0
I1
I1
I1
I1
tp2814
a(I0
I0
I1
I1
I1
I1
I1
tp2815
a(I0
I0
I1
I0
I0
I0
I0
tp2816
aa(lp2817
(I0
I0
I1
I1
I0
I1
I0
tp2818
a(I1
I1
I0
I0
I1
I0
I0
tp2819
a(I0
I0
I0
I0
I0
I1
I0
tp2820
a(I1
I0
I0
I1
I1
I1
I1
tp2821
a(I0
I1
I0
I1
I0
I1
I1
tp2822
a(I0
I0
I1
I1
I1
I1
I1
tp2823
a(I0
I0
I1
I0
I0
I0
I0
tp2824
aa(lp2825
(I0
I0
I1
I1
I0
I1
I0
tp2826
a(I1
I1
I0
I0
I1
I0
I0
tp2827
a(I0
I0
I0
I0
I0
I1
I0
tp2828
a(I1
I0
I0
I1
I1
I1
I1
tp2829
a(I0
I0
I1
I1
I0
I1
I1
tp2830
a(I0
I0
I1
I1
I1
I1
I1
tp2831
a(I0
I0
I1
I0
I0
I0
I0
tp2832
aa(lp2833
(I0
I0
I1
I1
I0
I1
I0
tp2834
a(I1
I1
I0
I0
I1
I0
I0
tp2835
a(I0
I0
I0
I0
I0
I1
I0
tp2836
a(I1
I0
I0
I1
I1
I1
I1
tp2837
a(I0
I0
I0
I1
I0
I1
I1
tp2838
a(I0
I0
I1
I1
I1
I1
I1
tp2839
a(I0
I0
I1
I0
I0
I0
I0
tp2840
aa(lp2841
(I0
I0
I1
I1
I0
I1
I0
tp2842
a(I1
I1
I0
I0
I1
I0
I0
tp2843
a(I0
I0
I0
I0
I0
I1
I0
tp2844
a(I1
I0
I0
I1
I1
I1
I1
tp2845
a(I0
I0
I0
I1
I0
I1
I0
tp2846
a(I0
I0
I1
I1
I1
I1
I1
tp2847
a(I0
I0
I1
I0
I0
I0
I0
tp2848
aa(lp2849
(I0
I0
I1
I1
I0
I1
I0
tp2850
a(I1
I1
I0
I0
I1
I0
I0
tp2851
a(I0
I0
I0
I0
I0
I1
I0
tp2852
a(I1
I0
I0
I1
I1
I1
I1
tp2853
a(I0
I1
I0
I1
I0
I1
I0
tp2854
a(I0
I0
I1
I1
I1
I1
I1
tp2855
a(I0
I0
I1
I0
I0
I0
I0
tp2856
aa(lp2857
(I0
I0
I1
I1
I0
I1
I0
tp2858
a(I1
I1
I0
I0
I1
I0
I0
tp2859
a(I0
I0
I0
I0
I0
I1
I0
tp2860
a(I1
I1
I0
I0
I1
I0
I1
tp2861
a(I0
I0
I0
I1
I0
I1
I1
tp2862
a(I0
I0
I1
I1
I1
I1
I1
tp2863
a(I0
I0
I1
I0
I0
I0
I0
tp2864
aa(lp2865
(I0
I0
I1
I1
I0
I1
I0
tp2866
a(I1
I1
I0
I0
I1
I0
I0
tp2867
a(I0
I0
I0
I0
I0
I1
I0
tp2868
a(I0
I1
I0
I1
I1
I0
I0
tp2869
a(I0
I1
I1
I1
I0
I1
I1
tp2870
a(I0
I0
I1
I1
I1
I1
I1
tp2871
a(I0
I0
I1
I0
I0
I0
I0
tp2872
aa(lp2873
(I0
I0
I1
I1
I0
I1
I0
tp2874
a(I1
I1
I0
I0
I1
I0
I0
tp2875
a(I0
I0
I0
I0
I0
I1
I0
tp2876
a(I0
I1
I0
I1
I1
I0
I0
tp2877
a(I1
I1
I1
I0
I0
I1
I1
tp2878
a(I0
I0
I1
I1
I1
I1
I1
tp2879
a(I0
I0
I1
I0
I0
I0
I0
tp2880
aa(lp2881
(I0
I0
I1
I1
I0
I1
I0
tp2882
a(I1
I1
I0
I0
I1
I0
I0
tp2883
a(I0
I0
I0
I0
I0
I1
I0
tp2884
a(I1
I1
I0
I0
I1
I0
I0
tp2885
a(I1
I1
I1
I1
I0
I1
I1
tp2886
a(I0
I0
I1
I1
I1
I0
I1
tp2887
a(I0
I0
I1
I0
I0
I0
I0
tp2888
aa(lp2889
(I0
I0
I1
I1
I0
I1
I0
tp2890
a(I1
I1
I0
I0
I1
I0
I0
tp2891
a(I0
I0
I0
I0
I0
I1
I0
tp2892
a(I1
I1
I0
I0
I1
I0
I0
tp2893
a(I1
I1
I1
I1
I0
I1
I0
tp2894
a(I0
I0
I1
I1
I1
I0
I1
tp2895
a(I0
I0
I1
I0
I0
I0
I0
tp2896
aa(lp2897
(I0
I0
I1
I1
I0
I1
I0
tp2898
a(I1
I1
I0
I0
I1
I0
I0
tp2899
a(I0
I0
I0
I0
I0
I1
I0
tp2900
a(I1
I1
I0
I0
I1
I0
I0
tp2901
a(I1
I1
I0
I1
I1
I1
I1
tp2902
a(I0
I0
I1
I1
I1
I0
I1
tp2903
a(I0
I0
I1
I0
I0
I0
I0
tp2904
aa(lp2905
(I0
I0
I1
I1
I0
I1
I0
tp2906
a(I1
I1
I0
I0
I1
I0
I0
tp2907
a(I0
I0
I0
I0
I0
I1
I0
tp2908
a(I1
I1
I0
I0
I1
I0
I0
tp2909
a(I0
I1
I0
I1
I0
I1
I1
tp2910
a(I0
I0
I1
I1
I1
I0
I1
tp2911
a(I0
I0
I1
I0
I0
I0
I0
tp2912
aa(lp2913
(I0
I0
I1
I1
I0
I1
I0
tp2914
a(I1
I1
I0
I0
I1
I0
I0
tp2915
a(I0
I0
I0
I0
I0
I1
I0
tp2916
a(I1
I1
I0
I0
I1
I0
I0
tp2917
a(I1
I1
I0
I1
I0
I1
I1
tp2918
a(I0
I0
I1
I1
I1
I0
I1
tp2919
a(I0
I0
I1
I0
I0
I0
I0
tp2920
aa(lp2921
(I0
I0
I1
I1
I0
I1
I0
tp2922
a(I1
I1
I0
I0
I1
I0
I0
tp2923
a(I0
I0
I0
I0
I0
I1
I0
tp2924
a(I1
I1
I0
I0
I1
I0
I0
tp2925
a(I1
I0
I0
I1
I1
I1
I1
tp2926
a(I0
I0
I1
I1
I1
I0
I1
tp2927
a(I0
I0
I1
I0
I0
I0
I0
tp2928
aa(lp2929
(I0
I0
I1
I1
I0
I1
I0
tp2930
a(I1
I1
I0
I0
I1
I0
I0
tp2931
a(I0
I0
I0
I0
I0
I1
I0
tp2932
a(I1
I0
I0
I1
I1
I0
I0
tp2933
a(I1
I1
I1
I0
I0
I1
I1
tp2934
a(I0
I0
I1
I1
I1
I1
I1
tp2935
a(I0
I0
I1
I0
I0
I0
I0
tp2936
aa(lp2937
(I0
I0
I1
I1
I0
I1
I0
tp2938
a(I1
I1
I0
I0
I1
I0
I0
tp2939
a(I0
I0
I0
I0
I0
I1
I0
tp2940
a(I1
I0
I0
I1
I1
I0
I0
tp2941
a(I1
I1
I0
I1
I0
I1
I1
tp2942
a(I0
I0
I1
I1
I1
I1
I1
tp2943
a(I0
I0
I1
I0
I0
I0
I0
tp2944
aa(lp2945
(I0
I0
I1
I1
I0
I1
I0
tp2946
a(I1
I1
I0
I0
I1
I0
I0
tp2947
a(I0
I0
I0
I0
I0
I1
I0
tp2948
a(I1
I0
I0
I1
I1
I0
I0
tp2949
a(I0
I0
I0
I1
I0
I1
I0
tp2950
a(I0
I0
I1
I1
I1
I1
I1
tp2951
a(I0
I0
I1
I0
I0
I0
I0
tp2952
aa(lp2953
(I0
I0
I1
I1
I0
I1
I0
tp2954
a(I1
I1
I0
I0
I1
I0
I0
tp2955
a(I0
I0
I0
I0
I0
I1
I0
tp2956
a(I1
I0
I0
I1
I1
I0
I0
tp2957
a(I0
I0
I0
I1
I0
I1
I1
tp2958
a(I0
I0
I1
I1
I1
I1
I1
tp2959
a(I0
I0
I1
I0
I0
I0
I0
tp2960
aa(lp2961
(I0
I0
I1
I1
I0
I1
I0
tp2962
a(I1
I1
I0
I0
I1
I0
I0
tp2963
a(I0
I0
I0
I0
I0
I1
I0
tp2964
a(I1
I0
I0
I1
I1
I0
I0
tp2965
a(I1
I1
I0
I1
I0
I1
I0
tp2966
a(I0
I0
I1
I1
I1
I1
I1
tp2967
a(I0
I0
I1
I0
I0
I0
I0
tp2968
aa(lp2969
(I0
I0
I1
I1
I0
I1
I0
tp2970
a(I1
I1
I0
I0
I1
I0
I0
tp2971
a(I0
I0
I0
I0
I0
I1
I0
tp2972
a(I1
I1
I1
I0
I1
I0
I0
tp2973
a(I1
I1
I1
I1
I0
I1
I1
tp2974
a(I0
I0
I1
I1
I1
I1
I1
tp2975
a(I0
I0
I1
I0
I0
I0
I0
tp2976
aa(lp2977
(I0
I0
I1
I1
I0
I1
I0
tp2978
a(I1
I1
I0
I0
I1
I0
I0
tp2979
a(I0
I0
I0
I0
I0
I1
I0
tp2980
a(I1
I1
I1
I0
I1
I0
I0
tp2981
a(I0
I0
I0
I1
I0
I1
I1
tp2982
a(I0
I0
I1
I1
I1
I1
I1
tp2983
a(I0
I0
I1
I0
I0
I0
I0
tp2984
aa(lp2985
(I0
I0
I1
I1
I0
I1
I0
tp2986
a(I1
I1
I0
I0
I1
I0
I0
tp2987
a(I0
I0
I0
I0
I0
I1
I0
tp2988
a(I1
I1
I0
I0
I1
I0
I0
tp2989
a(I1
I1
I1
I1
I0
I1
I1
tp2990
a(I0
I0
I1
I1
I1
I1
I1
tp2991
a(I0
I0
I1
I0
I0
I0
I0
tp2992
aa(lp2993
(I0
I0
I1
I1
I0
I1
I0
tp2994
a(I1
I1
I0
I0
I1
I0
I0
tp2995
a(I0
I0
I0
I0
I0
I1
I0
tp2996
a(I1
I1
I0
I0
I1
I0
I0
tp2997
a(I1
I1
I1
I1
I1
I1
I1
tp2998
a(I0
I0
I1
I1
I1
I1
I1
tp2999
a(I0
I0
I1
I0
I0
I0
I0
tp3000
aa(lp3001
(I0
I0
I1
I1
I0
I1
I0
tp3002
a(I1
I1
I0
I0
I1
I0
I0
tp3003
a(I0
I0
I0
I0
I0
I1
I0
tp3004
a(I1
I1
I0
I0
I1
I0
I0
tp3005
a(I1
I0
I0
I1
I0
I1
I1
tp3006
a(I0
I0
I1
I1
I1
I1
I1
tp3007
a(I0
I0
I1
I0
I0
I0
I0
tp3008
aa(lp3009
(I0
I0
I1
I1
I0
I1
I0
tp3010
a(I1
I1
I0
I0
I1
I0
I0
tp3011
a(I0
I0
I0
I0
I0
I1
I0
tp3012
a(I1
I1
I0
I0
I1
I0
I0
tp3013
a(I1
I1
I0
I1
I0
I1
I1
tp3014
a(I0
I0
I1
I1
I1
I1
I1
tp3015
a(I0
I0
I1
I0
I0
I0
I0
tp3016
aa(lp3017
(I0
I0
I1
I1
I0
I1
I0
tp3018
a(I1
I1
I0
I0
I1
I0
I0
tp3019
a(I0
I0
I0
I0
I0
I1
I0
tp3020
a(I1
I1
I0
I0
I1
I0
I0
tp3021
a(I1
I0
I0
I1
I0
I1
I0
tp3022
a(I0
I0
I1
I1
I1
I1
I1
tp3023
a(I0
I0
I1
I0
I0
I0
I0
tp3024
aa(lp3025
(I0
I0
I1
I1
I0
I1
I0
tp3026
a(I1
I1
I0
I0
I1
I0
I0
tp3027
a(I0
I0
I0
I0
I0
I1
I0
tp3028
a(I1
I1
I0
I0
I1
I0
I0
tp3029
a(I0
I0
I0
I1
I0
I1
I1
tp3030
a(I0
I0
I1
I1
I1
I1
I1
tp3031
a(I0
I0
I1
I0
I0
I0
I0
tp3032
aa(lp3033
(I0
I0
I1
I1
I0
I1
I0
tp3034
a(I1
I1
I0
I0
I1
I0
I0
tp3035
a(I0
I0
I0
I0
I0
I1
I0
tp3036
a(I1
I1
I0
I0
I1
I0
I0
tp3037
a(I0
I0
I1
I1
I0
I1
I1
tp3038
a(I0
I0
I1
I1
I1
I1
I1
tp3039
a(I0
I0
I1
I0
I0
I0
I0
tp3040
aa(lp3041
(I0
I0
I1
I1
I0
I1
I0
tp3042
a(I1
I1
I0
I0
I1
I0
I0
tp3043
a(I0
I0
I0
I0
I0
I1
I0
tp3044
a(I1
I1
I0
I0
I1
I0
I0
tp3045
a(I1
I0
I1
I1
I0
I1
I0
tp3046
a(I0
I0
I1
I1
I1
I1
I1
tp3047
a(I0
I0
I1
I0
I0
I0
I0
tp3048
aa(lp3049
(I0
I0
I1
I1
I0
I1
I0
tp3050
a(I1
I1
I0
I0
I1
I0
I0
tp3051
a(I0
I0
I0
I0
I0
I1
I0
tp3052
a(I1
I1
I0
I0
I1
I0
I0
tp3053
a(I1
I0
I1
I1
I1
I1
I1
tp3054
a(I0
I0
I1
I1
I1
I1
I1
tp3055
a(I0
I0
I1
I0
I0
I0
I0
tp3056
aa(lp3057
(I0
I0
I1
I1
I0
I1
I0
tp3058
a(I1
I1
I0
I0
I1
I0
I0
tp3059
a(I0
I0
I0
I0
I0
I1
I0
tp3060
a(I1
I1
I0
I0
I1
I0
I0
tp3061
a(I0
I0
I0
I1
I0
I1
I0
tp3062
a(I0
I0
I1
I1
I1
I1
I1
tp3063
a(I0
I0
I1
I0
I0
I0
I0
tp3064
aa(lp3065
(I0
I0
I1
I1
I0
I1
I0
tp3066
a(I1
I1
I0
I0
I1
I0
I0
tp3067
a(I0
I0
I0
I0
I0
I1
I0
tp3068
a(I1
I1
I0
I0
I1
I0
I0
tp3069
a(I0
I0
I0
I1
I0
I1
I1
tp3070
a(I0
I0
I1
I1
I1
I1
I0
tp3071
a(I0
I0
I1
I0
I0
I0
I0
tp3072
aa(lp3073
(I0
I0
I1
I1
I0
I1
I0
tp3074
a(I1
I1
I0
I0
I1
I0
I0
tp3075
a(I0
I0
I0
I0
I0
I1
I0
tp3076
a(I1
I0
I0
I0
I0
I0
I0
tp3077
a(I0
I0
I0
I1
I1
I1
I1
tp3078
a(I0
I0
I1
I1
I1
I1
I1
tp3079
a(I0
I0
I1
I0
I0
I0
I0
tp3080
aa(lp3081
(I0
I0
I1
I1
I0
I1
I0
tp3082
a(I1
I1
I0
I0
I1
I0
I0
tp3083
a(I0
I0
I0
I0
I0
I1
I0
tp3084
a(I1
I0
I0
I0
I0
I0
I0
tp3085
a(I0
I0
I0
I1
I0
I1
I1
tp3086
a(I0
I0
I1
I1
I1
I1
I1
tp3087
a(I0
I0
I1
I0
I0
I0
I0
tp3088
aa(lp3089
(I0
I0
I1
I1
I0
I1
I0
tp3090
a(I1
I0
I0
I1
I0
I0
I0
tp3091
a(I0
I0
I0
I0
I0
I1
I0
tp3092
a(I1
I0
I0
I1
I1
I1
I1
tp3093
a(I0
I0
I0
I1
I0
I1
I1
tp3094
a(I0
I0
I1
I1
I1
I1
I1
tp3095
a(I0
I0
I1
I0
I0
I0
I0
tp3096
aa(lp3097
(I0
I0
I1
I1
I0
I1
I0
tp3098
a(I1
I1
I0
I0
I1
I0
I0
tp3099
a(I0
I0
I0
I0
I0
I1
I0
tp3100
a(I1
I1
I0
I0
I1
I0
I1
tp3101
a(I0
I1
I0
I1
I0
I1
I1
tp3102
a(I0
I0
I1
I1
I1
I0
I0
tp3103
a(I0
I0
I1
I0
I0
I0
I0
tp3104
aa(lp3105
(I0
I0
I1
I1
I0
I1
I0
tp3106
a(I1
I1
I0
I0
I1
I0
I0
tp3107
a(I0
I0
I0
I0
I0
I1
I0
tp3108
a(I0
I1
I0
I1
I1
I0
I0
tp3109
a(I1
I0
I1
I0
I0
I1
I0
tp3110
a(I0
I0
I1
I1
I1
I0
I0
tp3111
a(I0
I0
I1
I0
I0
I0
I0
tp3112
aa(lp3113
(I0
I0
I1
I1
I0
I1
I0
tp3114
a(I1
I1
I0
I0
I1
I0
I0
tp3115
a(I0
I0
I0
I0
I0
I1
I0
tp3116
a(I0
I1
I0
I1
I1
I0
I0
tp3117
a(I0
I0
I0
I1
I0
I1
I1
tp3118
a(I0
I0
I1
I1
I1
I0
I0
tp3119
a(I0
I0
I1
I0
I0
I0
I0
tp3120
aa(lp3121
(I0
I0
I1
I1
I0
I1
I0
tp3122
a(I1
I1
I0
I0
I1
I0
I0
tp3123
a(I0
I0
I0
I0
I0
I1
I0
tp3124
a(I0
I1
I0
I1
I1
I0
I0
tp3125
a(I1
I1
I0
I0
I0
I1
I0
tp3126
a(I0
I0
I1
I1
I1
I0
I0
tp3127
a(I0
I0
I1
I0
I0
I0
I0
tp3128
aa(lp3129
(I0
I0
I1
I1
I0
I1
I0
tp3130
a(I1
I1
I0
I0
I1
I0
I0
tp3131
a(I0
I0
I0
I0
I0
I1
I0
tp3132
a(I0
I1
I0
I1
I1
I0
I0
tp3133
a(I1
I1
I1
I0
I0
I1
I0
tp3134
a(I0
I0
I1
I1
I1
I0
I0
tp3135
a(I0
I0
I1
I0
I0
I0
I0
tp3136
aa(lp3137
(I0
I0
I1
I1
I0
I1
I0
tp3138
a(I1
I1
I0
I0
I1
I0
I0
tp3139
a(I0
I0
I0
I0
I0
I1
I0
tp3140
a(I1
I0
I0
I0
I1
I0
I0
tp3141
a(I0
I0
I1
I1
I1
I1
I1
tp3142
a(I0
I0
I1
I1
I1
I0
I0
tp3143
a(I0
I0
I1
I0
I0
I0
I0
tp3144
aa(lp3145
(I0
I0
I1
I1
I0
I1
I0
tp3146
a(I1
I1
I0
I0
I1
I0
I0
tp3147
a(I0
I0
I0
I0
I0
I1
I0
tp3148
a(I1
I0
I0
I0
I1
I0
I0
tp3149
a(I0
I0
I0
I1
I0
I1
I0
tp3150
a(I0
I0
I1
I1
I1
I0
I0
tp3151
a(I0
I0
I1
I0
I0
I0
I0
tp3152
aa(lp3153
(I0
I0
I1
I1
I0
I1
I0
tp3154
a(I1
I1
I0
I0
I1
I0
I0
tp3155
a(I0
I0
I0
I0
I0
I1
I0
tp3156
a(I1
I1
I0
I0
I1
I0
I0
tp3157
a(I1
I1
I1
I1
I0
I1
I0
tp3158
a(I0
I0
I1
I1
I1
I0
I0
tp3159
a(I0
I0
I1
I0
I0
I0
I0
tp3160
aa(lp3161
(I0
I0
I1
I1
I0
I1
I0
tp3162
a(I1
I1
I0
I0
I1
I0
I0
tp3163
a(I0
I0
I0
I0
I0
I1
I0
tp3164
a(I1
I1
I0
I0
I1
I0
I0
tp3165
a(I1
I1
I0
I1
I0
I1
I0
tp3166
a(I0
I0
I1
I1
I1
I0
I0
tp3167
a(I0
I0
I1
I0
I0
I0
I0
tp3168
aa(lp3169
(I0
I0
I1
I1
I0
I1
I0
tp3170
a(I1
I1
I0
I0
I1
I0
I0
tp3171
a(I0
I0
I0
I0
I0
I1
I0
tp3172
a(I1
I1
I0
I0
I1
I0
I0
tp3173
a(I0
I0
I0
I1
I0
I1
I1
tp3174
a(I0
I0
I1
I1
I1
I0
I0
tp3175
a(I0
I0
I1
I0
I0
I0
I0
tp3176
aa(lp3177
(I0
I0
I1
I1
I0
I1
I0
tp3178
a(I1
I1
I0
I0
I1
I0
I0
tp3179
a(I0
I0
I0
I0
I0
I1
I0
tp3180
a(I1
I1
I0
I0
I1
I0
I0
tp3181
a(I0
I0
I1
I1
I1
I1
I1
tp3182
a(I0
I0
I1
I1
I1
I0
I0
tp3183
a(I0
I0
I1
I0
I0
I0
I0
tp3184
aa(lp3185
(I0
I0
I1
I1
I0
I1
I0
tp3186
a(I1
I1
I0
I0
I1
I0
I0
tp3187
a(I0
I0
I0
I0
I0
I1
I0
tp3188
a(I1
I1
I0
I0
I1
I0
I0
tp3189
a(I0
I1
I0
I1
I0
I1
I0
tp3190
a(I0
I0
I1
I1
I1
I0
I0
tp3191
a(I0
I0
I1
I0
I0
I0
I0
tp3192
aa(lp3193
(I0
I0
I1
I1
I0
I1
I0
tp3194
a(I1
I0
I0
I0
I0
I0
I0
tp3195
a(I0
I0
I0
I0
I0
I1
I0
tp3196
a(I0
I1
I0
I1
I1
I0
I0
tp3197
a(I0
I0
I0
I1
I0
I1
I1
tp3198
a(I0
I0
I1
I1
I1
I1
I1
tp3199
a(I0
I0
I1
I0
I0
I0
I0
tp3200
aa(lp3201
(I0
I0
I1
I1
I0
I1
I0
tp3202
a(I1
I0
I0
I0
I0
I0
I0
tp3203
a(I0
I0
I0
I0
I0
I1
I0
tp3204
a(I1
I1
I0
I0
I1
I0
I0
tp3205
a(I0
I1
I0
I1
I0
I1
I1
tp3206
a(I0
I0
I1
I1
I1
I1
I1
tp3207
a(I0
I0
I1
I0
I0
I0
I0
tp3208
aa(lp3209
(I0
I0
I1
I1
I0
I1
I0
tp3210
a(I1
I0
I0
I0
I0
I0
I0
tp3211
a(I0
I0
I0
I0
I0
I1
I0
tp3212
a(I1
I1
I0
I0
I1
I0
I0
tp3213
a(I1
I1
I1
I1
I0
I1
I0
tp3214
a(I0
I0
I1
I1
I1
I1
I1
tp3215
a(I0
I0
I1
I0
I0
I0
I0
tp3216
aa(lp3217
(I0
I0
I1
I1
I0
I1
I0
tp3218
a(I1
I0
I0
I0
I0
I0
I0
tp3219
a(I0
I0
I0
I0
I0
I1
I0
tp3220
a(I1
I1
I0
I0
I1
I0
I0
tp3221
a(I1
I1
I1
I1
I0
I1
I1
tp3222
a(I0
I0
I1
I1
I1
I1
I1
tp3223
a(I0
I0
I1
I0
I0
I0
I0
tp3224
aa(lp3225
(I0
I0
I1
I1
I0
I1
I0
tp3226
a(I1
I0
I0
I0
I0
I0
I0
tp3227
a(I0
I0
I0
I0
I0
I1
I0
tp3228
a(I1
I1
I0
I0
I1
I0
I0
tp3229
a(I0
I0
I0
I1
I0
I1
I0
tp3230
a(I0
I0
I1
I1
I1
I1
I1
tp3231
a(I0
I0
I1
I0
I0
I0
I0
tp3232
aa(lp3233
(I0
I0
I1
I1
I0
I1
I0
tp3234
a(I1
I0
I0
I0
I0
I0
I0
tp3235
a(I0
I0
I0
I0
I0
I1
I0
tp3236
a(I1
I1
I0
I0
I1
I0
I0
tp3237
a(I1
I0
I1
I1
I0
I1
I0
tp3238
a(I0
I0
I1
I1
I1
I1
I1
tp3239
a(I0
I0
I1
I0
I0
I0
I0
tp3240
aa(lp3241
(I0
I0
I1
I1
I0
I1
I0
tp3242
a(I1
I0
I0
I0
I0
I0
I0
tp3243
a(I0
I0
I0
I0
I0
I1
I0
tp3244
a(I1
I1
I0
I0
I1
I0
I0
tp3245
a(I1
I0
I0
I1
I0
I1
I1
tp3246
a(I0
I0
I1
I1
I1
I1
I1
tp3247
a(I0
I0
I1
I0
I0
I0
I0
tp3248
aa(lp3249
(I0
I0
I1
I1
I0
I1
I0
tp3250
a(I1
I1
I0
I0
I1
I0
I0
tp3251
a(I0
I0
I0
I0
I0
I1
I0
tp3252
a(I1
I0
I0
I0
I0
I0
I0
tp3253
a(I0
I0
I0
I1
I0
I1
I1
tp3254
a(I0
I0
I1
I1
I1
I0
I0
tp3255
a(I0
I0
I1
I0
I0
I0
I0
tp3256
aa(lp3257
(I0
I0
I1
I1
I0
I1
I0
tp3258
a(I1
I1
I1
I0
I0
I0
I0
tp3259
a(I0
I0
I0
I0
I0
I1
I0
tp3260
a(I1
I0
I0
I0
I0
I0
I0
tp3261
a(I0
I0
I0
I1
I1
I1
I1
tp3262
a(I0
I0
I1
I1
I1
I1
I1
tp3263
a(I0
I0
I1
I0
I0
I0
I0
tp3264
aa(lp3265
(I0
I0
I1
I1
I0
I1
I0
tp3266
a(I1
I1
I0
I0
I1
I0
I0
tp3267
a(I0
I0
I0
I0
I0
I1
I0
tp3268
a(I0
I0
I0
I1
I0
I0
I0
tp3269
a(I1
I0
I1
I1
I0
I1
I0
tp3270
a(I0
I0
I1
I1
I1
I0
I0
tp3271
a(I0
I0
I1
I0
I0
I0
I0
tp3272
aa(lp3273
(I0
I0
I1
I1
I0
I1
I0
tp3274
a(I1
I1
I0
I0
I1
I0
I0
tp3275
a(I0
I0
I0
I0
I0
I1
I0
tp3276
a(I0
I0
I0
I1
I0
I0
I0
tp3277
a(I0
I0
I0
I1
I0
I1
I1
tp3278
a(I0
I0
I1
I1
I1
I0
I0
tp3279
a(I0
I0
I1
I0
I0
I0
I0
tp3280
aa(lp3281
(I0
I0
I1
I1
I0
I1
I0
tp3282
a(I1
I1
I0
I0
I1
I0
I0
tp3283
a(I0
I0
I0
I0
I0
I1
I0
tp3284
a(I1
I0
I0
I1
I1
I1
I0
tp3285
a(I0
I1
I1
I1
I1
I1
I1
tp3286
a(I0
I0
I1
I1
I0
I1
I0
tp3287
a(I0
I0
I1
I0
I0
I0
I0
tp3288
aa(lp3289
(I0
I0
I1
I1
I0
I1
I0
tp3290
a(I1
I1
I0
I0
I1
I0
I0
tp3291
a(I0
I0
I0
I0
I0
I1
I0
tp3292
a(I1
I0
I1
I1
I1
I1
I0
tp3293
a(I0
I1
I0
I1
I0
I1
I0
tp3294
a(I0
I0
I1
I1
I0
I1
I0
tp3295
a(I0
I0
I1
I0
I0
I0
I0
tp3296
aa(lp3297
(I0
I0
I1
I1
I0
I1
I0
tp3298
a(I1
I1
I0
I0
I1
I0
I0
tp3299
a(I0
I0
I0
I0
I0
I1
I0
tp3300
a(I1
I0
I1
I1
I1
I0
I0
tp3301
a(I0
I1
I0
I1
I0
I1
I0
tp3302
a(I0
I0
I1
I1
I0
I1
I0
tp3303
a(I0
I0
I1
I0
I0
I0
I0
tp3304
aa(lp3305
(I0
I0
I1
I1
I0
I1
I0
tp3306
a(I1
I1
I0
I0
I1
I0
I0
tp3307
a(I0
I0
I0
I0
I0
I1
I0
tp3308
a(I1
I0
I1
I1
I1
I0
I0
tp3309
a(I0
I0
I0
I1
I0
I1
I0
tp3310
a(I0
I0
I1
I1
I0
I1
I0
tp3311
a(I0
I0
I1
I0
I0
I0
I0
tp3312
aa(lp3313
(I0
I0
I1
I1
I0
I1
I0
tp3314
a(I1
I1
I0
I1
I0
I0
I0
tp3315
a(I0
I0
I0
I0
I0
I1
I0
tp3316
a(I1
I0
I0
I1
I1
I1
I0
tp3317
a(I0
I0
I0
I1
I0
I1
I0
tp3318
a(I0
I0
I1
I1
I1
I0
I0
tp3319
a(I0
I0
I1
I0
I0
I0
I0
tp3320
aa(lp3321
(I0
I0
I1
I1
I0
I1
I0
tp3322
a(I1
I1
I0
I1
I0
I0
I0
tp3323
a(I0
I0
I0
I0
I0
I1
I0
tp3324
a(I1
I1
I0
I0
I1
I1
I1
tp3325
a(I0
I0
I0
I1
I0
I1
I1
tp3326
a(I0
I0
I1
I1
I1
I0
I0
tp3327
a(I0
I0
I1
I0
I0
I0
I0
tp3328
aa(lp3329
(I0
I0
I1
I1
I0
I1
I0
tp3330
a(I1
I1
I0
I1
I0
I0
I0
tp3331
a(I0
I0
I0
I0
I0
I1
I0
tp3332
a(I1
I1
I0
I0
I1
I1
I1
tp3333
a(I0
I0
I0
I1
I0
I1
I0
tp3334
a(I0
I0
I1
I1
I1
I0
I0
tp3335
a(I0
I0
I1
I0
I0
I0
I0
tp3336
aa(lp3337
(I0
I0
I1
I1
I0
I1
I0
tp3338
a(I1
I0
I0
I1
I0
I0
I0
tp3339
a(I0
I0
I0
I0
I0
I1
I0
tp3340
a(I1
I1
I0
I0
I1
I1
I1
tp3341
a(I0
I0
I0
I1
I0
I1
I0
tp3342
a(I0
I0
I1
I1
I1
I0
I0
tp3343
a(I0
I0
I1
I0
I0
I0
I0
tp3344
aa(lp3345
(I0
I0
I1
I1
I0
I1
I0
tp3346
a(I1
I1
I0
I0
I1
I0
I0
tp3347
a(I0
I0
I0
I0
I0
I1
I0
tp3348
a(I1
I0
I0
I0
I0
I0
I0
tp3349
a(I0
I0
I0
I1
I1
I1
I1
tp3350
a(I0
I0
I1
I1
I0
I1
I0
tp3351
a(I0
I0
I1
I0
I0
I0
I0
tp3352
aa(lp3353
(I0
I0
I1
I1
I0
I1
I0
tp3354
a(I1
I1
I1
I0
I0
I0
I0
tp3355
a(I0
I0
I0
I0
I0
I1
I0
tp3356
a(I1
I0
I1
I1
I1
I0
I0
tp3357
a(I0
I0
I0
I1
I0
I1
I1
tp3358
a(I0
I0
I1
I1
I1
I0
I0
tp3359
a(I0
I0
I1
I0
I0
I0
I0
tp3360
aa(lp3361
(I0
I0
I1
I1
I0
I1
I0
tp3362
a(I1
I1
I0
I0
I1
I0
I0
tp3363
a(I0
I0
I0
I0
I0
I1
I0
tp3364
a(I1
I1
I0
I0
I1
I0
I1
tp3365
a(I1
I1
I1
I0
I0
I1
I0
tp3366
a(I0
I0
I1
I0
I0
I1
I0
tp3367
a(I0
I0
I1
I0
I0
I0
I0
tp3368
aa(lp3369
(I0
I0
I1
I1
I0
I1
I0
tp3370
a(I1
I1
I0
I0
I1
I0
I0
tp3371
a(I0
I0
I0
I0
I0
I1
I0
tp3372
a(I1
I1
I0
I0
I1
I0
I1
tp3373
a(I1
I1
I0
I1
I1
I1
I0
tp3374
a(I0
I0
I1
I0
I0
I1
I0
tp3375
a(I0
I0
I1
I0
I0
I0
I0
tp3376
aa(lp3377
(I0
I0
I1
I1
I0
I1
I0
tp3378
a(I1
I1
I0
I0
I1
I0
I0
tp3379
a(I0
I0
I0
I0
I0
I1
I0
tp3380
a(I1
I1
I0
I0
I1
I0
I0
tp3381
a(I1
I1
I1
I1
I1
I1
I1
tp3382
a(I0
I0
I1
I0
I0
I1
I0
tp3383
a(I0
I0
I1
I0
I0
I0
I0
tp3384
aa(lp3385
(I0
I0
I1
I1
I0
I1
I0
tp3386
a(I1
I1
I0
I0
I1
I0
I0
tp3387
a(I0
I0
I0
I0
I0
I1
I0
tp3388
a(I1
I1
I0
I0
I1
I0
I0
tp3389
a(I1
I1
I0
I1
I0
I1
I0
tp3390
a(I0
I0
I1
I0
I0
I1
I0
tp3391
a(I0
I0
I1
I0
I0
I0
I0
tp3392
aa(lp3393
(I0
I0
I1
I1
I0
I1
I0
tp3394
a(I1
I1
I0
I0
I1
I0
I0
tp3395
a(I0
I0
I0
I0
I0
I1
I0
tp3396
a(I1
I1
I0
I0
I1
I0
I0
tp3397
a(I1
I1
I1
I1
I0
I1
I0
tp3398
a(I0
I0
I1
I0
I0
I1
I0
tp3399
a(I0
I0
I1
I0
I0
I0
I0
tp3400
aa(lp3401
(I0
I0
I1
I1
I0
I1
I0
tp3402
a(I1
I1
I0
I0
I1
I0
I0
tp3403
a(I0
I0
I0
I0
I0
I1
I0
tp3404
a(I1
I1
I0
I0
I1
I0
I0
tp3405
a(I1
I0
I0
I1
I0
I0
I0
tp3406
a(I0
I0
I1
I0
I0
I1
I0
tp3407
a(I0
I0
I1
I0
I0
I0
I0
tp3408
aa(lp3409
(I0
I0
I1
I1
I0
I1
I0
tp3410
a(I1
I1
I0
I0
I1
I0
I0
tp3411
a(I0
I0
I0
I0
I0
I1
I0
tp3412
a(I1
I1
I0
I0
I1
I0
I0
tp3413
a(I0
I0
I0
I1
I0
I1
I1
tp3414
a(I0
I0
I1
I0
I0
I1
I0
tp3415
a(I0
I0
I1
I0
I0
I0
I0
tp3416
aa(lp3417
(I0
I0
I1
I1
I0
I1
I0
tp3418
a(I1
I1
I0
I0
I1
I0
I0
tp3419
a(I0
I0
I0
I0
I0
I1
I0
tp3420
a(I1
I1
I0
I0
I1
I0
I0
tp3421
a(I1
I0
I0
I1
I0
I1
I1
tp3422
a(I0
I0
I1
I0
I0
I1
I0
tp3423
a(I0
I0
I1
I0
I0
I0
I0
tp3424
aa(lp3425
(I0
I0
I1
I1
I0
I1
I0
tp3426
a(I1
I1
I0
I0
I1
I0
I0
tp3427
a(I0
I0
I0
I0
I0
I1
I0
tp3428
a(I1
I1
I0
I0
I1
I0
I0
tp3429
a(I1
I0
I1
I1
I0
I1
I0
tp3430
a(I0
I0
I1
I0
I0
I1
I0
tp3431
a(I0
I0
I1
I0
I0
I0
I0
tp3432
aa(lp3433
(I0
I0
I1
I1
I0
I1
I0
tp3434
a(I1
I1
I0
I0
I1
I0
I0
tp3435
a(I0
I0
I0
I0
I0
I1
I0
tp3436
a(I0
I1
I0
I1
I1
I0
I0
tp3437
a(I1
I1
I1
I0
I1
I1
I0
tp3438
a(I0
I0
I1
I0
I0
I1
I0
tp3439
a(I0
I0
I1
I0
I0
I0
I0
tp3440
aa(lp3441
(I0
I0
I1
I1
I0
I1
I0
tp3442
a(I1
I1
I0
I0
I1
I0
I0
tp3443
a(I0
I0
I0
I0
I0
I1
I0
tp3444
a(I1
I0
I0
I0
I1
I0
I0
tp3445
a(I0
I0
I0
I1
I1
I0
I0
tp3446
a(I0
I0
I1
I0
I0
I1
I0
tp3447
a(I0
I0
I1
I0
I0
I0
I0
tp3448
aa(lp3449
(I0
I0
I1
I1
I0
I1
I0
tp3450
a(I1
I1
I0
I0
I1
I0
I0
tp3451
a(I0
I0
I0
I0
I0
I1
I0
tp3452
a(I1
I0
I0
I0
I1
I0
I0
tp3453
a(I0
I0
I0
I1
I0
I1
I0
tp3454
a(I0
I0
I1
I0
I0
I1
I0
tp3455
a(I0
I0
I1
I0
I0
I0
I0
tp3456
aa(lp3457
(I0
I0
I1
I1
I0
I1
I0
tp3458
a(I1
I1
I0
I0
I1
I0
I0
tp3459
a(I0
I0
I0
I0
I0
I1
I0
tp3460
a(I1
I0
I0
I0
I1
I0
I0
tp3461
a(I1
I1
I0
I1
I0
I1
I0
tp3462
a(I0
I0
I1
I0
I0
I1
I0
tp3463
a(I0
I0
I1
I0
I0
I0
I0
tp3464
aa(lp3465
(I0
I0
I1
I1
I0
I1
I0
tp3466
a(I1
I1
I0
I0
I1
I0
I0
tp3467
a(I0
I0
I0
I0
I0
I1
I0
tp3468
a(I1
I0
I0
I1
I0
I0
I0
tp3469
a(I0
I0
I0
I1
I0
I1
I1
tp3470
a(I0
I0
I1
I0
I0
I1
I0
tp3471
a(I0
I0
I1
I0
I0
I0
I0
tp3472
aa(lp3473
(I0
I0
I1
I1
I0
I1
I0
tp3474
a(I1
I1
I0
I0
I1
I0
I0
tp3475
a(I0
I0
I0
I0
I0
I1
I0
tp3476
a(I1
I0
I0
I1
I0
I0
I0
tp3477
a(I0
I0
I0
I1
I1
I1
I1
tp3478
a(I0
I0
I1
I0
I0
I1
I0
tp3479
a(I0
I0
I1
I0
I0
I0
I0
tp3480
aa(lp3481
(I0
I0
I1
I1
I0
I1
I0
tp3482
a(I1
I1
I0
I0
I1
I0
I0
tp3483
a(I0
I0
I0
I0
I0
I1
I0
tp3484
a(I1
I0
I0
I1
I0
I0
I0
tp3485
a(I0
I1
I0
I1
I1
I1
I1
tp3486
a(I0
I0
I1
I0
I0
I1
I0
tp3487
a(I0
I0
I1
I0
I0
I0
I0
tp3488
aa(lp3489
(I0
I0
I1
I1
I0
I1
I0
tp3490
a(I1
I1
I0
I0
I1
I0
I0
tp3491
a(I0
I0
I0
I0
I0
I1
I0
tp3492
a(I1
I0
I0
I1
I0
I0
I0
tp3493
a(I0
I0
I0
I1
I0
I1
I0
tp3494
a(I0
I0
I1
I0
I0
I1
I0
tp3495
a(I0
I0
I1
I0
I0
I0
I0
tp3496
aa(lp3497
(I0
I0
I1
I1
I0
I1
I0
tp3498
a(I1
I1
I0
I0
I1
I0
I0
tp3499
a(I0
I0
I0
I0
I0
I1
I0
tp3500
a(I1
I1
I1
I0
I0
I0
I0
tp3501
a(I0
I0
I0
I1
I0
I1
I1
tp3502
a(I0
I0
I1
I0
I0
I1
I0
tp3503
a(I0
I0
I1
I0
I0
I0
I0
tp3504
aa(lp3505
(I0
I0
I1
I1
I0
I1
I0
tp3506
a(I1
I1
I0
I0
I1
I0
I0
tp3507
a(I0
I0
I0
I0
I0
I1
I0
tp3508
a(I1
I0
I0
I0
I0
I0
I0
tp3509
a(I0
I0
I0
I1
I0
I1
I0
tp3510
a(I0
I0
I1
I0
I0
I1
I0
tp3511
a(I0
I0
I1
I0
I0
I0
I0
tp3512
aa(lp3513
(I0
I0
I1
I1
I0
I1
I0
tp3514
a(I1
I1
I0
I0
I1
I0
I0
tp3515
a(I0
I0
I0
I0
I0
I1
I0
tp3516
a(I0
I1
I1
I1
I0
I0
I0
tp3517
a(I1
I0
I1
I1
I0
I1
I0
tp3518
a(I0
I0
I1
I0
I0
I1
I0
tp3519
a(I0
I0
I1
I0
I0
I0
I0
tp3520
aa(lp3521
(I0
I0
I1
I1
I0
I1
I0
tp3522
a(I1
I1
I0
I0
I1
I0
I0
tp3523
a(I0
I0
I0
I0
I0
I1
I0
tp3524
a(I0
I0
I0
I1
I0
I0
I0
tp3525
a(I1
I0
I1
I1
I0
I1
I0
tp3526
a(I0
I0
I1
I0
I0
I1
I0
tp3527
a(I0
I0
I1
I0
I0
I0
I0
tp3528
aa(lp3529
(I0
I0
I1
I1
I0
I1
I0
tp3530
a(I1
I1
I0
I0
I1
I0
I0
tp3531
a(I0
I0
I0
I0
I0
I1
I0
tp3532
a(I0
I0
I0
I1
I0
I0
I0
tp3533
a(I0
I0
I0
I1
I0
I1
I0
tp3534
a(I0
I0
I1
I0
I0
I1
I0
tp3535
a(I0
I0
I1
I0
I0
I0
I0
tp3536
aa(lp3537
(I0
I0
I1
I1
I0
I1
I0
tp3538
a(I1
I1
I0
I0
I1
I0
I0
tp3539
a(I0
I0
I0
I0
I0
I1
I0
tp3540
a(I0
I0
I0
I1
I0
I0
I0
tp3541
a(I1
I0
I0
I1
I0
I1
I0
tp3542
a(I0
I0
I1
I0
I0
I1
I0
tp3543
a(I0
I0
I1
I0
I0
I0
I0
tp3544
aa(lp3545
(I0
I0
I1
I1
I0
I1
I0
tp3546
a(I1
I1
I0
I0
I1
I0
I0
tp3547
a(I0
I0
I0
I0
I0
I1
I0
tp3548
a(I0
I0
I0
I1
I0
I0
I0
tp3549
a(I1
I1
I0
I1
I0
I1
I0
tp3550
a(I0
I0
I1
I0
I0
I1
I0
tp3551
a(I0
I0
I1
I0
I0
I0
I0
tp3552
aa(lp3553
(I0
I0
I1
I1
I0
I1
I0
tp3554
a(I1
I1
I0
I0
I1
I0
I0
tp3555
a(I0
I0
I0
I0
I0
I1
I0
tp3556
a(I0
I1
I0
I0
I0
I0
I0
tp3557
a(I1
I1
I0
I1
I1
I1
I1
tp3558
a(I0
I0
I1
I0
I0
I1
I0
tp3559
a(I0
I0
I1
I0
I0
I0
I0
tp3560
aa(lp3561
(I0
I0
I1
I1
I0
I1
I0
tp3562
a(I1
I1
I0
I0
I1
I0
I0
tp3563
a(I0
I0
I0
I0
I0
I1
I0
tp3564
a(I0
I1
I0
I0
I0
I0
I0
tp3565
a(I0
I0
I0
I0
I0
I1
I0
tp3566
a(I0
I0
I1
I0
I0
I1
I0
tp3567
a(I0
I0
I1
I0
I0
I0
I0
tp3568
aa(lp3569
(I0
I0
I1
I1
I0
I1
I0
tp3570
a(I1
I1
I0
I0
I0
I0
I0
tp3571
a(I0
I0
I0
I0
I0
I1
I0
tp3572
a(I0
I1
I0
I1
I1
I0
I0
tp3573
a(I1
I1
I1
I0
I1
I1
I0
tp3574
a(I0
I0
I1
I1
I0
I1
I0
tp3575
a(I0
I0
I1
I0
I0
I0
I0
tp3576
aa(lp3577
(I0
I0
I1
I1
I0
I1
I0
tp3578
a(I1
I1
I1
I0
I0
I0
I0
tp3579
a(I0
I0
I0
I0
I0
I1
I0
tp3580
a(I1
I1
I0
I0
I1
I0
I0
tp3581
a(I1
I1
I1
I1
I1
I1
I0
tp3582
a(I0
I0
I1
I0
I0
I1
I0
tp3583
a(I0
I0
I1
I0
I0
I0
I0
tp3584
aa(lp3585
(I0
I0
I1
I1
I0
I1
I0
tp3586
a(I1
I0
I0
I0
I0
I0
I0
tp3587
a(I0
I0
I0
I0
I0
I1
I0
tp3588
a(I1
I1
I0
I0
I1
I0
I1
tp3589
a(I1
I1
I0
I1
I1
I1
I0
tp3590
a(I0
I0
I1
I0
I0
I1
I0
tp3591
a(I0
I0
I1
I0
I0
I0
I0
tp3592
aa(lp3593
(I0
I0
I1
I1
I0
I1
I0
tp3594
a(I1
I0
I0
I0
I0
I0
I0
tp3595
a(I0
I0
I0
I0
I0
I1
I0
tp3596
a(I1
I1
I0
I0
I1
I0
I1
tp3597
a(I1
I1
I0
I1
I1
I1
I1
tp3598
a(I0
I0
I1
I0
I0
I1
I0
tp3599
a(I0
I0
I1
I0
I0
I0
I0
tp3600
aa(lp3601
(I0
I0
I1
I1
I0
I1
I0
tp3602
a(I1
I1
I0
I1
I0
I0
I0
tp3603
a(I0
I0
I0
I0
I0
I1
I0
tp3604
a(I1
I1
I0
I0
I0
I0
I0
tp3605
a(I1
I1
I0
I1
I0
I1
I1
tp3606
a(I0
I0
I1
I0
I0
I1
I0
tp3607
a(I0
I0
I1
I0
I0
I0
I0
tp3608
aa(lp3609
(I0
I0
I1
I1
I0
I1
I0
tp3610
a(I1
I0
I0
I0
I0
I0
I0
tp3611
a(I0
I0
I0
I0
I0
I1
I0
tp3612
a(I1
I1
I0
I0
I1
I0
I0
tp3613
a(I0
I1
I0
I1
I0
I1
I1
tp3614
a(I0
I0
I1
I0
I0
I1
I0
tp3615
a(I0
I0
I1
I0
I0
I0
I0
tp3616
aa(lp3617
(I0
I0
I1
I1
I0
I1
I0
tp3618
a(I1
I0
I0
I0
I0
I0
I0
tp3619
a(I0
I0
I0
I0
I0
I1
I0
tp3620
a(I1
I1
I0
I0
I1
I0
I0
tp3621
a(I1
I1
I1
I1
I0
I1
I1
tp3622
a(I0
I0
I1
I0
I0
I1
I0
tp3623
a(I0
I0
I1
I0
I0
I0
I0
tp3624
aa(lp3625
(I0
I0
I1
I1
I0
I1
I0
tp3626
a(I1
I0
I0
I0
I0
I0
I0
tp3627
a(I0
I0
I0
I0
I0
I1
I0
tp3628
a(I1
I1
I0
I0
I1
I0
I0
tp3629
a(I1
I1
I1
I1
I0
I1
I0
tp3630
a(I0
I0
I1
I0
I0
I1
I0
tp3631
a(I0
I0
I1
I0
I0
I0
I0
tp3632
aa(lp3633
(I0
I0
I1
I1
I0
I1
I0
tp3634
a(I1
I0
I0
I0
I0
I0
I0
tp3635
a(I0
I0
I0
I0
I0
I1
I0
tp3636
a(I1
I1
I0
I0
I1
I0
I0
tp3637
a(I1
I1
I1
I1
I1
I1
I0
tp3638
a(I0
I0
I1
I0
I0
I1
I0
tp3639
a(I0
I0
I1
I0
I0
I0
I0
tp3640
aa(lp3641
(I0
I0
I1
I1
I0
I1
I0
tp3642
a(I1
I0
I0
I0
I0
I0
I0
tp3643
a(I0
I0
I0
I0
I0
I1
I0
tp3644
a(I1
I1
I0
I0
I1
I0
I0
tp3645
a(I1
I1
I0
I1
I1
I1
I0
tp3646
a(I0
I0
I1
I0
I0
I1
I0
tp3647
a(I0
I0
I1
I0
I0
I0
I0
tp3648
aa(lp3649
(I0
I0
I1
I1
I0
I1
I0
tp3650
a(I1
I0
I0
I0
I0
I0
I0
tp3651
a(I0
I0
I0
I0
I0
I1
I0
tp3652
a(I1
I1
I0
I0
I1
I0
I0
tp3653
a(I1
I0
I0
I1
I0
I1
I0
tp3654
a(I0
I0
I1
I0
I0
I1
I0
tp3655
a(I0
I0
I1
I0
I0
I0
I0
tp3656
aa(lp3657
(I0
I0
I1
I1
I0
I1
I0
tp3658
a(I1
I0
I0
I0
I0
I0
I0
tp3659
a(I0
I0
I0
I0
I0
I1
I0
tp3660
a(I1
I1
I0
I0
I1
I0
I0
tp3661
a(I1
I0
I0
I1
I0
I0
I0
tp3662
a(I0
I0
I1
I0
I0
I1
I0
tp3663
a(I0
I0
I1
I0
I0
I0
I0
tp3664
aa(lp3665
(I0
I0
I1
I1
I0
I1
I0
tp3666
a(I1
I0
I0
I0
I0
I0
I0
tp3667
a(I0
I0
I0
I0
I0
I1
I0
tp3668
a(I1
I1
I0
I0
I1
I0
I0
tp3669
a(I0
I0
I0
I1
I0
I1
I1
tp3670
a(I0
I0
I1
I0
I0
I1
I0
tp3671
a(I0
I0
I1
I0
I0
I0
I0
tp3672
aa(lp3673
(I0
I0
I1
I1
I0
I1
I0
tp3674
a(I1
I0
I0
I0
I0
I0
I0
tp3675
a(I0
I0
I0
I0
I0
I1
I0
tp3676
a(I1
I1
I0
I0
I1
I0
I0
tp3677
a(I1
I0
I0
I1
I0
I1
I1
tp3678
a(I0
I0
I1
I0
I0
I1
I0
tp3679
a(I0
I0
I1
I0
I0
I0
I0
tp3680
aa(lp3681
(I0
I0
I1
I1
I0
I1
I0
tp3682
a(I1
I0
I0
I0
I0
I0
I0
tp3683
a(I0
I0
I0
I0
I0
I1
I0
tp3684
a(I1
I1
I0
I0
I1
I0
I0
tp3685
a(I0
I0
I0
I1
I0
I1
I0
tp3686
a(I0
I0
I1
I0
I0
I1
I0
tp3687
a(I0
I0
I1
I0
I0
I0
I0
tp3688
aa(lp3689
(I0
I0
I1
I1
I0
I1
I0
tp3690
a(I1
I0
I0
I0
I0
I0
I0
tp3691
a(I0
I0
I0
I0
I0
I1
I0
tp3692
a(I1
I1
I0
I0
I1
I0
I0
tp3693
a(I1
I0
I1
I1
I0
I1
I0
tp3694
a(I0
I0
I1
I0
I0
I1
I0
tp3695
a(I0
I0
I1
I0
I0
I0
I0
tp3696
aa(lp3697
(I0
I0
I1
I1
I0
I1
I0
tp3698
a(I1
I0
I0
I0
I0
I0
I0
tp3699
a(I0
I0
I0
I0
I0
I1
I0
tp3700
a(I1
I1
I0
I0
I1
I0
I0
tp3701
a(I0
I0
I1
I1
I0
I1
I0
tp3702
a(I0
I0
I1
I0
I0
I1
I0
tp3703
a(I0
I0
I1
I0
I0
I0
I0
tp3704
aa(lp3705
(I0
I0
I1
I1
I0
I1
I0
tp3706
a(I1
I0
I0
I0
I0
I0
I0
tp3707
a(I0
I0
I0
I0
I0
I1
I0
tp3708
a(I0
I1
I0
I1
I1
I0
I0
tp3709
a(I0
I0
I1
I1
I0
I0
I0
tp3710
a(I0
I0
I1
I0
I0
I1
I0
tp3711
a(I0
I0
I1
I0
I0
I0
I0
tp3712
aa(lp3713
(I0
I0
I1
I1
I0
I1
I0
tp3714
a(I1
I0
I0
I0
I0
I0
I0
tp3715
a(I0
I0
I0
I0
I0
I1
I0
tp3716
a(I0
I1
I0
I1
I1
I0
I0
tp3717
a(I1
I1
I1
I0
I1
I1
I0
tp3718
a(I0
I0
I1
I0
I0
I1
I0
tp3719
a(I0
I0
I1
I0
I0
I0
I0
tp3720
aa(lp3721
(I0
I0
I1
I1
I0
I1
I0
tp3722
a(I1
I1
I0
I0
I0
I0
I0
tp3723
a(I0
I0
I0
I0
I0
I1
I0
tp3724
a(I1
I0
I0
I1
I0
I0
I0
tp3725
a(I0
I0
I1
I1
I0
I0
I0
tp3726
a(I0
I0
I1
I0
I0
I1
I0
tp3727
a(I0
I0
I1
I0
I0
I0
I0
tp3728
aa(lp3729
(I0
I0
I1
I1
I0
I1
I0
tp3730
a(I1
I1
I0
I0
I0
I0
I0
tp3731
a(I0
I0
I0
I0
I0
I1
I0
tp3732
a(I1
I0
I0
I1
I0
I0
I0
tp3733
a(I1
I0
I0
I1
I0
I1
I0
tp3734
a(I0
I0
I1
I0
I0
I1
I0
tp3735
a(I0
I0
I1
I0
I0
I0
I0
tp3736
aa(lp3737
(I0
I0
I1
I1
I0
I1
I0
tp3738
a(I1
I1
I0
I0
I0
I0
I0
tp3739
a(I0
I0
I0
I0
I0
I1
I0
tp3740
a(I1
I0
I0
I0
I0
I0
I0
tp3741
a(I1
I1
I0
I1
I1
I1
I1
tp3742
a(I0
I0
I1
I0
I0
I1
I0
tp3743
a(I0
I0
I1
I0
I0
I0
I0
tp3744
aa(lp3745
(I0
I0
I1
I1
I0
I1
I0
tp3746
a(I1
I0
I0
I0
I0
I0
I0
tp3747
a(I0
I0
I0
I0
I0
I1
I0
tp3748
a(I1
I1
I0
I1
I0
I0
I0
tp3749
a(I0
I1
I0
I1
I1
I1
I0
tp3750
a(I0
I0
I1
I0
I0
I1
I0
tp3751
a(I0
I0
I1
I0
I0
I0
I0
tp3752
aa(lp3753
(I0
I0
I1
I1
I0
I1
I0
tp3754
a(I1
I0
I0
I0
I0
I0
I0
tp3755
a(I0
I0
I0
I0
I0
I1
I0
tp3756
a(I1
I0
I0
I1
I0
I0
I0
tp3757
a(I0
I0
I1
I1
I0
I0
I0
tp3758
a(I0
I0
I1
I0
I0
I1
I0
tp3759
a(I0
I0
I1
I0
I0
I0
I0
tp3760
aa(lp3761
(I0
I0
I1
I1
I0
I1
I0
tp3762
a(I1
I0
I0
I0
I0
I0
I0
tp3763
a(I0
I0
I0
I0
I0
I1
I0
tp3764
a(I1
I0
I0
I1
I0
I0
I0
tp3765
a(I1
I1
I1
I0
I0
I1
I0
tp3766
a(I0
I0
I1
I0
I0
I1
I0
tp3767
a(I0
I0
I1
I0
I0
I0
I0
tp3768
aa(lp3769
(I0
I0
I1
I1
I0
I1
I0
tp3770
a(I1
I0
I0
I0
I0
I0
I0
tp3771
a(I0
I0
I0
I0
I0
I1
I0
tp3772
a(I1
I0
I0
I1
I0
I0
I0
tp3773
a(I0
I0
I0
I1
I0
I1
I0
tp3774
a(I0
I0
I1
I0
I0
I1
I0
tp3775
a(I0
I0
I1
I0
I0
I0
I0
tp3776
aa(lp3777
(I0
I0
I1
I1
I0
I1
I0
tp3778
a(I1
I0
I0
I0
I0
I0
I0
tp3779
a(I0
I0
I0
I0
I0
I1
I0
tp3780
a(I1
I0
I0
I0
I0
I0
I0
tp3781
a(I1
I1
I0
I1
I0
I1
I0
tp3782
a(I0
I0
I1
I0
I0
I1
I0
tp3783
a(I0
I0
I1
I0
I0
I0
I0
tp3784
aa(lp3785
(I0
I0
I1
I1
I0
I1
I0
tp3786
a(I1
I0
I0
I0
I0
I0
I0
tp3787
a(I0
I0
I0
I0
I0
I1
I0
tp3788
a(I1
I0
I0
I0
I0
I0
I0
tp3789
a(I1
I1
I1
I1
I1
I1
I0
tp3790
a(I0
I0
I1
I0
I0
I1
I0
tp3791
a(I0
I0
I1
I0
I0
I0
I0
tp3792
aa(lp3793
(I0
I0
I1
I1
I0
I1
I0
tp3794
a(I1
I0
I0
I0
I0
I0
I0
tp3795
a(I0
I0
I0
I0
I0
I1
I0
tp3796
a(I1
I0
I0
I0
I0
I0
I0
tp3797
a(I1
I1
I1
I1
I0
I1
I0
tp3798
a(I0
I0
I1
I0
I0
I1
I0
tp3799
a(I0
I0
I1
I0
I0
I0
I0
tp3800
aa(lp3801
(I0
I0
I1
I1
I0
I1
I0
tp3802
a(I1
I0
I0
I0
I0
I0
I0
tp3803
a(I0
I0
I0
I0
I0
I1
I0
tp3804
a(I0
I0
I0
I1
I0
I0
I0
tp3805
a(I1
I1
I0
I1
I0
I1
I1
tp3806
a(I0
I0
I1
I0
I0
I1
I0
tp3807
a(I0
I0
I1
I0
I0
I0
I0
tp3808
aa(lp3809
(I0
I0
I1
I1
I0
I1
I0
tp3810
a(I1
I0
I0
I0
I0
I0
I0
tp3811
a(I0
I0
I0
I0
I0
I1
I0
tp3812
a(I0
I0
I0
I1
I0
I0
I0
tp3813
a(I0
I0
I0
I1
I0
I1
I0
tp3814
a(I0
I0
I1
I0
I0
I1
I0
tp3815
a(I0
I0
I1
I0
I0
I0
I0
tp3816
aa(lp3817
(I0
I0
I1
I1
I0
I1
I0
tp3818
a(I1
I0
I0
I0
I0
I0
I0
tp3819
a(I0
I0
I0
I0
I0
I1
I0
tp3820
a(I0
I0
I0
I1
I0
I0
I0
tp3821
a(I1
I1
I0
I1
I0
I1
I0
tp3822
a(I0
I0
I1
I0
I0
I1
I0
tp3823
a(I0
I0
I1
I0
I0
I0
I0
tp3824
aa(lp3825
(I0
I0
I1
I1
I0
I1
I0
tp3826
a(I1
I0
I0
I0
I0
I0
I0
tp3827
a(I0
I0
I0
I0
I0
I1
I0
tp3828
a(I0
I1
I0
I0
I0
I0
I0
tp3829
a(I0
I0
I0
I1
I0
I1
I0
tp3830
a(I0
I0
I1
I0
I0
I1
I0
tp3831
a(I0
I0
I1
I0
I0
I0
I0
tp3832
aa(lp3833
(I0
I0
I1
I1
I0
I1
I0
tp3834
a(I1
I0
I0
I0
I0
I0
I0
tp3835
a(I0
I0
I0
I0
I0
I1
I0
tp3836
a(I0
I1
I0
I0
I0
I0
I0
tp3837
a(I0
I0
I0
I0
I0
I1
I0
tp3838
a(I0
I0
I1
I0
I0
I1
I0
tp3839
a(I0
I0
I1
I0
I0
I0
I0
tp3840
aa(lp3841
(I0
I0
I1
I1
I0
I1
I0
tp3842
a(I1
I0
I0
I0
I0
I0
I0
tp3843
a(I0
I0
I0
I0
I0
I1
I0
tp3844
a(I1
I1
I0
I1
I0
I0
I0
tp3845
a(I0
I0
I0
I1
I0
I1
I1
tp3846
a(I0
I0
I1
I1
I0
I0
I0
tp3847
a(I0
I0
I1
I0
I0
I0
I0
tp3848
aa(lp3849
(I0
I0
I1
I1
I0
I1
I0
tp3850
a(I1
I0
I0
I0
I0
I0
I0
tp3851
a(I0
I0
I0
I0
I0
I1
I0
tp3852
a(I1
I1
I0
I1
I0
I0
I0
tp3853
a(I1
I1
I0
I1
I0
I1
I0
tp3854
a(I0
I0
I1
I1
I0
I0
I0
tp3855
a(I0
I0
I1
I0
I0
I0
I0
tp3856
aa(lp3857
(I0
I0
I1
I1
I0
I1
I0
tp3858
a(I1
I0
I0
I0
I0
I0
I0
tp3859
a(I0
I0
I0
I0
I0
I1
I0
tp3860
a(I1
I0
I0
I0
I0
I0
I0
tp3861
a(I0
I1
I1
I0
I0
I1
I1
tp3862
a(I0
I0
I1
I1
I0
I0
I0
tp3863
a(I0
I0
I1
I0
I0
I0
I0
tp3864
aa(lp3865
(I0
I0
I1
I1
I0
I1
I0
tp3866
a(I1
I0
I0
I0
I0
I0
I0
tp3867
a(I0
I0
I0
I0
I0
I1
I0
tp3868
a(I1
I0
I0
I0
I0
I0
I0
tp3869
a(I0
I1
I0
I1
I0
I1
I1
tp3870
a(I0
I0
I1
I1
I0
I0
I0
tp3871
a(I0
I0
I1
I0
I0
I0
I0
tp3872
aa(lp3873
(I0
I0
I1
I1
I0
I1
I0
tp3874
a(I1
I0
I0
I0
I0
I0
I0
tp3875
a(I0
I0
I0
I0
I0
I1
I0
tp3876
a(I1
I0
I0
I0
I0
I0
I0
tp3877
a(I0
I0
I0
I0
I0
I1
I1
tp3878
a(I0
I0
I1
I1
I0
I0
I0
tp3879
a(I0
I0
I1
I0
I0
I0
I0
tp3880
aa(lp3881
(I0
I0
I1
I1
I0
I1
I0
tp3882
a(I1
I0
I0
I0
I0
I0
I0
tp3883
a(I0
I0
I0
I0
I0
I1
I0
tp3884
a(I0
I1
I1
I1
I0
I0
I0
tp3885
a(I1
I1
I1
I1
I0
I1
I0
tp3886
a(I0
I0
I1
I1
I0
I0
I0
tp3887
a(I0
I0
I1
I0
I0
I0
I0
tp3888
aa(lp3889
(I0
I0
I1
I0
I0
I1
I0
tp3890
a(I1
I0
I0
I0
I0
I0
I0
tp3891
a(I0
I0
I0
I0
I0
I1
I0
tp3892
a(I1
I1
I0
I0
I1
I0
I0
tp3893
a(I1
I1
I1
I1
I0
I1
I0
tp3894
a(I0
I0
I1
I0
I0
I1
I0
tp3895
a(I0
I0
I1
I0
I0
I0
I0
tp3896
aa(lp3897
(I0
I0
I1
I0
I0
I1
I0
tp3898
a(I1
I0
I0
I0
I0
I0
I0
tp3899
a(I0
I0
I0
I0
I0
I1
I0
tp3900
a(I1
I1
I0
I0
I1
I0
I0
tp3901
a(I1
I0
I0
I1
I1
I1
I1
tp3902
a(I0
I0
I1
I0
I0
I1
I0
tp3903
a(I0
I0
I1
I0
I0
I0
I0
tp3904
aa(lp3905
(I0
I0
I1
I0
I0
I1
I0
tp3906
a(I1
I0
I0
I0
I0
I0
I0
tp3907
a(I0
I0
I0
I0
I0
I1
I0
tp3908
a(I1
I1
I0
I0
I1
I0
I0
tp3909
a(I0
I1
I0
I1
I1
I1
I0
tp3910
a(I0
I0
I1
I0
I0
I1
I0
tp3911
a(I0
I0
I1
I0
I0
I0
I0
tp3912
aa(lp3913
(I0
I0
I1
I0
I0
I1
I0
tp3914
a(I1
I0
I0
I0
I0
I0
I0
tp3915
a(I0
I0
I0
I0
I0
I1
I0
tp3916
a(I1
I1
I0
I0
I1
I0
I0
tp3917
a(I1
I1
I1
I1
I1
I1
I1
tp3918
a(I0
I0
I1
I0
I0
I1
I0
tp3919
a(I0
I0
I1
I0
I0
I0
I0
tp3920
aa(lp3921
(I0
I0
I1
I0
I0
I1
I0
tp3922
a(I1
I0
I0
I0
I0
I0
I0
tp3923
a(I0
I0
I0
I0
I0
I1
I0
tp3924
a(I1
I1
I0
I0
I1
I0
I0
tp3925
a(I1
I0
I0
I1
I0
I1
I1
tp3926
a(I0
I0
I1
I0
I0
I1
I0
tp3927
a(I0
I0
I1
I0
I0
I0
I0
tp3928
aa(lp3929
(I0
I0
I1
I0
I0
I1
I0
tp3930
a(I1
I0
I0
I0
I0
I0
I0
tp3931
a(I0
I0
I0
I0
I0
I1
I0
tp3932
a(I1
I1
I0
I0
I1
I0
I0
tp3933
a(I0
I0
I0
I1
I0
I1
I1
tp3934
a(I0
I0
I1
I0
I0
I1
I0
tp3935
a(I0
I0
I1
I0
I0
I0
I0
tp3936
aa(lp3937
(I0
I0
I1
I0
I0
I1
I0
tp3938
a(I1
I0
I0
I0
I0
I0
I0
tp3939
a(I0
I0
I0
I0
I0
I1
I0
tp3940
a(I1
I1
I0
I0
I1
I0
I0
tp3941
a(I1
I0
I1
I1
I0
I1
I0
tp3942
a(I0
I0
I1
I0
I0
I1
I0
tp3943
a(I0
I0
I1
I0
I0
I0
I0
tp3944
aa(lp3945
(I0
I0
I1
I0
I0
I1
I0
tp3946
a(I1
I0
I0
I0
I0
I0
I0
tp3947
a(I0
I0
I0
I0
I0
I1
I0
tp3948
a(I0
I1
I0
I1
I1
I0
I0
tp3949
a(I0
I1
I0
I1
I1
I1
I0
tp3950
a(I0
I0
I1
I0
I0
I1
I0
tp3951
a(I0
I0
I1
I0
I0
I0
I0
tp3952
aa(lp3953
(I0
I0
I1
I0
I0
I1
I0
tp3954
a(I1
I0
I0
I0
I0
I0
I0
tp3955
a(I0
I0
I0
I0
I0
I1
I0
tp3956
a(I0
I1
I0
I1
I1
I0
I0
tp3957
a(I1
I1
I0
I1
I0
I1
I1
tp3958
a(I0
I0
I1
I0
I0
I1
I0
tp3959
a(I0
I0
I1
I0
I0
I0
I0
tp3960
aa(lp3961
(I0
I0
I1
I0
I0
I1
I0
tp3962
a(I1
I1
I0
I0
I0
I0
I0
tp3963
a(I0
I0
I0
I0
I0
I1
I0
tp3964
a(I1
I0
I0
I1
I0
I0
I0
tp3965
a(I1
I1
I1
I1
I0
I1
I0
tp3966
a(I0
I0
I1
I0
I0
I1
I0
tp3967
a(I0
I0
I1
I0
I0
I0
I0
tp3968
aa(lp3969
(I0
I0
I1
I0
I0
I1
I0
tp3970
a(I1
I1
I0
I0
I0
I0
I0
tp3971
a(I0
I0
I0
I0
I0
I1
I0
tp3972
a(I1
I0
I0
I1
I0
I0
I0
tp3973
a(I1
I0
I0
I1
I0
I1
I0
tp3974
a(I0
I0
I1
I0
I0
I1
I0
tp3975
a(I0
I0
I1
I0
I0
I0
I0
tp3976
aa(lp3977
(I0
I0
I1
I0
I0
I1
I0
tp3978
a(I1
I0
I0
I0
I0
I0
I0
tp3979
a(I0
I0
I0
I0
I0
I1
I0
tp3980
a(I1
I0
I0
I0
I0
I0
I0
tp3981
a(I0
I0
I0
I1
I1
I1
I1
tp3982
a(I0
I0
I1
I0
I0
I1
I0
tp3983
a(I0
I0
I1
I0
I0
I0
I0
tp3984
aa(lp3985
(I0
I0
I1
I0
I0
I1
I0
tp3986
a(I1
I0
I0
I0
I0
I0
I0
tp3987
a(I0
I0
I0
I0
I0
I1
I0
tp3988
a(I0
I0
I0
I1
I0
I0
I0
tp3989
a(I1
I1
I0
I1
I0
I1
I1
tp3990
a(I0
I0
I1
I0
I0
I1
I0
tp3991
a(I0
I0
I1
I0
I0
I0
I0
tp3992
aa(lp3993
(I0
I0
I1
I0
I0
I1
I0
tp3994
a(I1
I0
I0
I0
I0
I0
I0
tp3995
a(I0
I0
I0
I0
I0
I1
I0
tp3996
a(I0
I0
I0
I1
I0
I0
I0
tp3997
a(I1
I0
I1
I1
I0
I1
I0
tp3998
a(I0
I0
I1
I0
I0
I1
I0
tp3999
a(I0
I0
I1
I0
I0
I0
I0
tp4000
aa(lp4001
(I0
I0
I1
I0
I0
I1
I0
tp4002
a(I1
I0
I0
I0
I0
I0
I0
tp4003
a(I0
I0
I0
I0
I0
I1
I0
tp4004
a(I0
I0
I0
I1
I0
I0
I0
tp4005
a(I0
I0
I0
I1
I0
I1
I0
tp4006
a(I0
I0
I1
I0
I0
I1
I0
tp4007
a(I0
I0
I1
I0
I0
I0
I0
tp4008
aa(lp4009
(I0
I0
I1
I0
I0
I1
I0
tp4010
a(I1
I0
I0
I0
I0
I0
I0
tp4011
a(I0
I0
I0
I0
I0
I1
I0
tp4012
a(I0
I0
I0
I1
I0
I0
I0
tp4013
a(I1
I0
I0
I1
I0
I1
I1
tp4014
a(I0
I0
I1
I0
I0
I1
I0
tp4015
a(I0
I0
I1
I0
I0
I0
I0
tp4016
aa(lp4017
(I0
I0
I1
I0
I0
I1
I0
tp4018
a(I1
I0
I0
I0
I0
I0
I0
tp4019
a(I0
I0
I0
I0
I0
I1
I0
tp4020
a(I0
I0
I0
I1
I0
I0
I0
tp4021
a(I1
I1
I0
I1
I0
I1
I0
tp4022
a(I0
I0
I1
I0
I0
I1
I0
tp4023
a(I0
I0
I1
I0
I0
I0
I0
tp4024
aa(lp4025
(I0
I0
I1
I1
I0
I0
I0
tp4026
a(I1
I0
I0
I0
I0
I0
I0
tp4027
a(I0
I0
I0
I0
I0
I1
I0
tp4028
a(I1
I0
I0
I1
I0
I0
I0
tp4029
a(I1
I1
I1
I1
I1
I1
I1
tp4030
a(I0
I0
I1
I0
I0
I1
I0
tp4031
a(I0
I0
I1
I0
I0
I0
I0
tp4032
aa(lp4033
(I0
I0
I1
I0
I0
I0
I0
tp4034
a(I1
I1
I1
I0
I0
I0
I0
tp4035
a(I0
I0
I0
I0
I0
I1
I0
tp4036
a(I1
I1
I0
I0
I1
I0
I0
tp4037
a(I1
I1
I1
I1
I0
I1
I0
tp4038
a(I0
I0
I1
I0
I0
I1
I0
tp4039
a(I0
I0
I1
I0
I0
I0
I0
tp4040
aa(lp4041
(I0
I0
I1
I1
I0
I0
I0
tp4042
a(I1
I0
I0
I0
I0
I0
I0
tp4043
a(I0
I0
I0
I0
I0
I1
I0
tp4044
a(I0
I0
I0
I0
I1
I0
I0
tp4045
a(I1
I0
I0
I1
I0
I1
I0
tp4046
a(I0
I0
I1
I0
I0
I1
I0
tp4047
a(I0
I0
I1
I0
I0
I0
I0
tp4048
aa(lp4049
(I0
I0
I1
I1
I0
I0
I0
tp4050
a(I1
I0
I0
I0
I0
I0
I0
tp4051
a(I0
I0
I0
I0
I0
I1
I0
tp4052
a(I0
I0
I0
I0
I1
I0
I0
tp4053
a(I1
I0
I0
I1
I0
I1
I1
tp4054
a(I0
I0
I1
I0
I0
I1
I0
tp4055
a(I0
I0
I1
I0
I0
I0
I0
tp4056
aa(lp4057
(I0
I0
I1
I0
I0
I0
I0
tp4058
a(I1
I0
I0
I0
I0
I0
I0
tp4059
a(I0
I0
I0
I0
I0
I1
I0
tp4060
a(I1
I1
I0
I0
I1
I0
I0
tp4061
a(I1
I1
I1
I1
I0
I1
I0
tp4062
a(I0
I0
I1
I0
I0
I1
I0
tp4063
a(I0
I0
I1
I0
I0
I0
I0
tp4064
aa(lp4065
(I0
I0
I1
I0
I0
I0
I0
tp4066
a(I1
I0
I0
I0
I0
I0
I0
tp4067
a(I0
I0
I0
I0
I0
I1
I0
tp4068
a(I1
I1
I0
I0
I1
I0
I0
tp4069
a(I1
I1
I1
I1
I1
I1
I1
tp4070
a(I0
I0
I1
I0
I0
I1
I0
tp4071
a(I0
I0
I1
I0
I0
I0
I0
tp4072
aa(lp4073
(I0
I0
I1
I0
I0
I0
I0
tp4074
a(I1
I0
I0
I0
I0
I0
I0
tp4075
a(I0
I0
I0
I0
I0
I1
I0
tp4076
a(I1
I1
I0
I0
I1
I0
I0
tp4077
a(I1
I1
I0
I1
I1
I1
I0
tp4078
a(I0
I0
I1
I0
I0
I1
I0
tp4079
a(I0
I0
I1
I0
I0
I0
I0
tp4080
aa(lp4081
(I0
I0
I1
I0
I0
I0
I0
tp4082
a(I1
I0
I0
I0
I0
I0
I0
tp4083
a(I0
I0
I0
I0
I0
I1
I0
tp4084
a(I1
I1
I0
I0
I1
I0
I0
tp4085
a(I1
I1
I0
I1
I0
I1
I1
tp4086
a(I0
I0
I1
I0
I0
I1
I0
tp4087
a(I0
I0
I1
I0
I0
I0
I0
tp4088
aa(lp4089
(I0
I0
I1
I0
I0
I0
I0
tp4090
a(I1
I0
I0
I0
I0
I0
I0
tp4091
a(I0
I0
I0
I0
I0
I1
I0
tp4092
a(I1
I1
I0
I0
I1
I0
I0
tp4093
a(I1
I0
I0
I1
I0
I1
I0
tp4094
a(I0
I0
I1
I0
I0
I1
I0
tp4095
a(I0
I0
I1
I0
I0
I0
I0
tp4096
aa(lp4097
(I0
I0
I1
I0
I0
I0
I0
tp4098
a(I1
I0
I0
I0
I0
I0
I0
tp4099
a(I0
I0
I0
I0
I0
I1
I0
tp4100
a(I0
I1
I0
I1
I1
I0
I0
tp4101
a(I1
I1
I0
I1
I0
I1
I1
tp4102
a(I0
I0
I1
I0
I0
I1
I0
tp4103
a(I0
I0
I1
I0
I0
I0
I0
tp4104
aa(lp4105
(I0
I0
I1
I0
I0
I0
I0
tp4106
a(I1
I0
I0
I0
I0
I0
I0
tp4107
a(I0
I0
I0
I0
I0
I1
I0
tp4108
a(I0
I1
I0
I1
I1
I0
I0
tp4109
a(I1
I1
I1
I0
I1
I1
I0
tp4110
a(I0
I0
I1
I0
I0
I1
I0
tp4111
a(I0
I0
I1
I0
I0
I0
I0
tp4112
aa(lp4113
(I0
I0
I1
I0
I0
I0
I0
tp4114
a(I1
I1
I1
I0
I0
I0
I0
tp4115
a(I0
I0
I0
I0
I0
I1
I0
tp4116
a(I1
I0
I0
I0
I0
I0
I0
tp4117
a(I0
I0
I0
I1
I1
I1
I1
tp4118
a(I0
I0
I1
I0
I0
I1
I0
tp4119
a(I0
I0
I1
I0
I0
I0
I0
tp4120
aa(lp4121
(I0
I0
I1
I0
I0
I0
I0
tp4122
a(I1
I0
I0
I0
I0
I0
I0
tp4123
a(I0
I0
I0
I0
I0
I1
I0
tp4124
a(I1
I1
I0
I1
I0
I0
I0
tp4125
a(I1
I0
I0
I1
I0
I1
I0
tp4126
a(I0
I0
I1
I0
I0
I1
I0
tp4127
a(I0
I0
I1
I0
I0
I0
I0
tp4128
aa(lp4129
(I0
I0
I1
I0
I0
I0
I0
tp4130
a(I1
I0
I0
I0
I0
I0
I0
tp4131
a(I0
I0
I0
I0
I0
I1
I0
tp4132
a(I1
I1
I0
I1
I0
I0
I0
tp4133
a(I0
I0
I0
I1
I0
I1
I0
tp4134
a(I0
I0
I1
I0
I0
I1
I0
tp4135
a(I0
I0
I1
I0
I0
I0
I0
tp4136
aa(lp4137
(I0
I0
I1
I0
I0
I0
I0
tp4138
a(I1
I0
I0
I0
I0
I0
I0
tp4139
a(I0
I0
I0
I0
I0
I1
I0
tp4140
a(I1
I0
I0
I1
I0
I0
I0
tp4141
a(I0
I0
I0
I1
I0
I1
I0
tp4142
a(I0
I0
I1
I0
I0
I1
I0
tp4143
a(I0
I0
I1
I0
I0
I0
I0
tp4144
aa(lp4145
(I0
I0
I1
I0
I0
I0
I0
tp4146
a(I1
I0
I0
I0
I0
I0
I0
tp4147
a(I0
I0
I0
I0
I0
I1
I0
tp4148
a(I1
I0
I0
I0
I0
I0
I0
tp4149
a(I0
I0
I0
I0
I0
I1
I0
tp4150
a(I0
I0
I1
I0
I0
I1
I0
tp4151
a(I0
I0
I1
I0
I0
I0
I0
tp4152
aa(lp4153
(I0
I0
I1
I0
I0
I0
I0
tp4154
a(I1
I0
I0
I0
I0
I0
I0
tp4155
a(I0
I0
I0
I0
I0
I1
I0
tp4156
a(I0
I0
I0
I1
I0
I0
I0
tp4157
a(I1
I1
I1
I0
I0
I1
I0
tp4158
a(I0
I0
I1
I0
I0
I1
I0
tp4159
a(I0
I0
I1
I0
I0
I0
I0
tp4160
aa(lp4161
(I0
I0
I1
I0
I0
I0
I0
tp4162
a(I1
I0
I0
I0
I0
I0
I0
tp4163
a(I0
I0
I0
I0
I0
I1
I0
tp4164
a(I0
I0
I0
I1
I0
I0
I0
tp4165
a(I0
I0
I0
I1
I0
I1
I1
tp4166
a(I0
I0
I1
I0
I0
I1
I0
tp4167
a(I0
I0
I1
I0
I0
I0
I0
tp4168
aa(lp4169
(I0
I0
I1
I0
I0
I0
I0
tp4170
a(I1
I0
I0
I0
I0
I0
I0
tp4171
a(I0
I0
I0
I0
I0
I1
I0
tp4172
a(I0
I0
I0
I1
I0
I0
I0
tp4173
a(I1
I1
I0
I1
I0
I1
I1
tp4174
a(I0
I0
I1
I0
I0
I1
I0
tp4175
a(I0
I0
I1
I0
I0
I0
I0
tp4176
aa(lp4177
(I0
I0
I1
I0
I0
I0
I0
tp4178
a(I1
I0
I0
I0
I0
I0
I0
tp4179
a(I0
I0
I0
I0
I0
I1
I0
tp4180
a(I0
I0
I0
I1
I0
I0
I0
tp4181
a(I1
I1
I0
I1
I0
I1
I0
tp4182
a(I0
I0
I1
I0
I0
I1
I0
tp4183
a(I0
I0
I1
I0
I0
I0
I0
tp4184
aa(lp4185
(I0
I0
I1
I0
I0
I0
I0
tp4186
a(I1
I0
I0
I0
I0
I0
I0
tp4187
a(I0
I0
I0
I0
I0
I1
I0
tp4188
a(I0
I0
I0
I1
I0
I0
I0
tp4189
a(I0
I0
I0
I1
I0
I1
I0
tp4190
a(I0
I0
I1
I0
I0
I1
I0
tp4191
a(I0
I0
I1
I0
I0
I0
I0
tp4192
aa(lp4193
(I0
I0
I1
I0
I0
I0
I0
tp4194
a(I1
I0
I0
I0
I0
I0
I0
tp4195
a(I0
I0
I0
I0
I0
I1
I0
tp4196
a(I0
I0
I0
I1
I0
I0
I0
tp4197
a(I0
I1
I0
I1
I0
I1
I0
tp4198
a(I0
I0
I1
I0
I0
I1
I0
tp4199
a(I0
I0
I1
I0
I0
I0
I0
tp4200
aa(lp4201
(I0
I0
I1
I0
I0
I0
I0
tp4202
a(I1
I0
I0
I0
I0
I0
I0
tp4203
a(I0
I0
I0
I0
I0
I1
I0
tp4204
a(I0
I0
I0
I1
I0
I0
I0
tp4205
a(I0
I1
I0
I1
I1
I1
I0
tp4206
a(I0
I0
I1
I0
I0
I1
I0
tp4207
a(I0
I0
I1
I0
I0
I0
I0
tp4208
aa(lp4209
(I0
I0
I1
I0
I0
I0
I0
tp4210
a(I1
I0
I0
I0
I0
I0
I0
tp4211
a(I0
I0
I0
I0
I0
I1
I0
tp4212
a(I0
I1
I1
I0
I0
I0
I0
tp4213
a(I0
I0
I0
I1
I0
I1
I1
tp4214
a(I0
I0
I1
I0
I0
I1
I0
tp4215
a(I0
I0
I1
I0
I0
I0
I0
tp4216
aa(lp4217
(I0
I0
I1
I0
I0
I0
I0
tp4218
a(I1
I0
I0
I0
I0
I0
I0
tp4219
a(I0
I0
I0
I0
I0
I1
I0
tp4220
a(I1
I1
I0
I1
I0
I0
I0
tp4221
a(I0
I1
I0
I1
I0
I1
I0
tp4222
a(I0
I0
I1
I1
I0
I0
I0
tp4223
a(I0
I0
I1
I0
I0
I0
I0
tp4224
aa(lp4225
(I0
I0
I1
I0
I0
I0
I0
tp4226
a(I1
I0
I0
I0
I0
I0
I0
tp4227
a(I0
I0
I0
I0
I0
I1
I0
tp4228
a(I1
I0
I0
I1
I0
I0
I0
tp4229
a(I0
I1
I0
I1
I0
I1
I0
tp4230
a(I0
I0
I1
I1
I0
I0
I0
tp4231
a(I0
I0
I1
I0
I0
I0
I0
tp4232
aa(lp4233
(I0
I0
I1
I0
I0
I0
I0
tp4234
a(I1
I0
I0
I0
I0
I0
I0
tp4235
a(I0
I0
I0
I0
I0
I1
I0
tp4236
a(I1
I0
I0
I0
I0
I0
I0
tp4237
a(I0
I0
I0
I1
I1
I1
I0
tp4238
a(I0
I0
I1
I1
I0
I0
I0
tp4239
a(I0
I0
I1
I0
I0
I0
I0
tp4240
aa(lp4241
(I0
I0
I0
I0
I0
I0
I0
tp4242
a(I1
I0
I0
I0
I0
I0
I0
tp4243
a(I0
I0
I0
I0
I0
I1
I0
tp4244
a(I0
I0
I0
I1
I0
I0
I0
tp4245
a(I1
I1
I0
I1
I0
I1
I1
tp4246
a(I0
I0
I1
I0
I0
I1
I0
tp4247
a(I0
I0
I1
I0
I0
I0
I0
tp4248
aa(lp4249
(I0
I0
I1
I0
I0
I0
I0
tp4250
a(I1
I0
I0
I0
I0
I0
I0
tp4251
a(I0
I0
I0
I0
I0
I1
I0
tp4252
a(I0
I1
I0
I0
I0
I0
I0
tp4253
a(I0
I0
I0
I1
I0
I1
I0
tp4254
a(I0
I0
I1
I1
I0
I0
I0
tp4255
a(I0
I0
I1
I0
I0
I0
I0
tp4256
aa(lp4257
(I0
I0
I1
I0
I0
I0
I0
tp4258
a(I1
I0
I0
I0
I0
I0
I0
tp4259
a(I0
I0
I0
I0
I0
I1
I0
tp4260
a(I0
I1
I0
I0
I0
I0
I0
tp4261
a(I0
I0
I0
I1
I0
I1
I1
tp4262
a(I0
I0
I1
I1
I0
I0
I0
tp4263
a(I0
I0
I1
I0
I0
I0
I0
tp4264
aa(lp4265
(I0
I0
I1
I0
I0
I1
I0
tp4266
a(I1
I0
I0
I0
I0
I0
I0
tp4267
a(I0
I0
I0
I0
I0
I1
I0
tp4268
a(I1
I1
I1
I0
I0
I0
I0
tp4269
a(I0
I0
I0
I1
I0
I1
I0
tp4270
a(I0
I0
I1
I0
I0
I0
I0
tp4271
a(I0
I0
I1
I0
I0
I0
I0
tp4272
aa(lp4273
(I0
I0
I1
I0
I0
I1
I0
tp4274
a(I1
I0
I0
I0
I0
I0
I0
tp4275
a(I0
I0
I0
I0
I0
I1
I0
tp4276
a(I1
I1
I0
I0
I0
I0
I0
tp4277
a(I0
I0
I1
I1
I0
I0
I1
tp4278
a(I0
I0
I1
I0
I0
I0
I0
tp4279
a(I0
I0
I1
I0
I0
I0
I0
tp4280
aa(lp4281
(I0
I0
I1
I0
I0
I1
I0
tp4282
a(I1
I0
I0
I0
I0
I0
I0
tp4283
a(I0
I0
I0
I0
I0
I1
I0
tp4284
a(I1
I1
I0
I0
I0
I0
I0
tp4285
a(I0
I0
I1
I1
I0
I0
I0
tp4286
a(I0
I0
I1
I0
I0
I0
I0
tp4287
a(I0
I0
I1
I0
I0
I0
I0
tp4288
aa(lp4289
(I0
I0
I1
I0
I0
I1
I0
tp4290
a(I1
I0
I0
I0
I0
I0
I0
tp4291
a(I0
I0
I0
I0
I0
I1
I0
tp4292
a(I1
I1
I0
I0
I0
I0
I0
tp4293
a(I0
I0
I0
I1
I0
I1
I0
tp4294
a(I0
I0
I1
I0
I0
I0
I0
tp4295
a(I0
I0
I1
I0
I0
I0
I0
tp4296
aa(lp4297
(I0
I0
I1
I0
I0
I1
I0
tp4298
a(I1
I0
I0
I0
I0
I0
I0
tp4299
a(I0
I0
I0
I0
I0
I1
I0
tp4300
a(I1
I1
I0
I0
I0
I0
I0
tp4301
a(I0
I1
I0
I1
I0
I1
I1
tp4302
a(I0
I0
I1
I0
I0
I0
I0
tp4303
a(I0
I0
I1
I0
I0
I0
I0
tp4304
aa(lp4305
(I0
I0
I1
I0
I0
I1
I0
tp4306
a(I1
I0
I0
I0
I0
I0
I0
tp4307
a(I0
I0
I0
I0
I0
I1
I0
tp4308
a(I0
I1
I0
I1
I0
I0
I0
tp4309
a(I1
I0
I0
I1
I0
I0
I0
tp4310
a(I0
I0
I1
I0
I0
I0
I0
tp4311
a(I0
I0
I1
I0
I0
I0
I0
tp4312
aa(lp4313
(I0
I0
I1
I0
I0
I1
I0
tp4314
a(I1
I0
I0
I0
I0
I0
I0
tp4315
a(I0
I0
I0
I0
I0
I1
I0
tp4316
a(I0
I1
I0
I0
I0
I0
I0
tp4317
a(I1
I1
I0
I1
I0
I0
I0
tp4318
a(I0
I0
I1
I0
I0
I0
I0
tp4319
a(I0
I0
I1
I0
I0
I0
I0
tp4320
aa(lp4321
(I0
I0
I1
I0
I0
I1
I0
tp4322
a(I1
I0
I0
I0
I0
I0
I0
tp4323
a(I0
I0
I0
I0
I0
I1
I0
tp4324
a(I0
I1
I0
I0
I0
I0
I0
tp4325
a(I1
I1
I0
I1
I0
I1
I0
tp4326
a(I0
I0
I1
I0
I0
I0
I0
tp4327
a(I0
I0
I1
I0
I0
I0
I0
tp4328
aa(lp4329
(I0
I0
I1
I0
I0
I1
I0
tp4330
a(I1
I0
I0
I0
I0
I0
I0
tp4331
a(I0
I0
I0
I0
I0
I1
I0
tp4332
a(I0
I0
I0
I1
I0
I0
I0
tp4333
a(I1
I0
I1
I1
I0
I1
I1
tp4334
a(I0
I0
I1
I0
I0
I0
I0
tp4335
a(I0
I0
I1
I0
I0
I0
I0
tp4336
aa(lp4337
(I0
I0
I1
I0
I0
I1
I0
tp4338
a(I1
I0
I0
I0
I0
I0
I0
tp4339
a(I0
I0
I0
I0
I0
I1
I0
tp4340
a(I0
I0
I0
I1
I0
I0
I0
tp4341
a(I1
I0
I1
I1
I0
I0
I0
tp4342
a(I0
I0
I1
I0
I0
I0
I0
tp4343
a(I0
I0
I1
I0
I0
I0
I0
tp4344
aa(lp4345
(I0
I0
I1
I0
I0
I1
I0
tp4346
a(I1
I0
I0
I0
I0
I0
I0
tp4347
a(I0
I0
I0
I0
I0
I1
I0
tp4348
a(I0
I0
I0
I1
I0
I0
I0
tp4349
a(I1
I0
I0
I1
I0
I1
I0
tp4350
a(I0
I0
I1
I0
I0
I0
I0
tp4351
a(I0
I0
I1
I0
I0
I0
I0
tp4352
aa(lp4353
(I0
I0
I1
I0
I0
I1
I0
tp4354
a(I1
I0
I0
I0
I0
I0
I0
tp4355
a(I0
I0
I0
I0
I0
I1
I0
tp4356
a(I0
I0
I0
I1
I0
I0
I0
tp4357
a(I0
I0
I0
I1
I0
I1
I0
tp4358
a(I0
I0
I1
I0
I0
I0
I0
tp4359
a(I0
I0
I1
I0
I0
I0
I0
tp4360
aa(lp4361
(I0
I0
I1
I0
I0
I1
I0
tp4362
a(I1
I0
I0
I0
I0
I0
I0
tp4363
a(I0
I0
I0
I0
I0
I1
I0
tp4364
a(I0
I0
I0
I1
I0
I0
I0
tp4365
a(I1
I1
I0
I1
I0
I1
I1
tp4366
a(I0
I0
I1
I0
I0
I0
I0
tp4367
a(I0
I0
I1
I0
I0
I0
I0
tp4368
aa(lp4369
(I0
I0
I1
I1
I0
I0
I0
tp4370
a(I1
I0
I0
I0
I0
I0
I0
tp4371
a(I0
I0
I0
I0
I0
I1
I0
tp4372
a(I1
I1
I0
I0
I0
I0
I0
tp4373
a(I1
I1
I0
I1
I0
I1
I0
tp4374
a(I0
I0
I1
I0
I0
I0
I0
tp4375
a(I0
I0
I1
I0
I0
I0
I0
tp4376
aa(lp4377
(I0
I0
I1
I0
I0
I0
I0
tp4378
a(I1
I1
I1
I0
I0
I0
I0
tp4379
a(I0
I0
I0
I0
I0
I1
I0
tp4380
a(I0
I1
I0
I1
I1
I0
I0
tp4381
a(I1
I1
I0
I1
I1
I1
I0
tp4382
a(I0
I0
I1
I0
I0
I0
I0
tp4383
a(I0
I0
I1
I0
I0
I0
I0
tp4384
aa(lp4385
(I0
I0
I1
I0
I0
I0
I0
tp4386
a(I1
I1
I1
I0
I0
I0
I0
tp4387
a(I0
I0
I0
I0
I0
I1
I0
tp4388
a(I0
I1
I0
I1
I1
I0
I0
tp4389
a(I1
I1
I0
I1
I0
I1
I0
tp4390
a(I0
I0
I1
I0
I0
I0
I0
tp4391
a(I0
I0
I1
I0
I0
I0
I0
tp4392
aa(lp4393
(I0
I0
I1
I0
I0
I0
I0
tp4394
a(I1
I1
I1
I0
I0
I0
I0
tp4395
a(I0
I0
I0
I0
I0
I1
I0
tp4396
a(I0
I1
I0
I1
I1
I0
I0
tp4397
a(I1
I1
I0
I1
I0
I1
I1
tp4398
a(I0
I0
I1
I0
I0
I0
I0
tp4399
a(I0
I0
I1
I0
I0
I0
I0
tp4400
aa(lp4401
(I0
I0
I1
I0
I0
I0
I0
tp4402
a(I1
I1
I1
I0
I0
I0
I0
tp4403
a(I0
I0
I0
I0
I0
I1
I0
tp4404
a(I0
I1
I0
I1
I1
I0
I0
tp4405
a(I1
I1
I1
I0
I0
I1
I0
tp4406
a(I0
I0
I1
I0
I0
I0
I0
tp4407
a(I0
I0
I1
I0
I0
I0
I0
tp4408
aa(lp4409
(I0
I0
I1
I0
I0
I0
I0
tp4410
a(I1
I0
I0
I0
I0
I0
I0
tp4411
a(I0
I0
I0
I0
I0
I1
I0
tp4412
a(I1
I1
I0
I0
I1
I0
I0
tp4413
a(I0
I1
I0
I1
I0
I1
I0
tp4414
a(I0
I0
I1
I0
I0
I0
I0
tp4415
a(I0
I0
I1
I0
I0
I0
I0
tp4416
aa(lp4417
(I0
I0
I1
I0
I0
I0
I0
tp4418
a(I1
I0
I0
I0
I0
I0
I0
tp4419
a(I0
I0
I0
I0
I0
I1
I0
tp4420
a(I1
I1
I0
I0
I1
I0
I0
tp4421
a(I1
I1
I0
I1
I0
I0
I1
tp4422
a(I0
I0
I1
I0
I0
I0
I0
tp4423
a(I0
I0
I1
I0
I0
I0
I0
tp4424
aa(lp4425
(I0
I0
I1
I0
I0
I0
I0
tp4426
a(I1
I0
I0
I0
I0
I0
I0
tp4427
a(I0
I0
I0
I0
I0
I1
I0
tp4428
a(I0
I1
I0
I1
I1
I0
I0
tp4429
a(I1
I1
I1
I0
I0
I1
I0
tp4430
a(I0
I0
I1
I0
I0
I0
I0
tp4431
a(I0
I0
I1
I0
I0
I0
I0
tp4432
aa(lp4433
(I0
I0
I1
I0
I0
I0
I0
tp4434
a(I1
I0
I0
I0
I0
I0
I0
tp4435
a(I0
I0
I0
I0
I0
I1
I0
tp4436
a(I0
I1
I0
I1
I1
I0
I0
tp4437
a(I1
I1
I0
I1
I1
I1
I0
tp4438
a(I0
I0
I1
I0
I0
I0
I0
tp4439
a(I0
I0
I1
I0
I0
I0
I0
tp4440
aa(lp4441
(I0
I0
I1
I0
I0
I0
I0
tp4442
a(I1
I1
I1
I0
I0
I0
I0
tp4443
a(I0
I0
I0
I0
I0
I1
I0
tp4444
a(I1
I0
I0
I0
I0
I0
I0
tp4445
a(I0
I1
I0
I1
I0
I1
I0
tp4446
a(I0
I0
I1
I0
I0
I0
I0
tp4447
a(I0
I0
I1
I0
I0
I0
I0
tp4448
aa(lp4449
(I0
I0
I1
I0
I0
I0
I0
tp4450
a(I1
I0
I0
I0
I0
I0
I0
tp4451
a(I0
I0
I0
I0
I0
I1
I0
tp4452
a(I1
I0
I0
I1
I0
I0
I0
tp4453
a(I1
I0
I0
I1
I0
I1
I1
tp4454
a(I0
I0
I1
I0
I0
I0
I0
tp4455
a(I0
I0
I1
I0
I0
I0
I0
tp4456
aa(lp4457
(I0
I0
I1
I0
I0
I0
I0
tp4458
a(I1
I0
I0
I0
I0
I0
I0
tp4459
a(I0
I0
I0
I0
I0
I1
I0
tp4460
a(I1
I0
I0
I1
I0
I0
I0
tp4461
a(I0
I0
I0
I1
I0
I1
I1
tp4462
a(I0
I0
I1
I0
I0
I0
I0
tp4463
a(I0
I0
I1
I0
I0
I0
I0
tp4464
aa(lp4465
(I0
I0
I1
I0
I0
I0
I0
tp4466
a(I1
I0
I0
I0
I0
I0
I0
tp4467
a(I0
I0
I0
I0
I0
I1
I0
tp4468
a(I1
I0
I0
I0
I0
I0
I0
tp4469
a(I0
I0
I0
I1
I0
I1
I1
tp4470
a(I0
I0
I1
I0
I0
I0
I0
tp4471
a(I0
I0
I1
I0
I0
I0
I0
tp4472
aa(lp4473
(I0
I0
I1
I0
I0
I0
I0
tp4474
a(I1
I0
I0
I0
I0
I0
I0
tp4475
a(I0
I0
I0
I0
I0
I1
I0
tp4476
a(I1
I0
I0
I0
I0
I0
I0
tp4477
a(I0
I0
I0
I0
I0
I1
I0
tp4478
a(I0
I0
I1
I0
I0
I0
I0
tp4479
a(I0
I0
I1
I0
I0
I0
I0
tp4480
aa(lp4481
(I0
I0
I1
I0
I0
I0
I0
tp4482
a(I1
I0
I0
I0
I0
I0
I0
tp4483
a(I0
I0
I0
I0
I0
I1
I0
tp4484
a(I0
I1
I1
I1
I0
I0
I0
tp4485
a(I1
I0
I1
I1
I0
I1
I0
tp4486
a(I0
I0
I1
I0
I0
I0
I0
tp4487
a(I0
I0
I1
I0
I0
I0
I0
tp4488
aa(lp4489
(I0
I0
I1
I0
I0
I0
I0
tp4490
a(I1
I0
I0
I0
I0
I0
I0
tp4491
a(I0
I0
I0
I0
I0
I1
I0
tp4492
a(I0
I0
I0
I1
I0
I0
I0
tp4493
a(I0
I1
I0
I1
I1
I1
I0
tp4494
a(I0
I0
I1
I0
I0
I0
I0
tp4495
a(I0
I0
I1
I0
I0
I0
I0
tp4496
aa(lp4497
(I0
I0
I0
I0
I0
I0
I0
tp4498
a(I1
I0
I0
I0
I0
I0
I0
tp4499
a(I0
I0
I0
I0
I0
I1
I0
tp4500
a(I0
I0
I0
I1
I0
I0
I0
tp4501
a(I0
I0
I0
I1
I0
I1
I0
tp4502
a(I0
I0
I1
I0
I0
I0
I0
tp4503
a(I0
I0
I1
I0
I0
I0
I0
tp4504
aa(lp4505
(I0
I0
I1
I0
I0
I0
I0
tp4506
a(I0
I0
I1
I0
I0
I1
I0
tp4507
a(I0
I0
I0
I0
I0
I1
I0
tp4508
a(I1
I0
I0
I0
I0
I0
I0
tp4509
a(I0
I0
I0
I1
I1
I1
I1
tp4510
a(I0
I0
I1
I0
I0
I0
I0
tp4511
a(I0
I0
I1
I0
I0
I0
I0
tp4512
aa(lp4513
(I0
I0
I1
I0
I0
I0
I0
tp4514
a(I1
I0
I0
I0
I0
I0
I0
tp4515
a(I0
I0
I0
I0
I0
I1
I0
tp4516
a(I1
I0
I0
I0
I0
I0
I0
tp4517
a(I0
I0
I0
I1
I1
I1
I0
tp4518
a(I0
I0
I0
I0
I0
I0
I0
tp4519
a(I0
I0
I1
I0
I0
I0
I0
tp4520
aa(lp4521
(I0
I0
I1
I0
I0
I0
I0
tp4522
a(I1
I0
I0
I0
I0
I0
I0
tp4523
a(I0
I0
I0
I0
I0
I1
I0
tp4524
a(I1
I0
I0
I0
I0
I0
I0
tp4525
a(I0
I0
I0
I1
I0
I1
I0
tp4526
a(I0
I0
I0
I0
I0
I0
I0
tp4527
a(I0
I0
I1
I0
I0
I0
I0
tp4528
aa(lp4529
(I0
I0
I1
I0
I0
I0
I0
tp4530
a(I0
I0
I0
I1
I0
I0
I0
tp4531
a(I0
I0
I0
I0
I0
I1
I0
tp4532
a(I1
I1
I1
I0
I0
I0
I0
tp4533
a(I0
I1
I1
I1
I0
I0
I0
tp4534
a(I0
I0
I1
I0
I0
I0
I0
tp4535
a(I0
I0
I1
I0
I0
I0
I0
tp4536
aa(lp4537
(I0
I0
I1
I0
I0
I0
I0
tp4538
a(I0
I0
I0
I1
I0
I0
I0
tp4539
a(I0
I0
I0
I0
I0
I1
I0
tp4540
a(I1
I1
I1
I0
I0
I0
I0
tp4541
a(I1
I0
I1
I1
I0
I0
I0
tp4542
a(I0
I0
I1
I0
I0
I0
I0
tp4543
a(I0
I0
I1
I0
I0
I0
I0
tp4544
aa(lp4545
(I0
I0
I1
I0
I0
I0
I0
tp4546
a(I0
I0
I0
I1
I0
I0
I0
tp4547
a(I0
I0
I0
I0
I0
I1
I0
tp4548
a(I1
I1
I1
I0
I0
I0
I0
tp4549
a(I1
I0
I0
I1
I0
I1
I0
tp4550
a(I0
I0
I1
I0
I0
I0
I0
tp4551
a(I0
I0
I1
I0
I0
I0
I0
tp4552
aa(lp4553
(I0
I0
I1
I0
I0
I0
I0
tp4554
a(I0
I0
I0
I1
I0
I0
I0
tp4555
a(I0
I0
I0
I0
I0
I1
I0
tp4556
a(I1
I1
I1
I0
I0
I0
I0
tp4557
a(I0
I0
I0
I1
I0
I1
I0
tp4558
a(I0
I0
I1
I0
I0
I0
I0
tp4559
a(I0
I0
I1
I0
I0
I0
I0
tp4560
aa(lp4561
(I0
I0
I1
I0
I0
I0
I0
tp4562
a(I0
I0
I0
I1
I0
I0
I0
tp4563
a(I0
I0
I0
I0
I0
I1
I0
tp4564
a(I1
I1
I0
I0
I0
I0
I0
tp4565
a(I1
I1
I0
I1
I0
I1
I1
tp4566
a(I0
I0
I1
I0
I0
I0
I0
tp4567
a(I0
I0
I1
I0
I0
I0
I0
tp4568
aa(lp4569
(I0
I0
I1
I0
I0
I0
I0
tp4570
a(I0
I0
I0
I1
I0
I0
I0
tp4571
a(I0
I0
I0
I0
I0
I1
I0
tp4572
a(I1
I1
I0
I0
I0
I0
I0
tp4573
a(I0
I0
I0
I1
I0
I1
I0
tp4574
a(I0
I0
I1
I0
I0
I0
I0
tp4575
a(I0
I0
I1
I0
I0
I0
I0
tp4576
aa(lp4577
(I0
I0
I1
I0
I0
I0
I0
tp4578
a(I0
I0
I0
I1
I0
I0
I0
tp4579
a(I0
I0
I0
I0
I0
I1
I0
tp4580
a(I0
I1
I0
I1
I0
I0
I0
tp4581
a(I0
I1
I0
I1
I0
I1
I0
tp4582
a(I0
I0
I1
I0
I0
I0
I0
tp4583
a(I0
I0
I1
I0
I0
I0
I0
tp4584
aa(lp4585
(I0
I0
I1
I0
I0
I0
I0
tp4586
a(I1
I0
I0
I0
I0
I0
I0
tp4587
a(I0
I0
I0
I0
I0
I1
I0
tp4588
a(I0
I1
I0
I0
I0
I0
I0
tp4589
a(I0
I0
I0
I1
I0
I1
I0
tp4590
a(I0
I0
I0
I0
I0
I0
I0
tp4591
a(I0
I0
I1
I0
I0
I0
I0
tp4592
aa(lp4593
(I0
I0
I1
I0
I0
I0
I0
tp4594
a(I0
I0
I0
I1
I0
I0
I0
tp4595
a(I0
I0
I0
I0
I0
I1
I0
tp4596
a(I0
I0
I0
I1
I0
I0
I0
tp4597
a(I0
I1
I0
I1
I0
I1
I0
tp4598
a(I0
I0
I1
I0
I0
I0
I0
tp4599
a(I0
I0
I1
I0
I0
I0
I0
tp4600
aa(lp4601
(I0
I0
I1
I0
I0
I0
I0
tp4602
a(I0
I0
I0
I1
I0
I0
I0
tp4603
a(I0
I0
I0
I0
I0
I1
I0
tp4604
a(I0
I0
I0
I1
I0
I0
I0
tp4605
a(I1
I0
I1
I1
I0
I1
I0
tp4606
a(I0
I0
I1
I0
I0
I0
I0
tp4607
a(I0
I0
I1
I0
I0
I0
I0
tp4608
aa(lp4609
(I0
I0
I1
I0
I0
I0
I0
tp4610
a(I0
I0
I0
I1
I0
I0
I0
tp4611
a(I0
I0
I0
I0
I0
I1
I0
tp4612
a(I0
I0
I0
I1
I0
I0
I0
tp4613
a(I0
I0
I0
I1
I0
I1
I0
tp4614
a(I0
I0
I1
I0
I0
I0
I0
tp4615
a(I0
I0
I1
I0
I0
I0
I0
tp4616
aa(lp4617
(I0
I0
I1
I0
I0
I0
I0
tp4618
a(I0
I0
I0
I1
I0
I0
I0
tp4619
a(I0
I0
I0
I0
I0
I1
I0
tp4620
a(I0
I0
I1
I1
I0
I0
I0
tp4621
a(I1
I0
I0
I1
I0
I1
I0
tp4622
a(I0
I0
I1
I0
I0
I0
I0
tp4623
a(I0
I0
I1
I0
I0
I0
I0
tp4624
aa(lp4625
(I0
I0
I1
I0
I0
I0
I0
tp4626
a(I0
I0
I0
I1
I0
I0
I0
tp4627
a(I0
I0
I0
I0
I0
I1
I0
tp4628
a(I0
I0
I1
I1
I0
I0
I0
tp4629
a(I1
I0
I0
I1
I0
I1
I1
tp4630
a(I0
I0
I1
I0
I0
I0
I0
tp4631
a(I0
I0
I1
I0
I0
I0
I0
tp4632
aa(lp4633
(I0
I0
I1
I0
I0
I0
I0
tp4634
a(I0
I0
I1
I0
I0
I0
I0
tp4635
a(I0
I0
I0
I0
I0
I1
I0
tp4636
a(I0
I1
I0
I1
I1
I0
I0
tp4637
a(I1
I1
I0
I1
I0
I1
I1
tp4638
a(I0
I0
I1
I0
I0
I0
I0
tp4639
a(I0
I0
I1
I0
I0
I0
I0
tp4640
aa(lp4641
(I0
I0
I1
I0
I0
I0
I0
tp4642
a(I0
I0
I1
I0
I0
I0
I0
tp4643
a(I0
I0
I0
I0
I0
I1
I0
tp4644
a(I0
I1
I0
I1
I1
I0
I0
tp4645
a(I0
I0
I0
I1
I0
I1
I0
tp4646
a(I0
I0
I1
I0
I0
I0
I0
tp4647
a(I0
I0
I1
I0
I0
I0
I0
tp4648
aa(lp4649
(I0
I0
I1
I0
I0
I0
I0
tp4650
a(I0
I0
I1
I0
I0
I0
I0
tp4651
a(I0
I0
I0
I0
I0
I1
I0
tp4652
a(I0
I1
I0
I0
I1
I0
I0
tp4653
a(I1
I0
I0
I1
I0
I0
I0
tp4654
a(I0
I0
I1
I0
I0
I0
I0
tp4655
a(I0
I0
I1
I0
I0
I0
I0
tp4656
aa(lp4657
(I0
I0
I1
I0
I0
I0
I0
tp4658
a(I0
I0
I1
I0
I0
I0
I0
tp4659
a(I0
I0
I0
I0
I0
I1
I0
tp4660
a(I0
I1
I0
I0
I1
I0
I0
tp4661
a(I1
I0
I0
I1
I0
I1
I0
tp4662
a(I0
I0
I1
I0
I0
I0
I0
tp4663
a(I0
I0
I1
I0
I0
I0
I0
tp4664
aa(lp4665
(I0
I0
I1
I0
I0
I0
I0
tp4666
a(I0
I0
I1
I0
I0
I0
I0
tp4667
a(I0
I0
I0
I0
I0
I1
I0
tp4668
a(I0
I1
I0
I0
I1
I0
I0
tp4669
a(I1
I0
I0
I1
I0
I1
I1
tp4670
a(I0
I0
I1
I0
I0
I0
I0
tp4671
a(I0
I0
I1
I0
I0
I0
I0
tp4672
aa(lp4673
(I0
I0
I1
I0
I0
I0
I0
tp4674
a(I0
I0
I1
I0
I0
I0
I0
tp4675
a(I0
I0
I0
I0
I0
I1
I0
tp4676
a(I1
I0
I0
I0
I0
I0
I0
tp4677
a(I0
I1
I0
I1
I0
I1
I1
tp4678
a(I0
I0
I1
I0
I0
I0
I0
tp4679
a(I0
I0
I1
I0
I0
I0
I0
tp4680
aa(lp4681
(I0
I0
I1
I0
I0
I0
I0
tp4682
a(I0
I0
I1
I0
I0
I0
I0
tp4683
a(I0
I0
I0
I0
I0
I1
I0
tp4684
a(I0
I1
I0
I1
I0
I0
I0
tp4685
a(I0
I1
I0
I1
I0
I1
I0
tp4686
a(I0
I0
I1
I0
I0
I0
I0
tp4687
a(I0
I0
I1
I0
I0
I0
I0
tp4688
aa(lp4689
(I0
I0
I1
I0
I0
I0
I0
tp4690
a(I0
I0
I1
I0
I0
I0
I0
tp4691
a(I0
I0
I0
I0
I0
I1
I0
tp4692
a(I0
I1
I1
I1
I0
I0
I0
tp4693
a(I1
I0
I1
I1
I0
I1
I0
tp4694
a(I0
I0
I1
I0
I0
I0
I0
tp4695
a(I0
I0
I1
I0
I0
I0
I0
tp4696
aa(lp4697
(I0
I0
I1
I0
I0
I0
I0
tp4698
a(I0
I0
I1
I0
I0
I0
I0
tp4699
a(I0
I0
I0
I0
I0
I1
I0
tp4700
a(I0
I0
I0
I1
I0
I0
I0
tp4701
a(I1
I1
I0
I1
I0
I1
I0
tp4702
a(I0
I0
I1
I0
I0
I0
I0
tp4703
a(I0
I0
I1
I0
I0
I0
I0
tp4704
aa(lp4705
(I0
I0
I1
I0
I0
I0
I0
tp4706
a(I0
I0
I1
I0
I0
I0
I0
tp4707
a(I0
I0
I0
I0
I0
I1
I0
tp4708
a(I0
I0
I0
I1
I0
I0
I0
tp4709
a(I1
I1
I0
I1
I0
I1
I1
tp4710
a(I0
I0
I1
I0
I0
I0
I0
tp4711
a(I0
I0
I1
I0
I0
I0
I0
tp4712
aa(lp4713
(I0
I0
I1
I0
I0
I0
I0
tp4714
a(I0
I0
I1
I0
I0
I0
I0
tp4715
a(I0
I0
I0
I0
I0
I1
I0
tp4716
a(I0
I0
I0
I1
I0
I0
I0
tp4717
a(I1
I0
I1
I1
I0
I0
I0
tp4718
a(I0
I0
I1
I0
I0
I0
I0
tp4719
a(I0
I0
I1
I0
I0
I0
I0
tp4720
aa(lp4721
(I0
I0
I1
I0
I0
I0
I0
tp4722
a(I0
I0
I0
I0
I0
I0
I0
tp4723
a(I0
I0
I0
I0
I0
I1
I0
tp4724
a(I1
I0
I0
I0
I0
I0
I0
tp4725
a(I0
I1
I0
I1
I0
I1
I0
tp4726
a(I0
I0
I1
I0
I0
I0
I0
tp4727
a(I0
I0
I1
I0
I0
I0
I0
tp4728
aa(lp4729
(I0
I0
I1
I0
I0
I0
I0
tp4730
a(I0
I0
I0
I0
I0
I0
I0
tp4731
a(I0
I0
I0
I0
I0
I1
I0
tp4732
a(I1
I0
I0
I0
I0
I0
I0
tp4733
a(I1
I1
I1
I0
I0
I1
I0
tp4734
a(I0
I0
I1
I0
I0
I0
I0
tp4735
a(I0
I0
I1
I0
I0
I0
I0
tp4736
aa(lp4737
(I0
I0
I1
I0
I0
I0
I0
tp4738
a(I0
I0
I0
I0
I0
I0
I0
tp4739
a(I0
I0
I0
I0
I0
I1
I0
tp4740
a(I1
I0
I0
I0
I0
I0
I0
tp4741
a(I0
I0
I0
I1
I1
I1
I0
tp4742
a(I0
I0
I1
I0
I0
I0
I0
tp4743
a(I0
I0
I1
I0
I0
I0
I0
tp4744
aa(lp4745
(I0
I0
I1
I0
I0
I0
I0
tp4746
a(I0
I0
I0
I0
I0
I0
I0
tp4747
a(I0
I0
I0
I0
I0
I1
I0
tp4748
a(I0
I1
I1
I1
I0
I0
I0
tp4749
a(I1
I0
I0
I1
I0
I1
I1
tp4750
a(I0
I0
I1
I0
I0
I0
I0
tp4751
a(I0
I0
I1
I0
I0
I0
I0
tp4752
aa(lp4753
(I0
I0
I1
I0
I0
I0
I0
tp4754
a(I0
I0
I0
I0
I0
I0
I0
tp4755
a(I0
I0
I0
I0
I0
I1
I0
tp4756
a(I0
I1
I1
I1
I0
I0
I0
tp4757
a(I1
I0
I1
I1
I0
I1
I1
tp4758
a(I0
I0
I1
I0
I0
I0
I0
tp4759
a(I0
I0
I1
I0
I0
I0
I0
tp4760
aa(lp4761
(I0
I0
I1
I0
I0
I0
I0
tp4762
a(I0
I0
I0
I0
I0
I0
I0
tp4763
a(I0
I0
I0
I0
I0
I1
I0
tp4764
a(I0
I0
I0
I1
I0
I0
I0
tp4765
a(I1
I0
I1
I1
I0
I1
I0
tp4766
a(I0
I0
I1
I0
I0
I0
I0
tp4767
a(I0
I0
I1
I0
I0
I0
I0
tp4768
aa(lp4769
(I0
I0
I1
I0
I0
I0
I0
tp4770
a(I0
I0
I0
I0
I0
I0
I0
tp4771
a(I0
I0
I0
I0
I0
I1
I0
tp4772
a(I0
I0
I0
I1
I0
I0
I0
tp4773
a(I0
I0
I0
I1
I1
I1
I0
tp4774
a(I0
I0
I1
I0
I0
I0
I0
tp4775
a(I0
I0
I1
I0
I0
I0
I0
tp4776
aa(lp4777
(I0
I0
I1
I0
I0
I0
I0
tp4778
a(I0
I0
I0
I0
I0
I0
I0
tp4779
a(I0
I0
I0
I0
I0
I1
I0
tp4780
a(I0
I0
I0
I1
I0
I0
I0
tp4781
a(I0
I0
I0
I1
I0
I1
I0
tp4782
a(I0
I0
I1
I0
I0
I0
I0
tp4783
a(I0
I0
I1
I0
I0
I0
I0
tp4784
aa(lp4785
(I0
I0
I1
I0
I0
I0
I0
tp4786
a(I0
I0
I0
I0
I0
I0
I0
tp4787
a(I0
I0
I0
I0
I0
I1
I0
tp4788
a(I0
I0
I0
I1
I0
I0
I0
tp4789
a(I1
I1
I0
I1
I0
I1
I0
tp4790
a(I0
I0
I1
I0
I0
I0
I0
tp4791
a(I0
I0
I1
I0
I0
I0
I0
tp4792
aa(lp4793
(I0
I0
I1
I0
I0
I0
I0
tp4794
a(I0
I0
I0
I0
I0
I0
I0
tp4795
a(I0
I0
I0
I0
I0
I1
I0
tp4796
a(I0
I0
I0
I1
I0
I0
I0
tp4797
a(I0
I0
I1
I0
I0
I1
I1
tp4798
a(I0
I0
I1
I0
I0
I0
I0
tp4799
a(I0
I0
I1
I0
I0
I0
I0
tp4800
aa(lp4801
(I0
I0
I1
I0
I0
I0
I0
tp4802
a(I0
I0
I0
I0
I0
I0
I0
tp4803
a(I0
I0
I0
I0
I0
I1
I0
tp4804
a(I0
I0
I0
I1
I0
I0
I0
tp4805
a(I1
I1
I0
I1
I0
I1
I1
tp4806
a(I0
I0
I1
I0
I0
I0
I0
tp4807
a(I0
I0
I1
I0
I0
I0
I0
tp4808
aa(lp4809
(I0
I0
I0
I0
I0
I0
I0
tp4810
a(I0
I0
I0
I0
I0
I0
I0
tp4811
a(I0
I0
I0
I0
I0
I1
I0
tp4812
a(I0
I0
I0
I1
I0
I0
I0
tp4813
a(I1
I0
I0
I1
I0
I1
I0
tp4814
a(I0
I0
I1
I0
I0
I0
I0
tp4815
a(I0
I0
I1
I0
I0
I0
I0
tp4816
aa(lp4817
(I0
I0
I0
I0
I0
I0
I0
tp4818
a(I0
I0
I0
I0
I0
I0
I0
tp4819
a(I0
I0
I0
I0
I0
I1
I0
tp4820
a(I0
I0
I0
I1
I0
I0
I0
tp4821
a(I0
I0
I0
I1
I0
I1
I0
tp4822
a(I0
I0
I1
I0
I0
I0
I0
tp4823
a(I0
I0
I1
I0
I0
I0
I0
tp4824
aa(lp4825
(I0
I0
I0
I0
I0
I0
I0
tp4826
a(I0
I0
I0
I0
I0
I0
I0
tp4827
a(I0
I0
I0
I0
I0
I1
I0
tp4828
a(I0
I0
I0
I1
I0
I0
I0
tp4829
a(I0
I0
I0
I1
I0
I1
I1
tp4830
a(I0
I0
I1
I0
I0
I0
I0
tp4831
a(I0
I0
I1
I0
I0
I0
I0
tp4832
aa(lp4833
(I0
I0
I0
I0
I0
I0
I0
tp4834
a(I0
I0
I0
I0
I0
I0
I0
tp4835
a(I0
I0
I0
I0
I0
I1
I0
tp4836
a(I0
I0
I0
I1
I0
I0
I0
tp4837
a(I1
I0
I0
I1
I0
I1
I1
tp4838
a(I0
I0
I1
I0
I0
I0
I0
tp4839
a(I0
I0
I1
I0
I0
I0
I0
tp4840
aa(lp4841
(I0
I0
I0
I0
I0
I0
I0
tp4842
a(I0
I0
I0
I0
I0
I0
I0
tp4843
a(I0
I0
I0
I0
I0
I1
I0
tp4844
a(I0
I0
I0
I1
I0
I0
I0
tp4845
a(I1
I1
I0
I1
I0
I1
I1
tp4846
a(I0
I0
I1
I0
I0
I0
I0
tp4847
a(I0
I0
I1
I0
I0
I0
I0
tp4848
aa(lp4849
(I0
I0
I1
I0
I0
I0
I0
tp4850
a(I0
I0
I1
I0
I0
I0
I0
tp4851
a(I0
I0
I0
I0
I0
I1
I0
tp4852
a(I0
I1
I0
I0
I0
I0
I0
tp4853
a(I0
I0
I0
I1
I0
I1
I0
tp4854
a(I0
I0
I0
I0
I0
I0
I0
tp4855
a(I0
I0
I1
I0
I0
I0
I0
tp4856
aa(lp4857
(I0
I0
I1
I0
I0
I0
I0
tp4858
a(I0
I0
I0
I0
I0
I0
I0
tp4859
a(I0
I0
I0
I0
I0
I1
I0
tp4860
a(I1
I0
I0
I0
I0
I0
I0
tp4861
a(I0
I0
I0
I1
I0
I1
I0
tp4862
a(I0
I0
I0
I0
I0
I0
I0
tp4863
a(I0
I0
I1
I0
I0
I0
I0
tp4864
aa(lp4865
(I0
I0
I1
I0
I0
I0
I0
tp4866
a(I0
I0
I0
I0
I0
I0
I0
tp4867
a(I0
I0
I0
I0
I0
I1
I0
tp4868
a(I1
I0
I0
I0
I0
I0
I0
tp4869
a(I0
I0
I0
I1
I1
I1
I0
tp4870
a(I0
I0
I0
I0
I0
I0
I0
tp4871
a(I0
I0
I1
I0
I0
I0
I0
tp4872
aa(lp4873
(I0
I0
I1
I0
I0
I0
I0
tp4874
a(I0
I0
I1
I0
I0
I0
I0
tp4875
a(I0
I0
I1
I0
I0
I1
I0
tp4876
a(I0
I1
I0
I1
I1
I0
I0
tp4877
a(I0
I0
I0
I1
I1
I1
I0
tp4878
a(I0
I0
I1
I0
I0
I0
I0
tp4879
a(I0
I0
I1
I0
I0
I0
I0
tp4880
aa(lp4881
(I0
I0
I1
I0
I0
I0
I0
tp4882
a(I0
I0
I1
I0
I0
I0
I0
tp4883
a(I0
I0
I1
I0
I0
I1
I0
tp4884
a(I0
I1
I0
I1
I1
I0
I0
tp4885
a(I0
I1
I1
I0
I0
I1
I1
tp4886
a(I0
I0
I1
I0
I0
I0
I0
tp4887
a(I0
I0
I1
I0
I0
I0
I0
tp4888
aa(lp4889
(I0
I0
I1
I0
I0
I0
I0
tp4890
a(I0
I0
I1
I0
I0
I0
I0
tp4891
a(I0
I0
I1
I0
I0
I1
I0
tp4892
a(I0
I1
I0
I1
I1
I0
I0
tp4893
a(I1
I1
I1
I0
I1
I1
I0
tp4894
a(I0
I0
I1
I0
I0
I0
I0
tp4895
a(I0
I0
I1
I0
I0
I0
I0
tp4896
aa(lp4897
(I0
I0
I1
I0
I0
I0
I0
tp4898
a(I0
I0
I1
I0
I0
I0
I0
tp4899
a(I0
I0
I1
I0
I0
I1
I0
tp4900
a(I0
I1
I0
I1
I1
I0
I0
tp4901
a(I1
I1
I1
I0
I0
I1
I0
tp4902
a(I0
I0
I1
I0
I0
I0
I0
tp4903
a(I0
I0
I1
I0
I0
I0
I0
tp4904
aa(lp4905
(I0
I0
I1
I0
I0
I0
I0
tp4906
a(I0
I0
I1
I0
I0
I0
I0
tp4907
a(I0
I0
I1
I0
I0
I1
I0
tp4908
a(I0
I1
I0
I1
I1
I0
I0
tp4909
a(I1
I1
I1
I1
I0
I1
I0
tp4910
a(I0
I0
I1
I0
I0
I0
I0
tp4911
a(I0
I0
I1
I0
I0
I0
I0
tp4912
aa(lp4913
(I0
I0
I1
I0
I0
I0
I0
tp4914
a(I0
I0
I1
I0
I0
I0
I0
tp4915
a(I0
I0
I1
I0
I0
I1
I0
tp4916
a(I0
I1
I0
I0
I1
I0
I0
tp4917
a(I0
I1
I0
I0
I0
I1
I1
tp4918
a(I0
I0
I1
I0
I0
I0
I0
tp4919
a(I0
I0
I1
I0
I0
I0
I0
tp4920
aa(lp4921
(I0
I0
I1
I0
I0
I0
I0
tp4922
a(I0
I0
I1
I0
I0
I0
I0
tp4923
a(I0
I0
I1
I0
I0
I1
I0
tp4924
a(I0
I1
I0
I0
I1
I0
I0
tp4925
a(I0
I1
I1
I1
I0
I1
I0
tp4926
a(I0
I0
I1
I0
I0
I0
I0
tp4927
a(I0
I0
I1
I0
I0
I0
I0
tp4928
aa(lp4929
(I0
I0
I1
I0
I0
I0
I0
tp4930
a(I0
I0
I1
I0
I0
I0
I0
tp4931
a(I0
I0
I1
I0
I0
I1
I0
tp4932
a(I0
I1
I0
I0
I1
I0
I0
tp4933
a(I1
I1
I1
I0
I0
I1
I0
tp4934
a(I0
I0
I1
I0
I0
I0
I0
tp4935
a(I0
I0
I1
I0
I0
I0
I0
tp4936
aa(lp4937
(I0
I0
I1
I0
I0
I0
I0
tp4938
a(I0
I0
I1
I0
I0
I0
I0
tp4939
a(I0
I0
I1
I0
I0
I1
I0
tp4940
a(I0
I1
I0
I0
I1
I0
I0
tp4941
a(I0
I1
I0
I1
I0
I1
I1
tp4942
a(I0
I0
I1
I0
I0
I0
I0
tp4943
a(I0
I0
I1
I0
I0
I0
I0
tp4944
aa(lp4945
(I0
I0
I1
I0
I0
I0
I0
tp4946
a(I0
I0
I1
I0
I0
I0
I0
tp4947
a(I0
I0
I1
I0
I0
I1
I0
tp4948
a(I0
I1
I0
I0
I1
I0
I0
tp4949
a(I1
I1
I1
I1
I0
I1
I0
tp4950
a(I0
I0
I1
I0
I0
I0
I0
tp4951
a(I0
I0
I1
I0
I0
I0
I0
tp4952
aa(lp4953
(I0
I0
I1
I0
I0
I0
I0
tp4954
a(I0
I0
I1
I0
I0
I0
I0
tp4955
a(I0
I0
I1
I0
I0
I1
I0
tp4956
a(I0
I1
I0
I0
I1
I0
I0
tp4957
a(I1
I0
I0
I1
I0
I1
I1
tp4958
a(I0
I0
I1
I0
I0
I0
I0
tp4959
a(I0
I0
I1
I0
I0
I0
I0
tp4960
aa(lp4961
(I0
I0
I1
I0
I0
I0
I0
tp4962
a(I0
I0
I1
I0
I0
I0
I0
tp4963
a(I0
I0
I1
I0
I0
I1
I0
tp4964
a(I1
I0
I0
I1
I0
I0
I0
tp4965
a(I1
I1
I0
I1
I0
I1
I0
tp4966
a(I0
I0
I1
I0
I0
I0
I0
tp4967
a(I0
I0
I1
I0
I0
I0
I0
tp4968
aa(lp4969
(I0
I0
I1
I0
I0
I0
I0
tp4970
a(I0
I0
I1
I0
I0
I0
I0
tp4971
a(I0
I0
I1
I0
I0
I1
I0
tp4972
a(I1
I1
I1
I0
I0
I0
I0
tp4973
a(I0
I1
I0
I1
I0
I1
I0
tp4974
a(I0
I0
I1
I0
I0
I0
I0
tp4975
a(I0
I0
I1
I0
I0
I0
I0
tp4976
aa(lp4977
(I0
I0
I1
I0
I0
I0
I0
tp4978
a(I0
I0
I1
I0
I0
I0
I0
tp4979
a(I0
I0
I1
I0
I0
I1
I0
tp4980
a(I0
I1
I0
I1
I0
I0
I0
tp4981
a(I0
I0
I0
I1
I0
I1
I0
tp4982
a(I0
I0
I1
I0
I0
I0
I0
tp4983
a(I0
I0
I1
I0
I0
I0
I0
tp4984
aa(lp4985
(I0
I0
I1
I0
I0
I0
I0
tp4986
a(I0
I0
I1
I0
I0
I0
I0
tp4987
a(I0
I0
I1
I0
I0
I1
I0
tp4988
a(I0
I1
I1
I1
I0
I0
I0
tp4989
a(I1
I0
I1
I1
I0
I1
I0
tp4990
a(I0
I0
I1
I0
I0
I0
I0
tp4991
a(I0
I0
I1
I0
I0
I0
I0
tp4992
aa(lp4993
(I0
I0
I1
I0
I0
I0
I0
tp4994
a(I0
I0
I1
I0
I0
I0
I0
tp4995
a(I0
I0
I1
I0
I0
I1
I0
tp4996
a(I0
I0
I0
I1
I0
I0
I0
tp4997
a(I1
I0
I0
I1
I0
I1
I0
tp4998
a(I0
I0
I1
I0
I0
I0
I0
tp4999
a(I0
I0
I1
I0
I0
I0
I0
tp5000
aa(lp5001
(I0
I0
I1
I0
I0
I0
I0
tp5002
a(I0
I0
I1
I0
I0
I0
I0
tp5003
a(I0
I0
I1
I0
I0
I1
I0
tp5004
a(I0
I0
I0
I1
I0
I0
I0
tp5005
a(I1
I1
I0
I1
I0
I1
I0
tp5006
a(I0
I0
I1
I0
I0
I0
I0
tp5007
a(I0
I0
I1
I0
I0
I0
I0
tp5008
aa(lp5009
(I0
I0
I1
I0
I0
I0
I0
tp5010
a(I0
I0
I1
I0
I0
I0
I0
tp5011
a(I0
I0
I1
I0
I0
I1
I0
tp5012
a(I0
I0
I0
I1
I0
I0
I0
tp5013
a(I0
I0
I0
I1
I0
I1
I0
tp5014
a(I0
I0
I1
I0
I0
I0
I0
tp5015
a(I0
I0
I1
I0
I0
I0
I0
tp5016
aa(lp5017
(I0
I0
I1
I0
I0
I0
I0
tp5018
a(I0
I0
I1
I0
I0
I0
I0
tp5019
a(I0
I0
I1
I0
I0
I1
I0
tp5020
a(I0
I0
I0
I1
I0
I0
I0
tp5021
a(I1
I0
I1
I1
I0
I0
I0
tp5022
a(I0
I0
I1
I0
I0
I0
I0
tp5023
a(I0
I0
I1
I0
I0
I0
I0
tp5024
aa(lp5025
(I0
I0
I1
I0
I0
I0
I0
tp5026
a(I0
I0
I1
I0
I0
I0
I0
tp5027
a(I0
I0
I1
I0
I0
I1
I0
tp5028
a(I0
I1
I0
I0
I0
I0
I0
tp5029
a(I0
I0
I0
I1
I0
I1
I0
tp5030
a(I0
I0
I1
I0
I0
I0
I0
tp5031
a(I0
I0
I1
I0
I0
I0
I0
tp5032
aa(lp5033
(I0
I0
I1
I0
I0
I0
I0
tp5034
a(I0
I0
I1
I0
I0
I0
I0
tp5035
a(I0
I0
I1
I0
I0
I1
I0
tp5036
a(I1
I0
I0
I1
I0
I0
I0
tp5037
a(I1
I0
I0
I1
I0
I1
I0
tp5038
a(I0
I0
I0
I0
I0
I0
I0
tp5039
a(I0
I0
I1
I0
I0
I0
I0
tp5040
aa(lp5041
(I0
I0
I1
I0
I0
I0
I0
tp5042
a(I0
I0
I1
I0
I0
I0
I0
tp5043
a(I0
I0
I1
I0
I0
I1
I0
tp5044
a(I0
I1
I0
I1
I0
I0
I0
tp5045
a(I0
I1
I1
I1
I0
I1
I0
tp5046
a(I0
I0
I0
I0
I0
I0
I0
tp5047
a(I0
I0
I1
I0
I0
I0
I0
tp5048
aa(lp5049
(I0
I0
I1
I0
I0
I0
I0
tp5050
a(I0
I0
I1
I0
I0
I0
I0
tp5051
a(I0
I0
I1
I0
I0
I1
I0
tp5052
a(I0
I1
I0
I1
I0
I0
I0
tp5053
a(I0
I0
I0
I1
I1
I1
I0
tp5054
a(I0
I0
I0
I0
I0
I0
I0
tp5055
a(I0
I0
I1
I0
I0
I0
I0
tp5056
aa(lp5057
(I0
I0
I1
I0
I0
I0
I0
tp5058
a(I0
I0
I0
I0
I0
I0
I0
tp5059
a(I0
I0
I1
I0
I0
I1
I0
tp5060
a(I0
I1
I1
I1
I0
I0
I0
tp5061
a(I1
I0
I1
I1
I0
I1
I0
tp5062
a(I0
I0
I1
I0
I0
I0
I0
tp5063
a(I0
I0
I1
I0
I0
I0
I0
tp5064
aa(lp5065
(I0
I0
I1
I0
I0
I0
I0
tp5066
a(I0
I0
I0
I0
I0
I0
I0
tp5067
a(I0
I0
I1
I0
I0
I1
I0
tp5068
a(I0
I0
I0
I1
I0
I0
I0
tp5069
a(I1
I1
I0
I1
I0
I0
I0
tp5070
a(I0
I0
I1
I0
I0
I0
I0
tp5071
a(I0
I0
I1
I0
I0
I0
I0
tp5072
aa(lp5073
(I0
I0
I1
I0
I0
I0
I0
tp5074
a(I0
I0
I0
I0
I0
I0
I0
tp5075
a(I0
I0
I1
I0
I0
I1
I0
tp5076
a(I0
I0
I0
I1
I0
I0
I0
tp5077
a(I1
I1
I0
I1
I0
I1
I0
tp5078
a(I0
I0
I1
I0
I0
I0
I0
tp5079
a(I0
I0
I1
I0
I0
I0
I0
tp5080
aa(lp5081
(I0
I0
I1
I0
I0
I0
I0
tp5082
a(I0
I0
I0
I0
I0
I0
I0
tp5083
a(I0
I0
I1
I0
I0
I1
I0
tp5084
a(I0
I0
I0
I1
I0
I0
I0
tp5085
a(I1
I0
I0
I1
I0
I1
I1
tp5086
a(I0
I0
I1
I0
I0
I0
I0
tp5087
a(I0
I0
I1
I0
I0
I0
I0
tp5088
aa(lp5089
(I0
I0
I1
I0
I0
I0
I0
tp5090
a(I0
I0
I0
I0
I0
I0
I0
tp5091
a(I0
I0
I1
I0
I0
I1
I0
tp5092
a(I0
I0
I0
I1
I0
I0
I0
tp5093
a(I0
I0
I0
I1
I0
I1
I0
tp5094
a(I0
I0
I1
I0
I0
I0
I0
tp5095
a(I0
I0
I1
I0
I0
I0
I0
tp5096
aa(lp5097
(I0
I0
I1
I0
I0
I0
I0
tp5098
a(I0
I0
I0
I0
I0
I0
I0
tp5099
a(I0
I0
I1
I0
I0
I1
I0
tp5100
a(I0
I0
I0
I1
I0
I0
I0
tp5101
a(I1
I1
I0
I1
I0
I1
I1
tp5102
a(I0
I0
I1
I0
I0
I0
I0
tp5103
a(I0
I0
I1
I0
I0
I0
I0
tp5104
aa(lp5105
(I0
I0
I1
I0
I0
I0
I0
tp5106
a(I0
I0
I0
I0
I0
I0
I0
tp5107
a(I0
I0
I1
I0
I0
I1
I0
tp5108
a(I0
I0
I0
I1
I0
I0
I0
tp5109
a(I0
I0
I0
I1
I0
I1
I1
tp5110
a(I0
I0
I1
I0
I0
I0
I0
tp5111
a(I0
I0
I1
I0
I0
I0
I0
tp5112
aa(lp5113
(I0
I0
I1
I0
I0
I0
I0
tp5114
a(I0
I0
I0
I0
I0
I0
I0
tp5115
a(I0
I0
I1
I0
I0
I1
I0
tp5116
a(I1
I0
I0
I1
I0
I0
I0
tp5117
a(I1
I0
I0
I1
I0
I1
I0
tp5118
a(I0
I0
I0
I0
I0
I0
I0
tp5119
a(I0
I0
I1
I0
I0
I0
I0
tp5120
aa(lp5121
(I0
I0
I1
I0
I0
I0
I0
tp5122
a(I0
I0
I0
I0
I0
I0
I0
tp5123
a(I0
I0
I1
I0
I0
I1
I0
tp5124
a(I1
I0
I0
I1
I0
I0
I0
tp5125
a(I1
I1
I0
I1
I0
I1
I1
tp5126
a(I0
I0
I0
I0
I0
I0
I0
tp5127
a(I0
I0
I1
I0
I0
I0
I0
tp5128
aa(lp5129
(I0
I0
I1
I0
I0
I0
I0
tp5130
a(I0
I0
I0
I0
I0
I0
I0
tp5131
a(I0
I0
I1
I0
I0
I1
I0
tp5132
a(I1
I1
I0
I0
I0
I0
I0
tp5133
a(I0
I0
I0
I1
I0
I1
I0
tp5134
a(I0
I0
I0
I0
I0
I0
I0
tp5135
a(I0
I0
I1
I0
I0
I0
I0
tp5136
aa(lp5137
(I0
I0
I1
I0
I0
I0
I0
tp5138
a(I0
I0
I1
I0
I0
I0
I0
tp5139
a(I0
I0
I1
I0
I0
I0
I0
tp5140
a(I1
I1
I0
I0
I0
I0
I0
tp5141
a(I0
I0
I0
I1
I0
I1
I0
tp5142
a(I0
I0
I1
I0
I0
I1
I0
tp5143
a(I0
I0
I1
I0
I0
I0
I0
tp5144
aa(lp5145
(I0
I0
I1
I0
I0
I0
I0
tp5146
a(I0
I0
I1
I0
I0
I0
I0
tp5147
a(I0
I0
I1
I0
I0
I0
I0
tp5148
a(I0
I1
I1
I1
I0
I0
I0
tp5149
a(I1
I1
I1
I1
I1
I1
I0
tp5150
a(I0
I0
I1
I0
I0
I1
I0
tp5151
a(I0
I0
I1
I0
I0
I0
I0
tp5152
aa(lp5153
(I0
I0
I1
I0
I0
I0
I0
tp5154
a(I0
I0
I1
I0
I0
I1
I0
tp5155
a(I0
I0
I1
I0
I0
I0
I0
tp5156
a(I1
I0
I0
I1
I0
I0
I0
tp5157
a(I1
I1
I1
I0
I0
I1
I0
tp5158
a(I0
I0
I1
I0
I0
I0
I0
tp5159
a(I0
I0
I1
I0
I0
I0
I0
tp5160
aa(lp5161
(I0
I0
I1
I0
I0
I0
I0
tp5162
a(I0
I0
I1
I1
I0
I0
I0
tp5163
a(I0
I0
I1
I0
I0
I0
I0
tp5164
a(I1
I1
I0
I0
I0
I0
I0
tp5165
a(I0
I0
I0
I1
I0
I1
I0
tp5166
a(I0
I0
I1
I0
I0
I0
I0
tp5167
a(I0
I0
I1
I0
I0
I0
I0
tp5168
aa(lp5169
(I0
I0
I1
I0
I0
I0
I0
tp5170
a(I0
I0
I1
I1
I0
I0
I0
tp5171
a(I0
I0
I1
I0
I0
I0
I0
tp5172
a(I1
I1
I0
I0
I0
I0
I0
tp5173
a(I0
I0
I0
I1
I0
I1
I1
tp5174
a(I0
I0
I1
I0
I0
I0
I0
tp5175
a(I0
I0
I1
I0
I0
I0
I0
tp5176
aa(lp5177
(I0
I0
I1
I1
I0
I0
I0
tp5178
a(I0
I0
I1
I0
I0
I0
I0
tp5179
a(I0
I0
I1
I0
I0
I0
I0
tp5180
a(I1
I1
I0
I0
I0
I0
I0
tp5181
a(I1
I1
I0
I1
I1
I1
I1
tp5182
a(I0
I0
I1
I0
I0
I0
I0
tp5183
a(I0
I0
I1
I0
I0
I0
I0
tp5184
aa(lp5185
(I0
I0
I1
I0
I0
I0
I0
tp5186
a(I0
I0
I1
I0
I0
I0
I0
tp5187
a(I0
I0
I1
I0
I0
I0
I0
tp5188
a(I1
I1
I0
I0
I1
I0
I0
tp5189
a(I0
I1
I0
I1
I0
I1
I1
tp5190
a(I0
I0
I1
I0
I0
I0
I0
tp5191
a(I0
I0
I1
I0
I0
I0
I0
tp5192
aa(lp5193
(I0
I0
I1
I0
I0
I0
I0
tp5194
a(I0
I0
I1
I0
I0
I0
I0
tp5195
a(I0
I0
I1
I0
I0
I0
I0
tp5196
a(I1
I1
I0
I0
I1
I0
I0
tp5197
a(I1
I1
I1
I1
I0
I1
I1
tp5198
a(I0
I0
I1
I0
I0
I0
I0
tp5199
a(I0
I0
I1
I0
I0
I0
I0
tp5200
aa(lp5201
(I0
I0
I1
I0
I0
I0
I0
tp5202
a(I0
I0
I1
I0
I0
I0
I0
tp5203
a(I0
I0
I1
I0
I0
I0
I0
tp5204
a(I1
I1
I0
I0
I1
I0
I0
tp5205
a(I1
I0
I0
I1
I0
I0
I0
tp5206
a(I0
I0
I1
I0
I0
I0
I0
tp5207
a(I0
I0
I1
I0
I0
I0
I0
tp5208
aa(lp5209
(I0
I0
I1
I0
I0
I0
I0
tp5210
a(I0
I0
I1
I0
I0
I0
I0
tp5211
a(I0
I0
I1
I0
I0
I0
I0
tp5212
a(I0
I1
I0
I1
I1
I0
I0
tp5213
a(I1
I1
I1
I0
I0
I1
I0
tp5214
a(I0
I0
I1
I0
I0
I0
I0
tp5215
a(I0
I0
I1
I0
I0
I0
I0
tp5216
aa(lp5217
(I0
I0
I1
I0
I0
I0
I0
tp5218
a(I0
I0
I1
I0
I0
I0
I0
tp5219
a(I0
I0
I1
I0
I0
I0
I0
tp5220
a(I0
I1
I0
I1
I1
I0
I0
tp5221
a(I1
I1
I1
I1
I0
I1
I0
tp5222
a(I0
I0
I1
I0
I0
I0
I0
tp5223
a(I0
I0
I1
I0
I0
I0
I0
tp5224
aa(lp5225
(I0
I0
I1
I0
I0
I0
I0
tp5226
a(I0
I0
I1
I0
I0
I0
I0
tp5227
a(I0
I0
I1
I0
I0
I0
I0
tp5228
a(I1
I0
I0
I1
I0
I0
I0
tp5229
a(I1
I0
I0
I1
I0
I0
I0
tp5230
a(I0
I0
I1
I0
I0
I0
I0
tp5231
a(I0
I0
I1
I0
I0
I0
I0
tp5232
aa(lp5233
(I0
I0
I1
I0
I0
I0
I0
tp5234
a(I0
I0
I1
I0
I0
I0
I0
tp5235
a(I0
I0
I1
I0
I0
I0
I0
tp5236
a(I1
I1
I0
I1
I0
I0
I0
tp5237
a(I0
I1
I0
I1
I0
I1
I0
tp5238
a(I0
I0
I1
I0
I0
I0
I0
tp5239
a(I0
I0
I1
I0
I0
I0
I0
tp5240
aa(lp5241
(I0
I0
I1
I0
I0
I0
I0
tp5242
a(I0
I0
I1
I0
I0
I0
I0
tp5243
a(I0
I0
I1
I0
I0
I0
I0
tp5244
a(I1
I1
I0
I0
I0
I0
I0
tp5245
a(I1
I1
I0
I1
I0
I1
I0
tp5246
a(I0
I0
I1
I0
I0
I0
I0
tp5247
a(I0
I0
I1
I0
I0
I0
I0
tp5248
aa(lp5249
(I0
I0
I1
I0
I0
I0
I0
tp5250
a(I0
I0
I1
I0
I0
I0
I0
tp5251
a(I0
I0
I1
I0
I0
I0
I0
tp5252
a(I1
I1
I0
I0
I0
I0
I0
tp5253
a(I1
I1
I0
I1
I0
I1
I1
tp5254
a(I0
I0
I1
I0
I0
I0
I0
tp5255
a(I0
I0
I1
I0
I0
I0
I0
tp5256
aa(lp5257
(I0
I0
I1
I0
I0
I0
I0
tp5258
a(I0
I0
I1
I0
I0
I0
I0
tp5259
a(I0
I0
I1
I0
I0
I0
I0
tp5260
a(I0
I1
I1
I1
I0
I0
I0
tp5261
a(I1
I1
I1
I1
I0
I1
I0
tp5262
a(I0
I0
I1
I0
I0
I0
I0
tp5263
a(I0
I0
I1
I0
I0
I0
I0
tp5264
aa(lp5265
(I0
I0
I1
I0
I0
I0
I0
tp5266
a(I0
I0
I1
I0
I0
I0
I0
tp5267
a(I0
I0
I1
I0
I0
I0
I0
tp5268
a(I0
I1
I1
I1
I0
I0
I0
tp5269
a(I1
I1
I0
I1
I0
I1
I0
tp5270
a(I0
I0
I1
I0
I0
I0
I0
tp5271
a(I0
I0
I1
I0
I0
I0
I0
tp5272
aa(lp5273
(I0
I0
I1
I0
I0
I0
I0
tp5274
a(I0
I0
I1
I0
I0
I0
I0
tp5275
a(I0
I0
I1
I0
I0
I0
I0
tp5276
a(I0
I1
I1
I1
I0
I0
I0
tp5277
a(I1
I1
I0
I1
I0
I1
I1
tp5278
a(I0
I0
I1
I0
I0
I0
I0
tp5279
a(I0
I0
I1
I0
I0
I0
I0
tp5280
aa(lp5281
(I0
I0
I1
I0
I0
I0
I0
tp5282
a(I0
I0
I1
I0
I0
I0
I0
tp5283
a(I0
I0
I1
I0
I0
I0
I0
tp5284
a(I0
I1
I0
I0
I0
I0
I0
tp5285
a(I1
I1
I0
I1
I1
I1
I1
tp5286
a(I0
I0
I1
I0
I0
I0
I0
tp5287
a(I0
I0
I1
I0
I0
I0
I0
tp5288
aa(lp5289
(I0
I0
I1
I0
I0
I0
I0
tp5290
a(I0
I0
I1
I0
I0
I0
I0
tp5291
a(I0
I0
I1
I0
I0
I0
I0
tp5292
a(I0
I1
I0
I0
I0
I0
I0
tp5293
a(I1
I1
I0
I1
I0
I1
I0
tp5294
a(I0
I0
I1
I0
I0
I0
I0
tp5295
a(I0
I0
I1
I0
I0
I0
I0
tp5296
aa(lp5297
(I0
I0
I1
I0
I0
I0
I0
tp5298
a(I0
I0
I0
I0
I0
I0
I0
tp5299
a(I0
I0
I1
I0
I0
I0
I0
tp5300
a(I0
I0
I0
I1
I0
I0
I0
tp5301
a(I1
I1
I0
I1
I0
I1
I0
tp5302
a(I0
I0
I1
I0
I0
I0
I0
tp5303
a(I0
I0
I1
I0
I0
I0
I0
tp5304
aa(lp5305
(I0
I0
I1
I0
I0
I0
I0
tp5306
a(I0
I0
I0
I0
I0
I0
I0
tp5307
a(I0
I0
I1
I0
I0
I0
I0
tp5308
a(I0
I0
I0
I1
I0
I0
I0
tp5309
a(I1
I0
I0
I1
I0
I0
I0
tp5310
a(I0
I0
I1
I0
I0
I0
I0
tp5311
a(I0
I0
I1
I0
I0
I0
I0
tp5312
aa(lp5313
(I0
I0
I1
I0
I0
I0
I0
tp5314
a(I0
I0
I0
I0
I0
I0
I0
tp5315
a(I0
I0
I1
I0
I0
I0
I0
tp5316
a(I0
I0
I0
I1
I0
I0
I0
tp5317
a(I1
I1
I0
I1
I0
I1
I1
tp5318
a(I0
I0
I1
I0
I0
I0
I0
tp5319
a(I0
I0
I1
I0
I0
I0
I0
tp5320
aa(lp5321
(I0
I0
I1
I0
I0
I0
I0
tp5322
a(I0
I0
I0
I0
I0
I0
I0
tp5323
a(I0
I0
I1
I0
I0
I0
I0
tp5324
a(I0
I0
I0
I1
I0
I0
I0
tp5325
a(I1
I0
I0
I1
I0
I1
I1
tp5326
a(I0
I0
I1
I0
I0
I0
I0
tp5327
a(I0
I0
I1
I0
I0
I0
I0
tp5328
aa(lp5329
(I0
I0
I0
I0
I0
I0
I0
tp5330
a(I0
I0
I0
I0
I0
I0
I0
tp5331
a(I0
I0
I1
I0
I0
I0
I0
tp5332
a(I0
I0
I0
I1
I0
I0
I0
tp5333
a(I1
I0
I0
I1
I0
I1
I0
tp5334
a(I0
I0
I1
I0
I0
I0
I0
tp5335
a(I0
I0
I1
I0
I0
I0
I0
tp5336
aa(lp5337
(I0
I0
I1
I0
I0
I0
I0
tp5338
a(I0
I0
I0
I0
I0
I0
I0
tp5339
a(I0
I0
I1
I0
I0
I0
I0
tp5340
a(I0
I0
I0
I1
I0
I0
I0
tp5341
a(I1
I1
I0
I1
I0
I1
I0
tp5342
a(I0
I0
I0
I0
I0
I0
I0
tp5343
a(I0
I0
I1
I0
I0
I0
I0
tp5344
aa(lp5345
(I0
I0
I1
I0
I0
I1
I0
tp5346
a(I1
I1
I0
I0
I1
I0
I0
tp5347
a(I0
I0
I0
I0
I0
I1
I1
tp5348
a(I1
I0
I1
I1
I1
I1
I1
tp5349
a(I0
I0
I1
I1
I0
I1
I0
tp5350
a(I0
I0
I0
I0
I0
I0
I0
tp5351
a(I0
I0
I0
I0
I0
I0
I0
tp5352
aa(lp5353
(I0
I0
I1
I1
I1
I1
I1
tp5354
a(I0
I1
I1
I0
I1
I1
I0
tp5355
a(I1
I0
I0
I1
I1
I0
I0
tp5356
a(I0
I0
I0
I1
I1
I1
I0
tp5357
a(I0
I1
I1
I1
I0
I1
I0
tp5358
a(I1
I1
I0
I0
I1
I1
I1
tp5359
a(I0
I0
I0
I0
I0
I0
I0
tp5360
aa(lp5361
(I0
I0
I1
I1
I1
I1
I1
tp5362
a(I0
I1
I1
I0
I1
I1
I0
tp5363
a(I1
I0
I0
I1
I1
I0
I0
tp5364
a(I0
I0
I0
I1
I1
I1
I0
tp5365
a(I1
I0
I1
I1
I0
I1
I0
tp5366
a(I1
I1
I0
I0
I1
I1
I1
tp5367
a(I0
I0
I0
I0
I0
I0
I0
tp5368
aa(lp5369
(I0
I0
I1
I1
I1
I1
I1
tp5370
a(I0
I1
I1
I0
I1
I1
I0
tp5371
a(I1
I0
I0
I1
I1
I0
I0
tp5372
a(I0
I0
I0
I1
I1
I1
I0
tp5373
a(I0
I0
I1
I1
I0
I1
I0
tp5374
a(I1
I1
I0
I0
I1
I1
I1
tp5375
a(I0
I0
I0
I0
I0
I0
I0
tp5376
aa(lp5377
(I0
I1
I1
I0
I1
I1
I1
tp5378
a(I0
I1
I1
I0
I1
I0
I0
tp5379
a(I0
I0
I1
I0
I0
I1
I0
tp5380
a(I1
I0
I0
I1
I1
I0
I0
tp5381
a(I0
I0
I0
I1
I0
I1
I0
tp5382
a(I1
I1
I0
I0
I1
I1
I1
tp5383
a(I0
I0
I0
I0
I0
I0
I0
tp5384
aa(lp5385
(I0
I0
I1
I0
I0
I1
I0
tp5386
a(I1
I1
I0
I0
I1
I0
I0
tp5387
a(I0
I0
I0
I0
I0
I1
I0
tp5388
a(I1
I0
I0
I1
I1
I1
I0
tp5389
a(I0
I0
I0
I1
I0
I1
I1
tp5390
a(I0
I0
I1
I1
I1
I1
I1
tp5391
a(I0
I0
I0
I0
I0
I0
I0
tp5392
aa(lp5393
(I0
I0
I1
I1
I0
I1
I0
tp5394
a(I1
I1
I0
I0
I1
I0
I0
tp5395
a(I0
I0
I0
I0
I0
I1
I0
tp5396
a(I1
I1
I0
I0
I1
I1
I1
tp5397
a(I0
I1
I0
I1
I0
I1
I1
tp5398
a(I0
I0
I1
I1
I1
I1
I1
tp5399
a(I0
I0
I0
I0
I0
I0
I0
tp5400
aa(lp5401
(I0
I0
I1
I1
I0
I1
I0
tp5402
a(I1
I1
I0
I0
I1
I0
I0
tp5403
a(I0
I0
I0
I0
I0
I1
I0
tp5404
a(I1
I1
I0
I0
I1
I1
I1
tp5405
a(I0
I0
I1
I1
I1
I1
I1
tp5406
a(I0
I0
I1
I1
I1
I1
I1
tp5407
a(I0
I0
I0
I0
I0
I0
I0
tp5408
aa(lp5409
(F0.9042271401122333
F114.96002417920474
tp5410
a(F0.9042271401122326
F114.96002417920457
tp5411
a(F0.9040595608514931
F113.51232388087962
tp5412
a(F0.9040595608514931
F113.51232388087962
tp5413
a(F0.9040595608514931
F113.51232388087962
tp5414
a(F0.9031744368081888
F95.6393438386574
tp5415
a(F0.9031744368081888
F95.6393438386574
tp5416
a(F0.9031744368081888
F95.6393438386574
tp5417
a(F0.9031744368081888
F95.6393438386574
tp5418
a(F0.9030751503774352
F94.23721123487826
tp5419
a(F0.9030751503774352
F94.23721123487826
tp5420
a(F0.902152078325361
F94.04237429710159
tp5421
a(F0.9018199890974803
F93.94287623871547
tp5422
a(F0.9010610189603308
F93.38607031726802
tp5423
a(F0.9005379786184282
F93.36265201362103
tp5424
a(F0.9001221571385545
F93.35996564832766
tp5425
a(F0.9000706500863302
F88.73246583072033
tp5426
a(F0.9000706500863298
F88.73246583072012
tp5427
a(F0.9000706500863298
F88.73246583072012
tp5428
a(F0.9000706500863298
F88.73246583072012
tp5429
a(F0.9000706500863298
F88.73246583072012
tp5430
a(F0.9000706500863298
F88.73246583072012
tp5431
a(F0.9000706500863298
F88.73246583072012
tp5432
a(F0.9000706500863298
F88.73246583072012
tp5433
a(F0.9000706500863298
F88.73246583072012
tp5434
a(F0.9000706500863298
F88.73246583072012
tp5435
a(F0.8999637203086265
F87.38234047850062
tp5436
a(F0.8999637203086265
F87.38234047850062
tp5437
a(F0.8999637203086265
F87.38234047850062
tp5438
a(F0.8999637203086265
F87.38234047850062
tp5439
a(F0.8999637203086265
F87.38234047850062
tp5440
a(F0.8999637203086265
F87.38234047850062
tp5441
a(F0.8999637203086265
F87.38234047850062
tp5442
a(F0.8999637203086265
F87.38234047850062
tp5443
a(F0.8999637203086265
F87.38234047850062
tp5444
a(F0.8999637203086259
F87.38234047850048
tp5445
a(F0.8996297747058545
F87.29984121855756
tp5446
a(F0.8996297747058545
F87.29984121855756
tp5447
a(F0.8994417679964479
F87.26242071465975
tp5448
a(F0.8994417679964479
F87.26242071465975
tp5449
a(F0.8992376949897987
F87.13308882021758
tp5450
a(F0.8991190514565534
F86.9873802067936
tp5451
a(F0.8985223763107479
F86.95714065508241
tp5452
a(F0.8985223763107479
F86.95714065508241
tp5453
a(F0.8985223763107479
F86.95714065508241
tp5454
a(F0.8974487623685858
F86.91810797441454
tp5455
a(F0.8974487623685858
F86.91810797441454
tp5456
a(F0.8974487623685858
F86.91810797441454
tp5457
a(F0.8974487623685858
F86.91810797441454
tp5458
a(F0.8970411641629987
F86.77118255368285
tp5459
a(F0.8961825198498874
F85.90833641252983
tp5460
a(F0.8961825198498874
F85.90833641252983
tp5461
a(F0.8961825198498874
F85.90833641252983
tp5462
a(F0.896182519849887
F85.90833641252968
tp5463
a(F0.8953858396337262
F85.79537278694801
tp5464
a(F0.895381454245488
F85.66504579150094
tp5465
a(F0.8947331949769843
F85.57684289322557
tp5466
a(F0.8947261893536859
F85.55199541983694
tp5467
a(F0.8942115207747083
F85.36425690030276
tp5468
a(F0.894211520774708
F85.36425690030275
tp5469
a(F0.894211520774708
F85.36425690030275
tp5470
a(F0.894211520774708
F85.36425690030275
tp5471
a(F0.894211520774708
F85.36425690030275
tp5472
a(F0.894211520774708
F85.36425690030275
tp5473
a(F0.894211520774708
F85.36425690030275
tp5474
a(F0.894211520774708
F85.36425690030275
tp5475
a(F0.894211520774708
F85.36425690030275
tp5476
a(F0.894211520774708
F85.36425690030275
tp5477
a(F0.894211520774708
F85.36425690030275
tp5478
a(F0.8941503122548501
F85.04745386259734
tp5479
a(F0.8937379393691465
F84.9448624681605
tp5480
a(F0.8937379393691465
F84.9448624681605
tp5481
a(F0.8932265645697042
F84.73145494389854
tp5482
a(F0.8930004438631304
F84.64173364654583
tp5483
a(F0.89300044386313
F84.64173364654582
tp5484
a(F0.89300044386313
F84.64173364654582
tp5485
a(F0.8930004438631297
F84.64173364654572
tp5486
a(F0.892956174671727
F84.56171760770297
tp5487
a(F0.8929561746717267
F84.56171760770292
tp5488
a(F0.892956174671726
F84.56171760770289
tp5489
a(F0.892236816810536
F84.52030680867679
tp5490
a(F0.8920740750730972
F84.46205316103287
tp5491
a(F0.8915294972392416
F84.19052041444526
tp5492
a(F0.8904453296270822
F83.80191916075543
tp5493
a(F0.8903492727608782
F83.54133490089278
tp5494
a(F0.8903492727608779
F83.54133490089274
tp5495
a(F0.8903492727608779
F83.54133490089274
tp5496
a(F0.8903492727608779
F83.54133490089274
tp5497
a(F0.8903492727608779
F83.54133490089274
tp5498
a(F0.8903492727608779
F83.54133490089274
tp5499
a(F0.8903492727608779
F83.54133490089274
tp5500
a(F0.8903492727608779
F83.54133490089274
tp5501
a(F0.8892014756058748
F83.46196226486663
tp5502
a(F0.8891758729858554
F83.19418485339409
tp5503
a(F0.8891163045031772
F83.16994606933561
tp5504
a(F0.884538903214877
F82.26119149571204
tp5505
a(F0.8844607989859973
F82.06072524779918
tp5506
a(F0.8844607989859969
F82.0607252477991
tp5507
a(F0.8844607989859969
F82.0607252477991
tp5508
a(F0.8844607989859969
F82.0607252477991
tp5509
a(F0.8844607989859969
F82.0607252477991
tp5510
a(F0.8844607989859969
F82.0607252477991
tp5511
a(F0.8844607989859969
F82.0607252477991
tp5512
a(F0.8844607989859969
F82.0607252477991
tp5513
a(F0.8844607989859969
F82.0607252477991
tp5514
a(F0.8844607989859969
F82.0607252477991
tp5515
a(F0.8842982735072966
F82.0072777703877
tp5516
a(F0.8836400173296414
F81.77781228982481
tp5517
a(F0.8834893859118802
F81.73322853535102
tp5518
a(F0.8828911340406144
F81.69082160974322
tp5519
a(F0.8816488066694053
F81.59184722883178
tp5520
a(F0.8816488066694053
F81.59184722883178
tp5521
a(F0.8816488066694053
F81.59184722883178
tp5522
a(F0.8801595531600546
F80.49187302933078
tp5523
a(F0.8801595531600546
F80.49187302933078
tp5524
a(F0.8797649137128297
F80.27950010315877
tp5525
a(F0.8797649137128297
F80.27950010315877
tp5526
a(F0.8797649137128297
F80.27950010315877
tp5527
a(F0.8786380705525079
F79.96586904565481
tp5528
a(F0.8786380705525079
F79.96586904565481
tp5529
a(F0.8786380705525079
F79.96586904565481
tp5530
a(F0.8786380705525079
F79.96586904565481
tp5531
a(F0.8785707693360723
F79.87768907536203
tp5532
a(F0.8785707693360723
F79.87768907536203
tp5533
a(F0.8785152989166755
F79.8737328731837
tp5534
a(F0.8784897842425106
F79.6206692716046
tp5535
a(F0.8784897842425106
F79.6206692716046
tp5536
a(F0.8784897842425106
F79.6206692716046
tp5537
a(F0.8784897842425106
F79.6206692716046
tp5538
a(F0.8784897842425106
F79.6206692716046
tp5539
a(F0.8784897842425106
F79.6206692716046
tp5540
a(F0.8784897842425106
F79.6206692716046
tp5541
a(F0.8778356992176438
F79.50223963146252
tp5542
a(F0.8774882343153161
F79.31661749026384
tp5543
a(F0.8774882343153153
F79.31661749026375
tp5544
a(F0.8774882343153153
F79.31661749026375
tp5545
a(F0.8774301415089513
F79.26688912053982
tp5546
a(F0.8774301415089507
F79.26688912053977
tp5547
a(F0.8772565383044398
F79.2155404880589
tp5548
a(F0.8769580035307377
F79.10900121101457
tp5549
a(F0.8763657593495069
F79.0823730732685
tp5550
a(F0.8757661568654229
F78.95239879176253
tp5551
a(F0.8750968558773656
F71.8831587439025
tp5552
a(F0.8750968558773656
F71.8831587439025
tp5553
a(F0.8750968558773656
F71.8831587439025
tp5554
a(F0.8750968558773656
F71.8831587439025
tp5555
a(F0.8750637451229533
F71.6885728420961
tp5556
a(F0.8750637451229533
F71.6885728420961
tp5557
a(F0.8750637451229533
F71.6885728420961
tp5558
a(F0.8750637451229533
F71.6885728420961
tp5559
a(F0.8750637451229533
F71.6885728420961
tp5560
a(F0.8750637451229533
F71.6885728420961
tp5561
a(F0.8750637451229533
F71.6885728420961
tp5562
a(F0.8750637451229533
F71.6885728420961
tp5563
a(F0.8750637451229533
F71.6885728420961
tp5564
a(F0.8750637451229533
F71.6885728420961
tp5565
a(F0.8750637451229528
F71.68857284209602
tp5566
a(F0.8750425292915298
F70.45061373761908
tp5567
a(F0.8750219497935714
F70.24590954512254
tp5568
a(F0.8750219497935714
F70.24590954512254
tp5569
a(F0.8750219497935714
F70.24590954512254
tp5570
a(F0.8750219497935714
F70.24590954512254
tp5571
a(F0.8750219497935714
F70.24590954512254
tp5572
a(F0.8740498675976403
F70.23388189543743
tp5573
a(F0.8739408025577653
F69.38183507699421
tp5574
a(F0.8739408025577653
F69.38183507699421
tp5575
a(F0.8737408637323663
F69.37899074463938
tp5576
a(F0.8736907760789072
F69.17039470660441
tp5577
a(F0.8736907760789072
F69.17039470660441
tp5578
a(F0.8735805912218089
F67.9541863105199
tp5579
a(F0.8735591957467629
F67.72995553070794
tp5580
a(F0.8735591957467629
F67.72995553070794
tp5581
a(F0.8735591957467629
F67.72995553070794
tp5582
a(F0.8735591957467629
F67.72995553070794
tp5583
a(F0.8735591957467629
F67.72995553070794
tp5584
a(F0.8735591957467629
F67.72995553070794
tp5585
a(F0.8735591957467629
F67.72995553070794
tp5586
a(F0.8730356788158199
F64.68201717503949
tp5587
a(F0.8730356788158199
F64.68201717503949
tp5588
a(F0.8730356788158199
F64.68201717503949
tp5589
a(F0.8730356788158199
F64.68201717503949
tp5590
a(F0.8730356788158199
F64.68201717503949
tp5591
a(F0.8730238626219777
F64.53210927413241
tp5592
a(F0.8730238626219773
F64.53210927413238
tp5593
a(F0.8730238626219773
F64.53210927413238
tp5594
a(F0.8730238626219773
F64.53210927413238
tp5595
a(F0.8730238626219773
F64.53210927413238
tp5596
a(F0.8730238626219773
F64.53210927413238
tp5597
a(F0.8730238626219773
F64.53210927413238
tp5598
a(F0.8730238626219773
F64.53210927413238
tp5599
a(F0.8730238626219773
F64.53210927413238
tp5600
a(F0.8730238626219773
F64.53210927413238
tp5601
a(F0.8730238626219773
F64.53210927413238
tp5602
a(F0.8729821299480792
F63.32688666213306
tp5603
a(F0.8729812191642834
F63.16743924234455
tp5604
a(F0.872902710414784
F62.99683803005308
tp5605
a(F0.8722600029335801
F62.977897032624924
tp5606
a(F0.8722600029335801
F62.977897032624924
tp5607
a(F0.8722600029335801
F62.977897032624924
tp5608
a(F0.872215215106005
F62.94307260877137
tp5609
a(F0.872215215106005
F62.94307260877137
tp5610
a(F0.8720704973280733
F62.9183319122081
tp5611
a(F0.8720704973280733
F62.9183319122081
tp5612
a(F0.8720497892188194
F62.840255200484776
tp5613
a(F0.8715469994749299
F62.2974044610814
tp5614
a(F0.8713599899204696
F62.09073421034218
tp5615
a(F0.8712743263297279
F60.73237442605074
tp5616
a(F0.8712743263297279
F60.73237442605074
tp5617
a(F0.8705958777304901
F60.6943361487308
tp5618
a(F0.8705257461729617
F60.68358155446583
tp5619
a(F0.8702444045457414
F60.56103224160249
tp5620
a(F0.870232579035503
F60.52933455938849
tp5621
a(F0.870232579035503
F60.52933455938849
tp5622
a(F0.8700190836468636
F60.482725393279836
tp5623
a(F0.8700190836468636
F60.482725393279836
tp5624
a(F0.8700190836468636
F60.482725393279836
tp5625
a(F0.8691053612052637
F60.372743710980814
tp5626
a(F0.8681407916959774
F60.34437733092324
tp5627
a(F0.8673975779195906
F60.31207456837981
tp5628
a(F0.8673391677418073
F59.65922749783476
tp5629
a(F0.867263740036549
F59.44624507592343
tp5630
a(F0.867263740036549
F59.44624507592343
tp5631
a(F0.867263740036549
F59.44624507592343
tp5632
a(F0.8668328092932601
F59.18201916884808
tp5633
a(F0.8668328092932601
F59.18201916884808
tp5634
a(F0.8663179163160519
F59.129963670511714
tp5635
a(F0.8663179163160519
F59.129963670511714
tp5636
a(F0.8659380882117875
F59.106492252587735
tp5637
a(F0.8659380882117875
F59.106492252587735
tp5638
a(F0.8659380882117871
F59.10649225258772
tp5639
a(F0.8654731716241246
F58.74194809647227
tp5640
a(F0.8653738108468866
F58.57202840717147
tp5641
a(F0.8653738108468866
F58.57202840717147
tp5642
a(F0.8651543472049786
F58.34084181947257
tp5643
a(F0.8651543472049786
F58.34084181947257
tp5644
a(F0.8651150612385281
F58.28331171910852
tp5645
a(F0.8651150612385281
F58.28331171910852
tp5646
a(F0.8651150612385281
F58.28331171910852
tp5647
a(F0.8651150612385281
F58.28331171910852
tp5648
a(F0.8651150612385281
F58.28331171910852
tp5649
a(F0.8642529233794456
F58.27122240820117
tp5650
a(F0.8642529233794456
F58.27122240820117
tp5651
a(F0.8640037026581382
F58.245760260538304
tp5652
a(F0.8638281593592464
F58.027591069115076
tp5653
a(F0.8636350858989337
F57.99842920486517
tp5654
a(F0.8635912252880464
F57.89903691670851
tp5655
a(F0.8635912252880464
F57.89903691670851
tp5656
a(F0.8635912252880463
F57.89903691670848
tp5657
a(F0.8623111946063247
F56.89393478339176
tp5658
a(F0.861027723867696
F56.85848607723156
tp5659
a(F0.86072253967551
F56.25456666263263
tp5660
a(F0.8594947810232106
F56.242827249595635
tp5661
a(F0.8588089724483213
F56.19796035915861
tp5662
a(F0.8588089724483213
F56.19796035915861
tp5663
a(F0.8588089724483213
F56.19796035915861
tp5664
a(F0.8588089724483213
F56.19796035915861
tp5665
a(F0.8588089724483213
F56.19796035915861
tp5666
a(F0.8578680421436953
F56.094171479199645
tp5667
a(F0.8572422189855613
F55.5204527461012
tp5668
a(F0.8572422189855613
F55.5204527461012
tp5669
a(F0.8571992948335679
F55.45017367976897
tp5670
a(F0.8571992948335679
F55.45017367976897
tp5671
a(F0.8567789857815749
F55.18537380629445
tp5672
a(F0.8564435068475255
F55.105887096767646
tp5673
a(F0.8564435068475255
F55.105887096767646
tp5674
a(F0.8563441476541969
F54.641059542076064
tp5675
a(F0.8562708285595831
F54.34400217284057
tp5676
a(F0.8562708285595831
F54.34400217284057
tp5677
a(F0.8562708285595831
F54.34400217284057
tp5678
a(F0.85433091269512
F54.31281012559468
tp5679
a(F0.8533579923668867
F53.959894450664734
tp5680
a(F0.8533579923668867
F53.959894450664734
tp5681
a(F0.8533140717285609
F53.78430843503271
tp5682
a(F0.8519075469155153
F53.74109155426001
tp5683
a(F0.8519075469155153
F53.74109155426001
tp5684
a(F0.8519075469155153
F53.74109155426001
tp5685
a(F0.8519075469155153
F53.74109155426001
tp5686
a(F0.8519075469155153
F53.74109155426001
tp5687
a(F0.8501852656007655
F53.71995678598782
tp5688
a(F0.8501852656007655
F53.71995678598782
tp5689
a(F0.848730369808701
F53.60275013196349
tp5690
a(F0.848730369808701
F53.60275013196349
tp5691
a(F0.8482060515544082
F53.0137262402842
tp5692
a(F0.8473010800143403
F52.66154570521603
tp5693
a(F0.8473010800143403
F52.66154570521603
tp5694
a(F0.8473010800143403
F52.66154570521603
tp5695
a(F0.8470807341691973
F52.33514665932685
tp5696
a(F0.8470807341691973
F52.33514665932685
tp5697
a(F0.8470807341691973
F52.33514665932685
tp5698
a(F0.8469324614670616
F52.19235278807803
tp5699
a(F0.8469324614670616
F52.19235278807803
tp5700
a(F0.8469324614670616
F52.19235278807803
tp5701
a(F0.8455621522447084
F52.191678973883214
tp5702
a(F0.8454947615775276
F51.87056845259083
tp5703
a(F0.8454947615775276
F51.87056845259083
tp5704
a(F0.8452317540598552
F51.763464311389576
tp5705
a(F0.8452317540598552
F51.763464311389576
tp5706
a(F0.8452317540598552
F51.763464311389576
tp5707
a(F0.8452317540598552
F51.763464311389576
tp5708
a(F0.8452317540598552
F51.763464311389576
tp5709
a(F0.8432045250058774
F51.506169023460686
tp5710
a(F0.8400973474309823
F51.33779346692436
tp5711
a(F0.8389814914033515
F51.33703167442812
tp5712
a(F0.8340554090861833
F51.00941668612803
tp5713
a(F0.8340554090861833
F51.00941668612803
tp5714
a(F0.8340554090861833
F51.00941668612803
tp5715
a(F0.8340554090861833
F51.00941668612803
tp5716
a(F0.8339879435501425
F50.8551678521692
tp5717
a(F0.8330009141427338
F50.797764447142505
tp5718
a(F0.8325068396482613
F50.53582961903001
tp5719
a(F0.8324023258364899
F50.34294231381897
tp5720
a(F0.8322326025729163
F50.32037828656561
tp5721
a(F0.8322326025729163
F50.32037828656561
tp5722
a(F0.8318719570542564
F50.220344151376054
tp5723
a(F0.8302153395046548
F50.184492115154384
tp5724
a(F0.8302153395046548
F50.184492115154384
tp5725
a(F0.8302153395046548
F50.184492115154384
tp5726
a(F0.8302153395046548
F50.184492115154384
tp5727
a(F0.8302153395046548
F50.184492115154384
tp5728
a(F0.8301658679263719
F50.16098758382785
tp5729
a(F0.8298972268324972
F49.94717968089814
tp5730
a(F0.8286997598425934
F49.75602098519461
tp5731
a(F0.827347670817001
F49.22279059066757
tp5732
a(F0.8251250103716296
F48.885116075092995
tp5733
a(F0.8246118954045426
F48.6026811014754
tp5734
a(F0.8246118954045426
F48.6026811014754
tp5735
a(F0.8161875771091924
F48.47987198878664
tp5736
a(F0.8161875771091924
F48.47987198878664
tp5737
a(F0.8161875771091924
F48.47987198878664
tp5738
a(F0.8161875771091924
F48.47987198878664
tp5739
a(F0.8161875771091924
F48.47987198878664
tp5740
a(F0.8146970794317705
F48.36750968759043
tp5741
a(F0.8142816441083645
F48.31879624830404
tp5742
a(F0.8142816441083645
F48.31879624830404
tp5743
a(F0.8127412159880786
F48.22966015555755
tp5744
a(F0.8127412159880786
F48.22966015555755
tp5745
a(F0.8125245542856325
F48.01898841334378
tp5746
a(F0.8122404867674973
F47.83478718615157
tp5747
a(F0.8110868271014131
F47.80735303203741
tp5748
a(F0.8106583878392356
F47.781191282894554
tp5749
a(F0.8092866060119897
F47.697403041409714
tp5750
a(F0.8092866060119897
F47.697403041409714
tp5751
a(F0.8089334878314881
F47.684900289636275
tp5752
a(F0.8088237720300473
F47.56835424520155
tp5753
a(F0.8088237720300473
F47.56835424520155
tp5754
a(F0.8088237720300473
F47.56835424520155
tp5755
a(F0.8088237720300473
F47.56835424520155
tp5756
a(F0.8088237720300467
F47.56835424520154
tp5757
a(F0.8086939514877785
F47.252677963181895
tp5758
a(F0.8079292800845088
F42.638901715016814
tp5759
a(F0.8079292800845088
F42.638901715016814
tp5760
a(F0.8079292800845088
F42.638901715016814
tp5761
a(F0.8079292800845088
F42.638901715016814
tp5762
a(F0.8079292800845088
F42.638901715016814
tp5763
a(F0.8079292800845088
F42.638901715016814
tp5764
a(F0.8079292800845088
F42.638901715016814
tp5765
a(F0.8079292800845084
F42.638901715016786
tp5766
a(F0.807904545146144
F42.51829009127511
tp5767
a(F0.8077441216749361
F42.19935366678011
tp5768
a(F0.8077441216749361
F42.19935366678011
tp5769
a(F0.806392414821169
F42.190211603470495
tp5770
a(F0.806392414821169
F42.190211603470495
tp5771
a(F0.806392414821169
F42.190211603470495
tp5772
a(F0.806392414821169
F42.190211603470495
tp5773
a(F0.806392414821169
F42.190211603470495
tp5774
a(F0.806392414821169
F42.190211603470495
tp5775
a(F0.8060994562907919
F42.176149824413486
tp5776
a(F0.8060994562907919
F42.176149824413486
tp5777
a(F0.8060994562907919
F42.176149824413486
tp5778
a(F0.8060994562907919
F42.176149824413486
tp5779
a(F0.8060994562907919
F42.176149824413486
tp5780
a(F0.8060919368433092
F42.09358672681758
tp5781
a(F0.8060919368433092
F42.09358672681758
tp5782
a(F0.8060653055473399
F42.06196792842497
tp5783
a(F0.8060653055473399
F42.06196792842497
tp5784
a(F0.8060653055473399
F42.06196792842497
tp5785
a(F0.8060653055473399
F42.06196792842497
tp5786
a(F0.8060653055473399
F42.06196792842497
tp5787
a(F0.8060653055473399
F42.06196792842497
tp5788
a(F0.8060653055473399
F42.06196792842497
tp5789
a(F0.8060653055473399
F42.06196792842497
tp5790
a(F0.8060653055473399
F42.06196792842497
tp5791
a(F0.8060653055473399
F42.06196792842497
tp5792
a(F0.8046024075210912
F42.01206260075082
tp5793
a(F0.8030630587077346
F41.34234075400468
tp5794
a(F0.8030630587077346
F41.34234075400468
tp5795
a(F0.8026798574611914
F40.801138817514655
tp5796
a(F0.8026244616496498
F40.204837916525534
tp5797
a(F0.8024089585192852
F39.880192963920535
tp5798
a(F0.8024089585192852
F39.880192963920535
tp5799
a(F0.8024089585192852
F39.880192963920535
tp5800
a(F0.8024089585192852
F39.880192963920535
tp5801
a(F0.8017077919705571
F39.86290342704296
tp5802
a(F0.8017077919705571
F39.86290342704296
tp5803
a(F0.8013945395146475
F39.85446535168887
tp5804
a(F0.8013945395146475
F39.85446535168887
tp5805
a(F0.8013945395146475
F39.85446535168887
tp5806
a(F0.8013945395146475
F39.85446535168887
tp5807
a(F0.8013945395146462
F39.854465351688816
tp5808
a(F0.8008080020324313
F39.473590457314394
tp5809
a(F0.7992055219572105
F39.359649256538944
tp5810
a(F0.7992055219572105
F39.359649256538944
tp5811
a(F0.7992055219572105
F39.359649256538944
tp5812
a(F0.7992055219572105
F39.359649256538944
tp5813
a(F0.7992055219572105
F39.359649256538944
tp5814
a(F0.7992055219572105
F39.359649256538944
tp5815
a(F0.7988716464959751
F39.22765525490696
tp5816
a(F0.7982116879345106
F39.203709857343426
tp5817
a(F0.7979871172396402
F39.18287018937697
tp5818
a(F0.7979871172396402
F39.18287018937697
tp5819
a(F0.7979639959314336
F39.11752727502844
tp5820
a(F0.7973437948733868
F39.07721943999201
tp5821
a(F0.7972186391183413
F38.80160210602719
tp5822
a(F0.7972186391183411
F38.80160210602712
tp5823
a(F0.7972057380836148
F38.37869615649717
tp5824
a(F0.7970300624273807
F38.314267644680214
tp5825
a(F0.7970300624273807
F38.314267644680214
tp5826
a(F0.7967787500020357
F38.288848002910576
tp5827
a(F0.7966940373313655
F38.1318958097674
tp5828
a(F0.7965158153621864
F37.813933688507305
tp5829
a(F0.7963278983185739
F37.49224028154964
tp5830
a(F0.7963278983185739
F37.49224028154964
tp5831
a(F0.7961386039357189
F37.18360950865389
tp5832
a(F0.7961386039357189
F37.18360950865389
tp5833
a(F0.7961386039357189
F37.18360950865389
tp5834
a(F0.7961386039357189
F37.18360950865389
tp5835
a(F0.7961386039357189
F37.18360950865389
tp5836
a(F0.7961386039357189
F37.18360950865389
tp5837
a(F0.7961386039357189
F37.18360950865389
tp5838
a(F0.7960157918270188
F37.09714709822947
tp5839
a(F0.7951332454101463
F37.07153237423428
tp5840
a(F0.7951332454101463
F37.07153237423428
tp5841
a(F0.7951332454101463
F37.07153237423428
tp5842
a(F0.7947129298769186
F36.77695526789674
tp5843
a(F0.7947129298769186
F36.77695526789674
tp5844
a(F0.7947129298769186
F36.77695526789674
tp5845
a(F0.7947129298769186
F36.77695526789674
tp5846
a(F0.7946905761010494
F36.6864266523761
tp5847
a(F0.7946073071510993
F36.5616891478994
tp5848
a(F0.7930133483273747
F36.461088854099586
tp5849
a(F0.792738345481615
F36.37991461207614
tp5850
a(F0.792738345481615
F36.37991461207614
tp5851
a(F0.792738345481615
F36.37991461207614
tp5852
a(F0.792738345481615
F36.37991461207614
tp5853
a(F0.7924201352264111
F36.36971040580947
tp5854
a(F0.7924201352264111
F36.36971040580947
tp5855
a(F0.7913469209535235
F36.23932072020112
tp5856
a(F0.7913255457144199
F34.89492163265512
tp5857
a(F0.789425475237153
F34.77319176198474
tp5858
a(F0.789425475237153
F34.77319176198474
tp5859
a(F0.7893083643942996
F34.71800825093429
tp5860
a(F0.789265154947484
F34.408993163173314
tp5861
a(F0.789265154947484
F34.408993163173314
tp5862
a(F0.789265154947484
F34.408993163173314
tp5863
a(F0.789265154947484
F34.408993163173314
tp5864
a(F0.789265154947484
F34.408993163173314
tp5865
a(F0.789265154947484
F34.408993163173314
tp5866
a(F0.789265154947484
F34.408993163173314
tp5867
a(F0.789265154947484
F34.408993163173314
tp5868
a(F0.789265154947484
F34.408993163173314
tp5869
a(F0.789265154947484
F34.408993163173314
tp5870
a(F0.789265154947484
F34.408993163173314
tp5871
a(F0.789265154947484
F34.408993163173314
tp5872
a(F0.7890048455507379
F34.28252176043198
tp5873
a(F0.7890048455507379
F34.28252176043198
tp5874
a(F0.7876706163708413
F34.224484452526944
tp5875
a(F0.7876706163708413
F34.224484452526944
tp5876
a(F0.7876128715769262
F34.023182616859415
tp5877
a(F0.7875271034575388
F33.932021036337346
tp5878
a(F0.7874824549397922
F33.903625537181426
tp5879
a(F0.7874824549397922
F33.903625537181426
tp5880
a(F0.7874824549397922
F33.903625537181426
tp5881
a(F0.7871778313407632
F33.671836201373225
tp5882
a(F0.7871778313407632
F33.671836201373225
tp5883
a(F0.7871778313407632
F33.671836201373225
tp5884
a(F0.7848766487801156
F33.50394013194701
tp5885
a(F0.7848766487801156
F33.50394013194701
tp5886
a(F0.7848766487801156
F33.50394013194701
tp5887
a(F0.7845017352989676
F33.49712513905587
tp5888
a(F0.7845017352989676
F33.49712513905587
tp5889
a(F0.7808806334728347
F33.437427258434965
tp5890
a(F0.7808806334728347
F33.437427258434965
tp5891
a(F0.7804585782063163
F33.17880591176633
tp5892
a(F0.7804585782063163
F33.17880591176633
tp5893
a(F0.7804585782063163
F33.17880591176633
tp5894
a(F0.7785934526679129
F33.110092233491144
tp5895
a(F0.7781414785695268
F32.87377917544248
tp5896
a(F0.7781414785695268
F32.87377917544248
tp5897
a(F0.7781414785695268
F32.87377917544248
tp5898
a(F0.7781414785695268
F32.87377917544248
tp5899
a(F0.7781414785695268
F32.87377917544248
tp5900
a(F0.7781414785695268
F32.87377917544248
tp5901
a(F0.7781414785695268
F32.87377917544248
tp5902
a(F0.7779631070536918
F32.737814461350744
tp5903
a(F0.7779631070536918
F32.737814461350744
tp5904
a(F0.7762156711276621
F32.651877357821675
tp5905
a(F0.7762156711276621
F32.651877357821675
tp5906
a(F0.7761649122641728
F32.1311183603433
tp5907
a(F0.7738205082125297
F31.967536664298805
tp5908
a(F0.7738205082125297
F31.967536664298805
tp5909
a(F0.7738205082125297
F31.967536664298805
tp5910
a(F0.7738205082125297
F31.967536664298805
tp5911
a(F0.7738205082125297
F31.967536664298805
tp5912
a(F0.7699374058824634
F31.701137801341567
tp5913
a(F0.7696507839199686
F31.595521819673188
tp5914
a(F0.7685723460621607
F31.584631462489096
tp5915
a(F0.7685723460621607
F31.584631462489096
tp5916
a(F0.7682496318982396
F31.276941701192378
tp5917
a(F0.7682496318982396
F31.276941701192378
tp5918
a(F0.7682496318982396
F31.276941701192378
tp5919
a(F0.7682496318982396
F31.276941701192378
tp5920
a(F0.7682496318982396
F31.276941701192378
tp5921
a(F0.767986935845135
F31.11417225134603
tp5922
a(F0.767986935845135
F31.11417225134603
tp5923
a(F0.7678600948784942
F30.905164486018442
tp5924
a(F0.7664007174005494
F30.748006974555285
tp5925
a(F0.7664007174005494
F30.748006974555285
tp5926
a(F0.7663564437339637
F30.72803719445873
tp5927
a(F0.766042937514922
F30.518964831622682
tp5928
a(F0.7636960290259971
F30.34249452452525
tp5929
a(F0.7636960290259971
F30.34249452452525
tp5930
a(F0.7636960290259971
F30.34249452452525
tp5931
a(F0.7636960290259971
F30.34249452452525
tp5932
a(F0.7636960290259971
F30.34249452452525
tp5933
a(F0.7636960290259969
F30.34249452452522
tp5934
a(F0.7636960290259969
F30.34249452452522
tp5935
a(F0.7610989927028653
F30.24285336888947
tp5936
a(F0.7594478887884216
F30.240458687491696
tp5937
a(F0.759395430653564
F30.221847363303915
tp5938
a(F0.7590559081824182
F30.016497151917203
tp5939
a(F0.7589480232207098
F30.01168234550415
tp5940
a(F0.756154915429608
F29.79268785501538
tp5941
a(F0.756154915429608
F29.79268785501538
tp5942
a(F0.7552718292833385
F29.783172110196716
tp5943
a(F0.7546912668659456
F29.749168034524544
tp5944
a(F0.7546912668659456
F29.749168034524544
tp5945
a(F0.7546912668659456
F29.749168034524544
tp5946
a(F0.7546912668659451
F29.749168034524494
tp5947
a(F0.7529088264073543
F29.6697166145699
tp5948
a(F0.7517143963697877
F29.448290014123863
tp5949
a(F0.7517143963697877
F29.448290014123863
tp5950
a(F0.7512518763099163
F29.41220534309862
tp5951
a(F0.7512518763099163
F29.41220534309862
tp5952
a(F0.7512518763099163
F29.41220534309862
tp5953
a(F0.7512518763099163
F29.41220534309862
tp5954
a(F0.7512518763099163
F29.41220534309862
tp5955
a(F0.7496743428163397
F29.292500567299957
tp5956
a(F0.7483849705129205
F28.916302923071022
tp5957
a(F0.7483849705129205
F28.916302923071022
tp5958
a(F0.7483849705129205
F28.916302923071022
tp5959
a(F0.7483849705129205
F28.916302923071022
tp5960
a(F0.7479956403507586
F28.91509988369366
tp5961
a(F0.7479956403507586
F28.91509988369366
tp5962
a(F0.7473533252504124
F28.717421886918377
tp5963
a(F0.7473533252504124
F28.717421886918377
tp5964
a(F0.7467366799430065
F28.39153023327809
tp5965
a(F0.7458244421522949
F28.355092078726393
tp5966
a(F0.7458244421522949
F28.355092078726393
tp5967
a(F0.7453696945135281
F28.141309693647603
tp5968
a(F0.7453696945135281
F28.141309693647603
tp5969
a(F0.7422470002969245
F27.980616988331377
tp5970
a(F0.7416970044573807
F27.866013652935152
tp5971
a(F0.7385999261462475
F27.683867986210736
tp5972
a(F0.7383048138333433
F27.667463053384136
tp5973
a(F0.7345747416032209
F27.495503178266766
tp5974
a(F0.7345747416032209
F27.495503178266766
tp5975
a(F0.7335228216081104
F27.48261216451305
tp5976
a(F0.7335228216081104
F27.48261216451305
tp5977
a(F0.7335228216081104
F27.48261216451305
tp5978
a(F0.7335228216081104
F27.48261216451305
tp5979
a(F0.7331706051269867
F27.462341273990532
tp5980
a(F0.7331706051269867
F27.462341273990532
tp5981
a(F0.7320738440792558
F27.433218920825382
tp5982
a(F0.7313923215839292
F27.258432474682174
tp5983
a(F0.7311562173819629
F27.220153655101456
tp5984
a(F0.7311562173819623
F27.220153655101342
tp5985
a(F0.7311562173819623
F27.220153655101342
tp5986
a(F0.7303471144849224
F27.20547104978257
tp5987
a(F0.7303471144849224
F27.20547104978257
tp5988
a(F0.7280916049652066
F27.041561634720715
tp5989
a(F0.7280916049652066
F27.041561634720715
tp5990
a(F0.7275367988194102
F27.0414685126811
tp5991
a(F0.7275367988194102
F27.0414685126811
tp5992
a(F0.7275367988194102
F27.0414685126811
tp5993
a(F0.7267626366545293
F26.516412133362458
tp5994
a(F0.7253462628585762
F26.513351493258444
tp5995
a(F0.7251718663190997
F26.447464489749233
tp5996
a(F0.7249080497351459
F26.334781759854003
tp5997
a(F0.7249080497351459
F26.334781759854003
tp5998
a(F0.7249080497351459
F26.334781759854003
tp5999
a(F0.7219949305194142
F26.2705971004044
tp6000
a(F0.721994930519414
F26.270597100404384
tp6001
a(F0.721994930519414
F26.270597100404384
tp6002
a(F0.7208294341675503
F26.216088128434375
tp6003
a(F0.7208294341675503
F26.216088128434375
tp6004
a(F0.7205414895244361
F26.111263379430163
tp6005
a(F0.7205414895244361
F26.111263379430163
tp6006
a(F0.7205414895244361
F26.111263379430163
tp6007
a(F0.7205414895244361
F26.111263379430163
tp6008
a(F0.7205414895244361
F26.111263379430163
tp6009
a(F0.7205414895244361
F26.111263379430163
tp6010
a(F0.7175606745421732
F25.97706177000524
tp6011
a(F0.7175606745421732
F25.97706177000524
tp6012
a(F0.7175606745421732
F25.97706177000524
tp6013
a(F0.7175606745421732
F25.97706177000524
tp6014
a(F0.7175606745421732
F25.97706177000524
tp6015
a(F0.7157414834321859
F25.85947040885783
tp6016
a(F0.7140703834749326
F25.838466973365634
tp6017
a(F0.7140703834749326
F25.838466973365634
tp6018
a(F0.6956626060698384
F25.829169981227473
tp6019
a(F0.6956626060698384
F25.829169981227473
tp6020
a(F0.6956626060698384
F25.829169981227473
tp6021
a(F0.6956626060698384
F25.829169981227473
tp6022
a(F0.6956626060698384
F25.829169981227473
tp6023
a(F0.6948325535335524
F25.828331781130174
tp6024
a(F0.6948325535335524
F25.828331781130174
tp6025
a(F0.6948325535335524
F25.828331781130174
tp6026
a(F0.6948325535335524
F25.828331781130174
tp6027
a(F0.6948325535335524
F25.828331781130174
tp6028
a(F0.6948325535335524
F25.828331781130174
tp6029
a(F0.6939972078528847
F25.4311899170214
tp6030
a(F0.6939827763068225
F25.29740765684879
tp6031
a(F0.6924666657253775
F25.199034250085703
tp6032
a(F0.6921106352286629
F25.130130423458443
tp6033
a(F0.6917508000594563
F24.996246764369417
tp6034
a(F0.6917508000594563
F24.996246764369417
tp6035
a(F0.6917508000594563
F24.996246764369417
tp6036
a(F0.6917508000594563
F24.996246764369417
tp6037
a(F0.6916115626707355
F24.995602368047926
tp6038
a(F0.6811527375892906
F24.859469159746194
tp6039
a(F0.6796312400797221
F24.658749870212844
tp6040
a(F0.6796312400797221
F24.658749870212844
tp6041
a(F0.6782451653426347
F24.630517091280346
tp6042
a(F0.677850481416102
F24.51118699106113
tp6043
a(F0.677850481416102
F24.51118699106113
tp6044
a(F0.677850481416102
F24.51118699106113
tp6045
a(F0.677850481416102
F24.51118699106113
tp6046
a(F0.677850481416102
F24.51118699106113
tp6047
a(F0.677850481416102
F24.51118699106113
tp6048
a(F0.6699142590374119
F24.429677159660123
tp6049
a(F0.6699142590374119
F24.429677159660123
tp6050
a(F0.6695348639152409
F24.295444605913104
tp6051
a(F0.6661455926725975
F23.71525407030058
tp6052
a(F0.6651969777272645
F23.59996687802549
tp6053
a(F0.663651108541628
F23.08634223229207
tp6054
a(F0.6528915752670429
F22.53106283417558
tp6055
a(F0.6528915752670427
F22.53106283417557
tp6056
a(F0.6480748502029634
F22.338860422701668
tp6057
a(F0.6451837151794022
F21.62323225169713
tp6058
a(F0.6451837151794022
F21.62323225169713
tp6059
a(F0.6451837151794022
F21.62323225169713
tp6060
a(F0.6449936783829252
F21.395200424446692
tp6061
a(F0.6449936783829252
F21.395200424446692
tp6062
a(F0.6431769664760576
F20.99035105905722
tp6063
a(F0.6429607185412438
F20.984734658679844
tp6064
a(F0.6426421234622065
F20.819925430422455
tp6065
a(F0.6426421234622065
F20.819925430422455
tp6066
a(F0.6411851529247126
F20.648287328134984
tp6067
a(F0.6411851529247126
F20.648287328134984
tp6068
a(F0.6411851529247126
F20.648287328134984
tp6069
a(F0.6405516117532416
F20.51257815297457
tp6070
a(F0.6405516117532415
F20.512578152974566
tp6071
a(F0.6275664945652508
F20.443687644021274
tp6072
a(F0.6275664945652508
F20.443687644021274
tp6073
a(F0.6275664945652508
F20.443687644021274
tp6074
a(F0.6275664945652508
F20.443687644021274
tp6075
a(F0.6222873854662401
F20.427686432966446
tp6076
a(F0.6183199471894016
F20.394204427050006
tp6077
a(F0.6142433730721546
F20.000000000000004
tp6078
a(F0.6142433730721532
F20.0
tp6079
a(F0.6142433730721532
F20.0
tp6080
a(F0.6142433730721532
F20.0
tp6081
a(F0.6142433730721522
F19.99999999999999
tp6082
a(F0.6142433730721515
F19.999999999999986
tp6083
a(F0.6142433730721497
F19.999999999999975
tp6084
a(F0.6142433730721497
F19.999999999999975
tp6085
atp6086
.