((lp0
(lp1
(I0
I0
I1
I1
I0
I1
I1
tp2
a(I0
I0
I0
I1
I1
I0
I1
tp3
a(I1
I0
I1
I0
I1
I1
I0
tp4
a(I0
I0
I1
I1
I1
I0
I0
tp5
a(I1
I0
I1
I0
I1
I1
I0
tp6
a(I1
I0
I0
I1
I1
I1
I1
tp7
a(I0
I0
I0
I0
I1
I1
I1
tp8
aa(lp9
(I0
I0
I1
I1
I0
I1
I1
tp10
a(I0
I0
I0
I1
I1
I0
I1
tp11
a(I1
I0
I1
I0
I1
I1
I0
tp12
a(I0
I0
I1
I1
I1
I0
I0
tp13
a(I1
I0
I0
I0
I1
I1
I1
tp14
a(I1
I0
I0
I1
I1
I1
I1
tp15
a(I0
I0
I0
I0
I1
I1
I1
tp16
aa(lp17
(I0
I0
I1
I1
I0
I1
I1
tp18
a(I0
I0
I0
I1
I1
I0
I1
tp19
a(I1
I0
I1
I0
I1
I1
I0
tp20
a(I0
I0
I1
I1
I1
I0
I0
tp21
a(I1
I1
I1
I0
I1
I0
I0
tp22
a(I1
I0
I0
I1
I1
I1
I1
tp23
a(I0
I0
I0
I0
I1
I1
I1
tp24
aa(lp25
(I0
I0
I1
I1
I0
I1
I0
tp26
a(I0
I0
I0
I1
I1
I0
I1
tp27
a(I1
I0
I1
I0
I1
I1
I0
tp28
a(I0
I0
I1
I1
I1
I0
I0
tp29
a(I1
I0
I1
I0
I1
I1
I0
tp30
a(I1
I0
I0
I1
I1
I1
I1
tp31
a(I0
I0
I0
I0
I1
I1
I1
tp32
aa(lp33
(I0
I0
I1
I0
I0
I1
I0
tp34
a(I0
I0
I0
I1
I1
I0
I1
tp35
a(I1
I0
I1
I0
I1
I1
I0
tp36
a(I0
I0
I1
I1
I1
I0
I0
tp37
a(I1
I0
I1
I0
I1
I1
I0
tp38
a(I1
I0
I0
I1
I1
I1
I1
tp39
a(I0
I0
I0
I0
I1
I1
I1
tp40
aa(lp41
(I0
I0
I1
I1
I0
I1
I1
tp42
a(I0
I0
I0
I1
I1
I0
I1
tp43
a(I1
I0
I0
I0
I0
I1
I0
tp44
a(I0
I0
I1
I1
I1
I0
I0
tp45
a(I1
I0
I1
I0
I1
I1
I0
tp46
a(I1
I0
I0
I1
I1
I1
I1
tp47
a(I0
I0
I0
I0
I1
I1
I1
tp48
aa(lp49
(I0
I0
I1
I1
I0
I1
I1
tp50
a(I0
I0
I0
I1
I1
I0
I1
tp51
a(I1
I0
I0
I0
I0
I1
I0
tp52
a(I0
I0
I1
I1
I1
I0
I0
tp53
a(I1
I0
I1
I0
I1
I0
I0
tp54
a(I1
I0
I0
I1
I1
I1
I1
tp55
a(I0
I0
I0
I0
I1
I1
I1
tp56
aa(lp57
(I0
I1
I1
I1
I0
I1
I0
tp58
a(I0
I0
I0
I1
I1
I0
I1
tp59
a(I1
I0
I0
I0
I0
I1
I0
tp60
a(I0
I0
I1
I1
I1
I0
I0
tp61
a(I1
I0
I1
I0
I1
I1
I0
tp62
a(I1
I0
I0
I1
I1
I1
I1
tp63
a(I0
I0
I0
I0
I1
I1
I1
tp64
aa(lp65
(I0
I1
I1
I1
I0
I1
I0
tp66
a(I0
I0
I0
I1
I1
I0
I1
tp67
a(I1
I0
I1
I0
I0
I1
I0
tp68
a(I0
I0
I1
I1
I1
I0
I0
tp69
a(I1
I0
I1
I0
I1
I1
I0
tp70
a(I1
I0
I0
I1
I1
I1
I1
tp71
a(I0
I0
I0
I0
I1
I1
I1
tp72
aa(lp73
(I0
I0
I1
I1
I0
I1
I0
tp74
a(I0
I0
I0
I1
I1
I0
I1
tp75
a(I1
I0
I1
I0
I0
I1
I0
tp76
a(I0
I0
I1
I1
I1
I0
I0
tp77
a(I1
I0
I1
I0
I1
I1
I0
tp78
a(I1
I0
I0
I1
I1
I1
I1
tp79
a(I0
I0
I0
I0
I1
I1
I1
tp80
aa(lp81
(I0
I0
I1
I1
I0
I1
I0
tp82
a(I0
I0
I0
I1
I1
I0
I1
tp83
a(I1
I0
I1
I0
I0
I1
I0
tp84
a(I0
I0
I1
I1
I1
I0
I0
tp85
a(I1
I0
I0
I0
I0
I1
I0
tp86
a(I1
I0
I0
I1
I1
I1
I1
tp87
a(I0
I0
I0
I0
I1
I1
I1
tp88
aa(lp89
(I0
I0
I1
I0
I0
I1
I0
tp90
a(I0
I0
I0
I1
I1
I0
I1
tp91
a(I1
I0
I0
I0
I0
I1
I0
tp92
a(I0
I0
I1
I1
I1
I0
I0
tp93
a(I1
I0
I1
I0
I1
I1
I0
tp94
a(I1
I0
I0
I1
I1
I1
I1
tp95
a(I0
I0
I0
I0
I1
I1
I1
tp96
aa(lp97
(I0
I0
I1
I0
I0
I1
I0
tp98
a(I0
I0
I0
I1
I1
I0
I1
tp99
a(I1
I0
I1
I0
I0
I1
I0
tp100
a(I0
I0
I1
I1
I1
I0
I0
tp101
a(I1
I0
I1
I0
I1
I1
I0
tp102
a(I1
I0
I0
I1
I1
I1
I1
tp103
a(I0
I0
I0
I0
I1
I1
I1
tp104
aa(lp105
(I0
I0
I1
I0
I0
I1
I0
tp106
a(I0
I0
I0
I1
I1
I0
I1
tp107
a(I1
I0
I1
I0
I0
I1
I0
tp108
a(I0
I0
I1
I1
I1
I0
I0
tp109
a(I1
I0
I0
I0
I1
I1
I1
tp110
a(I1
I0
I0
I1
I1
I1
I1
tp111
a(I0
I0
I0
I0
I1
I1
I1
tp112
aa(lp113
(I0
I0
I1
I0
I0
I1
I0
tp114
a(I0
I0
I0
I1
I1
I0
I1
tp115
a(I1
I0
I1
I0
I0
I1
I0
tp116
a(I0
I0
I1
I1
I1
I0
I0
tp117
a(I1
I1
I1
I0
I1
I0
I0
tp118
a(I1
I0
I0
I1
I1
I1
I1
tp119
a(I0
I0
I0
I0
I1
I1
I1
tp120
aa(lp121
(I0
I0
I1
I1
I0
I1
I1
tp122
a(I0
I0
I0
I1
I1
I0
I1
tp123
a(I1
I0
I1
I0
I0
I1
I0
tp124
a(I0
I0
I1
I0
I1
I0
I0
tp125
a(I1
I0
I1
I0
I1
I1
I0
tp126
a(I1
I0
I0
I1
I1
I1
I1
tp127
a(I0
I0
I0
I0
I1
I1
I1
tp128
aa(lp129
(I0
I0
I1
I1
I0
I1
I1
tp130
a(I0
I0
I0
I1
I1
I0
I1
tp131
a(I1
I0
I1
I0
I0
I1
I0
tp132
a(I0
I0
I1
I0
I1
I0
I0
tp133
a(I1
I1
I1
I0
I1
I0
I0
tp134
a(I1
I0
I0
I1
I1
I1
I1
tp135
a(I0
I0
I0
I0
I1
I1
I1
tp136
aa(lp137
(I0
I0
I1
I1
I0
I1
I1
tp138
a(I0
I0
I0
I1
I1
I0
I1
tp139
a(I1
I0
I1
I0
I0
I1
I0
tp140
a(I0
I0
I1
I0
I1
I0
I0
tp141
a(I1
I0
I1
I0
I1
I0
I0
tp142
a(I1
I0
I0
I1
I1
I1
I1
tp143
a(I0
I0
I0
I0
I1
I1
I1
tp144
aa(lp145
(I0
I0
I1
I1
I0
I1
I0
tp146
a(I0
I0
I0
I1
I1
I0
I1
tp147
a(I1
I0
I1
I0
I0
I1
I0
tp148
a(I0
I0
I1
I0
I1
I0
I0
tp149
a(I1
I0
I1
I0
I1
I1
I0
tp150
a(I1
I0
I0
I1
I1
I1
I1
tp151
a(I0
I0
I0
I0
I1
I1
I1
tp152
aa(lp153
(I0
I0
I1
I1
I0
I1
I0
tp154
a(I0
I0
I0
I1
I1
I0
I1
tp155
a(I1
I0
I1
I0
I0
I1
I0
tp156
a(I0
I0
I1
I0
I1
I0
I0
tp157
a(I1
I0
I0
I0
I0
I1
I0
tp158
a(I1
I0
I0
I1
I1
I1
I1
tp159
a(I0
I0
I0
I0
I1
I1
I1
tp160
aa(lp161
(I0
I0
I1
I0
I0
I1
I0
tp162
a(I0
I0
I0
I1
I1
I0
I1
tp163
a(I1
I0
I1
I0
I0
I1
I0
tp164
a(I0
I0
I1
I0
I1
I0
I0
tp165
a(I1
I0
I1
I0
I1
I1
I0
tp166
a(I1
I0
I0
I1
I1
I1
I1
tp167
a(I0
I0
I0
I0
I1
I1
I1
tp168
aa(lp169
(I0
I0
I1
I0
I0
I1
I0
tp170
a(I0
I0
I0
I1
I1
I0
I1
tp171
a(I1
I0
I1
I0
I0
I1
I0
tp172
a(I0
I0
I1
I0
I1
I0
I0
tp173
a(I1
I0
I0
I0
I0
I1
I1
tp174
a(I1
I0
I0
I1
I1
I1
I1
tp175
a(I0
I0
I0
I0
I1
I1
I1
tp176
aa(lp177
(I0
I0
I1
I0
I0
I1
I0
tp178
a(I0
I0
I0
I1
I1
I0
I1
tp179
a(I1
I0
I1
I0
I0
I1
I0
tp180
a(I0
I0
I1
I0
I1
I0
I0
tp181
a(I0
I1
I1
I0
I1
I1
I0
tp182
a(I1
I0
I0
I1
I1
I1
I1
tp183
a(I0
I0
I0
I0
I1
I1
I1
tp184
aa(lp185
(I0
I0
I1
I1
I0
I1
I0
tp186
a(I0
I0
I0
I1
I1
I0
I1
tp187
a(I1
I0
I1
I0
I0
I1
I0
tp188
a(I0
I0
I1
I0
I1
I0
I0
tp189
a(I1
I0
I1
I0
I1
I1
I0
tp190
a(I1
I0
I1
I0
I0
I1
I1
tp191
a(I0
I0
I0
I0
I1
I1
I1
tp192
aa(lp193
(I0
I0
I1
I1
I0
I1
I0
tp194
a(I0
I0
I0
I1
I1
I0
I1
tp195
a(I1
I0
I1
I0
I0
I1
I0
tp196
a(I0
I0
I1
I0
I1
I0
I0
tp197
a(I1
I0
I0
I0
I0
I1
I0
tp198
a(I1
I0
I1
I0
I0
I1
I1
tp199
a(I0
I0
I0
I0
I1
I1
I1
tp200
aa(lp201
(I0
I0
I1
I0
I0
I1
I0
tp202
a(I0
I0
I0
I1
I1
I0
I1
tp203
a(I1
I0
I1
I0
I0
I1
I0
tp204
a(I0
I0
I1
I0
I1
I0
I0
tp205
a(I1
I0
I0
I0
I1
I1
I1
tp206
a(I1
I0
I0
I0
I0
I1
I1
tp207
a(I0
I0
I0
I0
I1
I1
I1
tp208
aa(lp209
(I0
I0
I1
I0
I0
I1
I0
tp210
a(I0
I0
I0
I1
I1
I0
I1
tp211
a(I1
I0
I1
I0
I0
I1
I0
tp212
a(I0
I0
I1
I0
I1
I0
I0
tp213
a(I0
I0
I1
I0
I1
I1
I0
tp214
a(I1
I0
I1
I0
I0
I1
I1
tp215
a(I0
I0
I0
I0
I1
I1
I1
tp216
aa(lp217
(I0
I0
I1
I0
I0
I1
I0
tp218
a(I0
I0
I0
I1
I1
I0
I1
tp219
a(I1
I0
I1
I0
I0
I1
I0
tp220
a(I0
I0
I1
I0
I1
I0
I0
tp221
a(I1
I0
I0
I0
I1
I1
I0
tp222
a(I1
I0
I1
I0
I1
I1
I1
tp223
a(I0
I0
I0
I0
I1
I1
I1
tp224
aa(lp225
(I0
I0
I1
I0
I0
I1
I0
tp226
a(I0
I0
I0
I1
I1
I0
I1
tp227
a(I1
I0
I1
I0
I0
I1
I0
tp228
a(I0
I0
I1
I0
I1
I0
I0
tp229
a(I1
I0
I0
I0
I1
I1
I1
tp230
a(I1
I0
I1
I0
I1
I1
I1
tp231
a(I0
I0
I0
I0
I1
I1
I1
tp232
aa(lp233
(I0
I0
I1
I0
I0
I0
I0
tp234
a(I0
I0
I0
I1
I1
I0
I1
tp235
a(I1
I0
I1
I0
I0
I1
I0
tp236
a(I0
I0
I1
I0
I1
I0
I0
tp237
a(I1
I0
I0
I0
I0
I1
I0
tp238
a(I1
I0
I1
I0
I0
I1
I1
tp239
a(I0
I0
I0
I0
I1
I1
I1
tp240
aa(lp241
(I0
I0
I1
I1
I0
I1
I1
tp242
a(I0
I0
I0
I1
I1
I0
I1
tp243
a(I1
I0
I0
I0
I0
I1
I0
tp244
a(I0
I0
I1
I1
I1
I0
I0
tp245
a(I1
I0
I1
I0
I1
I1
I0
tp246
a(I1
I0
I1
I0
I0
I1
I0
tp247
a(I0
I0
I0
I0
I1
I1
I1
tp248
aa(lp249
(I0
I0
I1
I1
I0
I1
I1
tp250
a(I0
I0
I0
I1
I1
I0
I1
tp251
a(I1
I0
I0
I0
I0
I1
I0
tp252
a(I0
I0
I1
I1
I1
I0
I0
tp253
a(I0
I0
I0
I0
I1
I1
I0
tp254
a(I1
I0
I1
I0
I0
I1
I0
tp255
a(I0
I0
I0
I0
I1
I1
I1
tp256
aa(lp257
(I0
I1
I1
I1
I0
I1
I0
tp258
a(I0
I0
I0
I1
I1
I0
I1
tp259
a(I1
I0
I1
I0
I0
I1
I0
tp260
a(I0
I0
I1
I1
I1
I0
I0
tp261
a(I1
I0
I1
I0
I1
I1
I0
tp262
a(I1
I0
I1
I0
I0
I1
I0
tp263
a(I0
I0
I0
I0
I1
I1
I1
tp264
aa(lp265
(I0
I0
I0
I0
I0
I1
I0
tp266
a(I0
I0
I0
I1
I1
I0
I1
tp267
a(I1
I0
I0
I0
I0
I1
I0
tp268
a(I0
I0
I1
I1
I1
I0
I0
tp269
a(I1
I0
I1
I0
I0
I1
I0
tp270
a(I1
I0
I1
I0
I0
I1
I0
tp271
a(I0
I0
I0
I0
I1
I1
I1
tp272
aa(lp273
(I0
I0
I0
I0
I0
I1
I0
tp274
a(I0
I0
I0
I1
I1
I0
I1
tp275
a(I1
I0
I1
I0
I0
I1
I0
tp276
a(I0
I0
I1
I1
I1
I0
I0
tp277
a(I1
I0
I1
I0
I0
I1
I0
tp278
a(I1
I0
I1
I0
I0
I1
I0
tp279
a(I0
I0
I0
I0
I1
I1
I1
tp280
aa(lp281
(I0
I0
I1
I1
I0
I1
I1
tp282
a(I0
I0
I0
I1
I1
I0
I1
tp283
a(I1
I0
I1
I0
I0
I1
I0
tp284
a(I0
I0
I1
I0
I1
I0
I0
tp285
a(I1
I0
I1
I0
I1
I1
I0
tp286
a(I1
I0
I1
I0
I0
I1
I0
tp287
a(I0
I0
I0
I0
I1
I1
I1
tp288
aa(lp289
(I0
I0
I1
I1
I0
I1
I1
tp290
a(I0
I0
I0
I1
I1
I0
I1
tp291
a(I1
I0
I1
I0
I0
I1
I0
tp292
a(I0
I0
I1
I0
I1
I0
I0
tp293
a(I1
I0
I0
I0
I1
I1
I0
tp294
a(I1
I0
I1
I0
I0
I1
I0
tp295
a(I0
I0
I0
I0
I1
I1
I1
tp296
aa(lp297
(I0
I0
I1
I1
I0
I1
I1
tp298
a(I0
I0
I0
I1
I1
I0
I1
tp299
a(I1
I0
I0
I0
I0
I1
I0
tp300
a(I0
I0
I1
I0
I1
I0
I0
tp301
a(I1
I0
I1
I0
I1
I1
I0
tp302
a(I1
I0
I1
I0
I0
I1
I0
tp303
a(I0
I0
I0
I0
I1
I1
I1
tp304
aa(lp305
(I0
I0
I1
I1
I0
I1
I1
tp306
a(I0
I0
I0
I1
I1
I0
I1
tp307
a(I1
I0
I0
I0
I0
I1
I0
tp308
a(I0
I0
I1
I0
I1
I0
I0
tp309
a(I1
I0
I1
I0
I1
I0
I0
tp310
a(I1
I0
I1
I0
I0
I1
I0
tp311
a(I0
I0
I0
I0
I1
I1
I1
tp312
aa(lp313
(I0
I0
I1
I1
I0
I1
I0
tp314
a(I0
I0
I0
I1
I1
I0
I1
tp315
a(I1
I0
I1
I0
I0
I1
I0
tp316
a(I0
I0
I1
I0
I1
I0
I0
tp317
a(I1
I0
I1
I0
I1
I1
I0
tp318
a(I1
I0
I1
I0
I0
I1
I0
tp319
a(I0
I0
I0
I0
I1
I1
I1
tp320
aa(lp321
(I0
I0
I1
I1
I0
I1
I0
tp322
a(I0
I0
I0
I1
I1
I0
I1
tp323
a(I1
I0
I1
I0
I0
I1
I0
tp324
a(I0
I0
I1
I0
I1
I0
I0
tp325
a(I1
I0
I0
I0
I1
I1
I1
tp326
a(I1
I0
I1
I0
I0
I1
I0
tp327
a(I0
I0
I0
I0
I1
I1
I1
tp328
aa(lp329
(I0
I0
I1
I0
I0
I1
I0
tp330
a(I0
I0
I0
I1
I1
I0
I1
tp331
a(I1
I0
I1
I0
I0
I1
I0
tp332
a(I0
I0
I1
I0
I1
I0
I0
tp333
a(I1
I0
I1
I0
I1
I1
I0
tp334
a(I1
I0
I1
I0
I0
I1
I0
tp335
a(I0
I0
I0
I0
I1
I1
I1
tp336
aa(lp337
(I0
I0
I1
I0
I0
I1
I0
tp338
a(I0
I0
I0
I1
I1
I0
I1
tp339
a(I1
I0
I1
I0
I0
I1
I0
tp340
a(I0
I0
I1
I0
I1
I0
I0
tp341
a(I1
I0
I0
I0
I0
I1
I0
tp342
a(I1
I0
I1
I0
I0
I1
I0
tp343
a(I0
I0
I0
I0
I1
I1
I1
tp344
aa(lp345
(I0
I0
I1
I0
I0
I1
I0
tp346
a(I0
I0
I0
I1
I1
I0
I1
tp347
a(I1
I0
I1
I0
I0
I1
I0
tp348
a(I0
I0
I1
I0
I1
I0
I0
tp349
a(I1
I0
I1
I0
I0
I1
I0
tp350
a(I1
I0
I1
I0
I0
I1
I0
tp351
a(I0
I0
I0
I0
I1
I1
I1
tp352
aa(lp353
(I0
I0
I1
I0
I0
I1
I0
tp354
a(I0
I0
I0
I1
I1
I0
I1
tp355
a(I0
I0
I1
I0
I0
I1
I0
tp356
a(I0
I0
I1
I0
I1
I0
I0
tp357
a(I0
I1
I1
I0
I1
I1
I0
tp358
a(I1
I0
I0
I1
I1
I1
I1
tp359
a(I0
I0
I0
I0
I1
I1
I1
tp360
aa(lp361
(I0
I0
I1
I0
I0
I1
I0
tp362
a(I0
I0
I0
I1
I1
I0
I1
tp363
a(I0
I0
I1
I0
I0
I1
I0
tp364
a(I0
I0
I1
I0
I1
I0
I0
tp365
a(I0
I0
I0
I0
I1
I1
I0
tp366
a(I1
I0
I0
I1
I1
I1
I1
tp367
a(I0
I0
I0
I0
I1
I1
I1
tp368
aa(lp369
(I0
I0
I1
I0
I0
I1
I0
tp370
a(I0
I0
I0
I1
I1
I0
I1
tp371
a(I0
I0
I1
I0
I0
I1
I0
tp372
a(I0
I0
I1
I0
I1
I0
I0
tp373
a(I0
I1
I1
I0
I1
I0
I0
tp374
a(I1
I0
I0
I1
I1
I1
I1
tp375
a(I0
I0
I0
I0
I1
I1
I1
tp376
aa(lp377
(I0
I0
I1
I1
I0
I1
I1
tp378
a(I0
I0
I0
I1
I1
I0
I1
tp379
a(I1
I0
I1
I0
I1
I1
I0
tp380
a(I0
I0
I1
I1
I1
I0
I0
tp381
a(I1
I0
I1
I0
I1
I1
I0
tp382
a(I1
I0
I0
I1
I1
I1
I1
tp383
a(I0
I0
I1
I0
I0
I1
I0
tp384
aa(lp385
(I0
I0
I1
I1
I0
I1
I0
tp386
a(I0
I0
I0
I1
I1
I0
I1
tp387
a(I1
I0
I1
I0
I1
I1
I0
tp388
a(I0
I0
I1
I1
I1
I0
I0
tp389
a(I1
I0
I1
I0
I1
I1
I0
tp390
a(I1
I0
I0
I1
I1
I1
I1
tp391
a(I0
I0
I1
I0
I0
I1
I0
tp392
aa(lp393
(I0
I0
I1
I1
I0
I1
I1
tp394
a(I0
I0
I0
I1
I1
I0
I1
tp395
a(I1
I0
I0
I0
I0
I1
I0
tp396
a(I0
I0
I1
I1
I1
I0
I0
tp397
a(I1
I0
I1
I0
I1
I1
I0
tp398
a(I1
I0
I0
I1
I1
I1
I1
tp399
a(I0
I0
I1
I0
I0
I1
I0
tp400
aa(lp401
(I0
I0
I1
I1
I0
I1
I1
tp402
a(I0
I0
I0
I1
I1
I0
I1
tp403
a(I1
I0
I0
I0
I0
I1
I0
tp404
a(I0
I0
I1
I1
I1
I0
I0
tp405
a(I1
I0
I1
I0
I1
I0
I0
tp406
a(I1
I0
I0
I1
I1
I1
I1
tp407
a(I0
I0
I1
I0
I0
I1
I0
tp408
aa(lp409
(I0
I0
I1
I1
I0
I1
I0
tp410
a(I0
I0
I0
I1
I1
I0
I1
tp411
a(I1
I0
I0
I0
I0
I1
I0
tp412
a(I0
I0
I1
I1
I1
I0
I0
tp413
a(I1
I0
I1
I0
I1
I1
I0
tp414
a(I1
I0
I0
I1
I1
I1
I1
tp415
a(I0
I0
I1
I0
I0
I1
I0
tp416
aa(lp417
(I0
I0
I1
I1
I0
I1
I0
tp418
a(I0
I0
I0
I1
I1
I0
I1
tp419
a(I1
I0
I0
I0
I0
I1
I0
tp420
a(I0
I0
I1
I1
I1
I0
I0
tp421
a(I1
I0
I0
I0
I1
I1
I0
tp422
a(I1
I0
I0
I1
I1
I1
I1
tp423
a(I0
I0
I1
I0
I0
I1
I0
tp424
aa(lp425
(I0
I0
I1
I1
I0
I1
I0
tp426
a(I0
I0
I0
I1
I1
I0
I1
tp427
a(I1
I0
I0
I0
I0
I1
I0
tp428
a(I0
I0
I1
I1
I1
I0
I0
tp429
a(I1
I0
I0
I0
I1
I1
I1
tp430
a(I1
I0
I0
I1
I1
I1
I1
tp431
a(I0
I0
I1
I0
I0
I1
I0
tp432
aa(lp433
(I0
I0
I1
I1
I0
I1
I0
tp434
a(I0
I0
I0
I1
I1
I0
I1
tp435
a(I1
I0
I1
I0
I0
I1
I0
tp436
a(I0
I0
I1
I1
I1
I0
I0
tp437
a(I1
I0
I1
I0
I1
I1
I0
tp438
a(I1
I0
I0
I1
I1
I1
I1
tp439
a(I0
I0
I1
I0
I0
I1
I0
tp440
aa(lp441
(I0
I0
I1
I1
I0
I1
I0
tp442
a(I0
I0
I0
I1
I1
I0
I1
tp443
a(I1
I0
I1
I0
I0
I1
I0
tp444
a(I0
I0
I1
I1
I1
I0
I0
tp445
a(I1
I0
I0
I0
I1
I1
I1
tp446
a(I1
I0
I0
I1
I1
I1
I1
tp447
a(I0
I0
I1
I0
I0
I1
I0
tp448
aa(lp449
(I0
I0
I1
I0
I0
I1
I0
tp450
a(I0
I0
I0
I1
I1
I0
I1
tp451
a(I1
I0
I0
I0
I0
I1
I0
tp452
a(I0
I0
I1
I1
I1
I0
I0
tp453
a(I1
I0
I1
I0
I1
I1
I0
tp454
a(I1
I0
I0
I1
I1
I1
I1
tp455
a(I0
I0
I1
I0
I0
I1
I0
tp456
aa(lp457
(I0
I0
I1
I0
I0
I1
I0
tp458
a(I0
I0
I0
I1
I1
I0
I1
tp459
a(I1
I0
I0
I0
I0
I1
I0
tp460
a(I0
I0
I1
I1
I1
I0
I0
tp461
a(I1
I0
I0
I0
I0
I1
I0
tp462
a(I1
I0
I0
I1
I1
I1
I1
tp463
a(I0
I0
I1
I0
I0
I1
I0
tp464
aa(lp465
(I0
I0
I1
I0
I0
I1
I0
tp466
a(I0
I0
I0
I1
I1
I0
I1
tp467
a(I1
I0
I1
I0
I0
I1
I0
tp468
a(I0
I0
I1
I1
I1
I0
I0
tp469
a(I1
I0
I1
I0
I1
I1
I0
tp470
a(I1
I0
I0
I1
I1
I1
I1
tp471
a(I0
I0
I1
I0
I0
I1
I0
tp472
aa(lp473
(I0
I0
I1
I0
I0
I1
I0
tp474
a(I0
I0
I0
I1
I1
I0
I1
tp475
a(I1
I0
I1
I0
I0
I1
I0
tp476
a(I0
I0
I1
I1
I1
I0
I0
tp477
a(I1
I0
I0
I0
I1
I1
I0
tp478
a(I1
I0
I0
I1
I1
I1
I1
tp479
a(I0
I0
I1
I0
I0
I1
I0
tp480
aa(lp481
(I0
I0
I1
I0
I0
I1
I0
tp482
a(I0
I0
I0
I1
I1
I0
I1
tp483
a(I1
I0
I1
I0
I0
I1
I0
tp484
a(I0
I0
I1
I1
I1
I0
I0
tp485
a(I1
I0
I0
I0
I1
I1
I1
tp486
a(I1
I0
I0
I1
I1
I1
I1
tp487
a(I0
I0
I1
I0
I0
I1
I0
tp488
aa(lp489
(I0
I0
I1
I0
I0
I1
I0
tp490
a(I0
I0
I0
I1
I1
I0
I1
tp491
a(I1
I0
I0
I0
I0
I1
I0
tp492
a(I0
I0
I1
I1
I1
I0
I0
tp493
a(I1
I0
I1
I0
I0
I0
I0
tp494
a(I1
I0
I0
I1
I1
I1
I1
tp495
a(I0
I0
I1
I0
I0
I1
I0
tp496
aa(lp497
(I0
I0
I1
I0
I0
I1
I0
tp498
a(I0
I0
I0
I1
I1
I0
I1
tp499
a(I1
I0
I1
I0
I0
I1
I0
tp500
a(I0
I0
I1
I1
I1
I0
I0
tp501
a(I1
I0
I0
I0
I1
I0
I0
tp502
a(I1
I0
I0
I1
I1
I1
I1
tp503
a(I0
I0
I1
I0
I0
I1
I0
tp504
aa(lp505
(I0
I0
I1
I1
I0
I1
I1
tp506
a(I0
I0
I0
I1
I1
I0
I1
tp507
a(I1
I0
I1
I0
I0
I1
I0
tp508
a(I0
I0
I1
I0
I1
I0
I0
tp509
a(I1
I0
I1
I0
I1
I1
I0
tp510
a(I1
I0
I0
I1
I1
I1
I1
tp511
a(I0
I0
I1
I0
I0
I1
I0
tp512
aa(lp513
(I0
I0
I1
I1
I0
I1
I1
tp514
a(I0
I0
I0
I1
I1
I0
I1
tp515
a(I1
I0
I1
I0
I0
I1
I0
tp516
a(I0
I0
I1
I0
I1
I0
I0
tp517
a(I0
I1
I1
I0
I1
I1
I0
tp518
a(I1
I0
I0
I1
I1
I1
I1
tp519
a(I0
I0
I1
I0
I0
I1
I0
tp520
aa(lp521
(I0
I0
I1
I1
I0
I1
I1
tp522
a(I0
I0
I0
I1
I1
I0
I1
tp523
a(I1
I0
I1
I0
I0
I1
I0
tp524
a(I0
I0
I1
I0
I1
I0
I0
tp525
a(I1
I1
I1
I0
I1
I0
I0
tp526
a(I1
I0
I0
I1
I1
I1
I1
tp527
a(I0
I0
I1
I0
I0
I1
I0
tp528
aa(lp529
(I0
I0
I1
I1
I0
I1
I0
tp530
a(I0
I0
I0
I1
I1
I0
I1
tp531
a(I1
I0
I1
I0
I0
I1
I0
tp532
a(I0
I0
I1
I0
I1
I0
I0
tp533
a(I1
I0
I1
I0
I1
I1
I0
tp534
a(I1
I0
I0
I1
I1
I1
I1
tp535
a(I0
I0
I1
I0
I0
I1
I0
tp536
aa(lp537
(I0
I0
I1
I0
I0
I1
I0
tp538
a(I0
I0
I0
I1
I1
I0
I1
tp539
a(I1
I0
I1
I0
I0
I1
I0
tp540
a(I0
I0
I1
I0
I1
I0
I0
tp541
a(I1
I0
I1
I0
I1
I1
I0
tp542
a(I1
I0
I0
I1
I1
I1
I1
tp543
a(I0
I0
I1
I0
I0
I1
I0
tp544
aa(lp545
(I0
I0
I1
I0
I0
I1
I0
tp546
a(I0
I0
I0
I1
I1
I0
I1
tp547
a(I1
I0
I1
I0
I0
I1
I0
tp548
a(I0
I0
I1
I0
I1
I0
I0
tp549
a(I1
I0
I0
I0
I1
I1
I0
tp550
a(I1
I0
I0
I1
I1
I1
I1
tp551
a(I0
I0
I1
I0
I0
I1
I0
tp552
aa(lp553
(I0
I0
I1
I0
I0
I1
I0
tp554
a(I0
I0
I0
I1
I1
I0
I1
tp555
a(I1
I0
I1
I0
I0
I1
I0
tp556
a(I0
I0
I1
I0
I1
I0
I0
tp557
a(I1
I0
I0
I0
I1
I1
I1
tp558
a(I1
I0
I0
I1
I1
I1
I1
tp559
a(I0
I0
I1
I0
I0
I1
I0
tp560
aa(lp561
(I0
I0
I1
I0
I0
I1
I0
tp562
a(I0
I0
I0
I1
I1
I0
I1
tp563
a(I1
I0
I1
I0
I0
I1
I0
tp564
a(I0
I0
I1
I0
I1
I0
I0
tp565
a(I1
I0
I0
I0
I1
I0
I0
tp566
a(I1
I0
I0
I1
I1
I1
I1
tp567
a(I0
I0
I1
I0
I0
I1
I0
tp568
aa(lp569
(I0
I0
I1
I0
I0
I1
I0
tp570
a(I0
I0
I0
I1
I1
I0
I1
tp571
a(I1
I0
I1
I0
I0
I1
I0
tp572
a(I0
I0
I1
I0
I1
I0
I0
tp573
a(I1
I0
I1
I0
I1
I0
I0
tp574
a(I1
I0
I0
I1
I1
I1
I1
tp575
a(I0
I0
I1
I0
I0
I1
I0
tp576
aa(lp577
(I0
I0
I1
I1
I0
I1
I0
tp578
a(I0
I0
I0
I1
I1
I0
I1
tp579
a(I1
I0
I1
I0
I0
I1
I0
tp580
a(I0
I0
I1
I0
I1
I0
I0
tp581
a(I1
I0
I1
I0
I1
I1
I0
tp582
a(I1
I0
I1
I0
I0
I1
I1
tp583
a(I0
I0
I1
I0
I0
I1
I0
tp584
aa(lp585
(I0
I0
I1
I0
I0
I1
I0
tp586
a(I0
I0
I0
I1
I1
I0
I1
tp587
a(I1
I0
I1
I0
I0
I1
I0
tp588
a(I0
I0
I1
I0
I1
I0
I0
tp589
a(I1
I0
I1
I0
I1
I1
I0
tp590
a(I1
I0
I1
I0
I0
I1
I1
tp591
a(I0
I0
I1
I0
I0
I1
I0
tp592
aa(lp593
(I0
I0
I1
I0
I0
I1
I0
tp594
a(I0
I0
I0
I1
I1
I0
I1
tp595
a(I1
I0
I1
I0
I0
I1
I0
tp596
a(I0
I0
I1
I0
I1
I0
I0
tp597
a(I1
I0
I0
I0
I1
I1
I1
tp598
a(I1
I0
I1
I0
I0
I1
I1
tp599
a(I0
I0
I1
I0
I0
I1
I0
tp600
aa(lp601
(I0
I0
I1
I0
I0
I1
I0
tp602
a(I0
I0
I0
I1
I1
I0
I1
tp603
a(I1
I0
I1
I0
I0
I1
I0
tp604
a(I0
I0
I1
I0
I1
I0
I0
tp605
a(I1
I0
I1
I0
I1
I0
I0
tp606
a(I1
I0
I1
I0
I0
I1
I1
tp607
a(I0
I0
I1
I0
I0
I1
I0
tp608
aa(lp609
(I0
I0
I1
I1
I0
I1
I1
tp610
a(I0
I0
I0
I1
I1
I0
I1
tp611
a(I1
I0
I0
I0
I0
I1
I0
tp612
a(I0
I0
I1
I1
I1
I0
I0
tp613
a(I1
I0
I1
I0
I1
I1
I0
tp614
a(I1
I0
I1
I0
I0
I1
I0
tp615
a(I0
I0
I1
I0
I0
I1
I0
tp616
aa(lp617
(I0
I0
I1
I1
I0
I1
I1
tp618
a(I0
I0
I0
I1
I1
I0
I1
tp619
a(I1
I0
I0
I0
I0
I1
I0
tp620
a(I0
I0
I1
I1
I1
I0
I0
tp621
a(I1
I0
I1
I0
I1
I0
I0
tp622
a(I1
I0
I1
I0
I0
I1
I0
tp623
a(I0
I0
I1
I0
I0
I1
I0
tp624
aa(lp625
(I0
I0
I1
I1
I0
I1
I0
tp626
a(I0
I0
I0
I1
I1
I0
I1
tp627
a(I1
I0
I0
I0
I0
I1
I0
tp628
a(I0
I0
I1
I1
I1
I0
I0
tp629
a(I1
I0
I1
I0
I1
I1
I0
tp630
a(I1
I0
I1
I0
I0
I1
I0
tp631
a(I0
I0
I1
I0
I0
I1
I0
tp632
aa(lp633
(I0
I0
I1
I1
I0
I1
I0
tp634
a(I0
I0
I0
I1
I1
I0
I1
tp635
a(I1
I0
I1
I0
I0
I1
I0
tp636
a(I0
I0
I1
I1
I1
I0
I0
tp637
a(I1
I0
I1
I0
I1
I1
I0
tp638
a(I1
I0
I1
I0
I0
I1
I0
tp639
a(I0
I0
I1
I0
I0
I1
I0
tp640
aa(lp641
(I0
I0
I1
I1
I0
I1
I0
tp642
a(I0
I0
I0
I1
I1
I0
I1
tp643
a(I1
I0
I1
I0
I0
I1
I0
tp644
a(I0
I0
I1
I1
I1
I0
I0
tp645
a(I1
I0
I0
I0
I1
I1
I0
tp646
a(I1
I0
I1
I0
I0
I1
I0
tp647
a(I0
I0
I1
I0
I0
I1
I0
tp648
aa(lp649
(I0
I0
I1
I1
I0
I1
I0
tp650
a(I0
I0
I0
I1
I1
I0
I1
tp651
a(I1
I0
I1
I0
I0
I1
I0
tp652
a(I0
I0
I1
I1
I1
I0
I0
tp653
a(I1
I0
I0
I0
I1
I1
I1
tp654
a(I1
I0
I1
I0
I0
I1
I0
tp655
a(I0
I0
I1
I0
I0
I1
I0
tp656
aa(lp657
(I0
I0
I1
I1
I0
I1
I0
tp658
a(I0
I0
I0
I1
I1
I0
I1
tp659
a(I1
I0
I0
I0
I0
I1
I0
tp660
a(I0
I0
I1
I1
I1
I0
I0
tp661
a(I1
I1
I1
I0
I1
I0
I0
tp662
a(I1
I0
I1
I0
I0
I1
I0
tp663
a(I0
I0
I1
I0
I0
I1
I0
tp664
aa(lp665
(I0
I0
I0
I0
I0
I1
I0
tp666
a(I0
I0
I0
I1
I1
I0
I1
tp667
a(I1
I0
I0
I0
I0
I1
I0
tp668
a(I0
I0
I1
I1
I1
I0
I0
tp669
a(I1
I0
I1
I0
I1
I1
I0
tp670
a(I1
I0
I1
I0
I0
I1
I0
tp671
a(I0
I0
I1
I0
I0
I1
I0
tp672
aa(lp673
(I0
I0
I1
I0
I0
I1
I0
tp674
a(I0
I0
I0
I1
I1
I0
I1
tp675
a(I1
I0
I0
I0
I0
I1
I0
tp676
a(I0
I0
I1
I1
I1
I0
I0
tp677
a(I1
I0
I1
I0
I1
I1
I0
tp678
a(I1
I0
I1
I0
I0
I1
I0
tp679
a(I0
I0
I1
I0
I0
I1
I0
tp680
aa(lp681
(I0
I0
I0
I0
I0
I1
I0
tp682
a(I0
I0
I0
I1
I1
I0
I1
tp683
a(I1
I0
I0
I0
I0
I1
I0
tp684
a(I0
I0
I1
I1
I1
I0
I0
tp685
a(I1
I0
I1
I0
I0
I1
I0
tp686
a(I1
I0
I1
I0
I0
I1
I0
tp687
a(I0
I0
I1
I0
I0
I1
I0
tp688
aa(lp689
(I0
I0
I1
I0
I0
I1
I0
tp690
a(I0
I0
I0
I1
I1
I0
I1
tp691
a(I1
I0
I0
I0
I0
I1
I0
tp692
a(I0
I0
I1
I1
I1
I0
I0
tp693
a(I1
I0
I0
I0
I0
I1
I0
tp694
a(I1
I0
I1
I0
I0
I1
I0
tp695
a(I0
I0
I1
I0
I0
I1
I0
tp696
aa(lp697
(I0
I0
I1
I0
I0
I1
I0
tp698
a(I0
I0
I0
I1
I1
I0
I1
tp699
a(I1
I0
I1
I0
I0
I1
I0
tp700
a(I0
I0
I1
I1
I1
I0
I0
tp701
a(I1
I0
I1
I0
I0
I1
I0
tp702
a(I1
I0
I1
I0
I0
I1
I0
tp703
a(I0
I0
I1
I0
I0
I1
I0
tp704
aa(lp705
(I0
I0
I1
I1
I0
I1
I1
tp706
a(I0
I0
I0
I1
I1
I0
I1
tp707
a(I1
I0
I1
I0
I0
I1
I0
tp708
a(I0
I0
I1
I0
I1
I0
I0
tp709
a(I1
I0
I1
I0
I1
I1
I0
tp710
a(I1
I0
I1
I0
I0
I1
I0
tp711
a(I0
I0
I1
I0
I0
I1
I0
tp712
aa(lp713
(I0
I0
I1
I1
I0
I1
I1
tp714
a(I0
I0
I0
I1
I1
I0
I1
tp715
a(I1
I0
I0
I0
I0
I1
I0
tp716
a(I0
I0
I1
I0
I1
I0
I0
tp717
a(I1
I0
I1
I0
I1
I1
I0
tp718
a(I1
I0
I1
I0
I0
I1
I0
tp719
a(I0
I0
I1
I0
I0
I1
I0
tp720
aa(lp721
(I0
I0
I1
I1
I0
I1
I1
tp722
a(I0
I0
I0
I1
I1
I0
I1
tp723
a(I1
I0
I0
I0
I0
I1
I0
tp724
a(I0
I0
I1
I0
I1
I0
I0
tp725
a(I0
I1
I1
I0
I1
I1
I0
tp726
a(I1
I0
I1
I0
I0
I1
I0
tp727
a(I0
I0
I1
I0
I0
I1
I0
tp728
aa(lp729
(I0
I0
I1
I1
I0
I1
I1
tp730
a(I0
I0
I0
I1
I1
I0
I1
tp731
a(I1
I0
I1
I0
I0
I1
I0
tp732
a(I0
I0
I1
I0
I1
I0
I0
tp733
a(I1
I1
I1
I0
I1
I0
I0
tp734
a(I1
I0
I1
I0
I0
I1
I0
tp735
a(I0
I0
I1
I0
I0
I1
I0
tp736
aa(lp737
(I0
I0
I1
I1
I0
I1
I1
tp738
a(I0
I0
I0
I1
I1
I0
I1
tp739
a(I1
I0
I1
I0
I0
I1
I0
tp740
a(I0
I0
I1
I0
I1
I0
I0
tp741
a(I1
I0
I1
I0
I1
I0
I0
tp742
a(I1
I0
I1
I0
I0
I1
I0
tp743
a(I0
I0
I1
I0
I0
I1
I0
tp744
aa(lp745
(I0
I0
I1
I1
I0
I1
I0
tp746
a(I0
I0
I0
I1
I1
I0
I1
tp747
a(I1
I0
I1
I0
I0
I1
I0
tp748
a(I0
I0
I1
I0
I1
I0
I0
tp749
a(I1
I0
I1
I0
I1
I1
I0
tp750
a(I1
I0
I1
I0
I0
I1
I0
tp751
a(I0
I0
I1
I0
I0
I1
I0
tp752
aa(lp753
(I0
I0
I1
I1
I0
I1
I0
tp754
a(I0
I0
I0
I1
I1
I0
I1
tp755
a(I1
I0
I1
I0
I0
I1
I0
tp756
a(I0
I0
I1
I0
I1
I0
I0
tp757
a(I1
I0
I0
I0
I1
I1
I0
tp758
a(I1
I0
I1
I0
I0
I1
I0
tp759
a(I0
I0
I1
I0
I0
I1
I0
tp760
aa(lp761
(I0
I0
I1
I1
I0
I1
I0
tp762
a(I0
I0
I0
I1
I1
I0
I1
tp763
a(I1
I0
I0
I0
I0
I1
I0
tp764
a(I0
I0
I1
I0
I1
I0
I0
tp765
a(I1
I0
I0
I0
I0
I1
I0
tp766
a(I1
I0
I1
I0
I0
I1
I0
tp767
a(I0
I0
I1
I0
I0
I1
I0
tp768
aa(lp769
(I0
I0
I1
I0
I0
I1
I0
tp770
a(I0
I0
I0
I1
I1
I0
I1
tp771
a(I1
I0
I1
I0
I0
I1
I0
tp772
a(I0
I0
I1
I0
I1
I0
I0
tp773
a(I1
I0
I1
I0
I1
I1
I0
tp774
a(I1
I0
I1
I0
I0
I1
I0
tp775
a(I0
I0
I1
I0
I0
I1
I0
tp776
aa(lp777
(I0
I0
I1
I0
I0
I1
I0
tp778
a(I0
I0
I0
I1
I1
I0
I1
tp779
a(I1
I0
I1
I0
I0
I1
I0
tp780
a(I0
I0
I1
I0
I1
I0
I0
tp781
a(I1
I0
I0
I0
I1
I1
I0
tp782
a(I1
I0
I1
I0
I0
I1
I0
tp783
a(I0
I0
I1
I0
I0
I1
I0
tp784
aa(lp785
(I0
I0
I1
I0
I0
I1
I0
tp786
a(I0
I0
I0
I1
I1
I0
I1
tp787
a(I1
I0
I1
I0
I0
I1
I0
tp788
a(I0
I0
I1
I0
I1
I0
I0
tp789
a(I1
I0
I0
I0
I0
I1
I0
tp790
a(I1
I0
I1
I0
I0
I1
I0
tp791
a(I0
I0
I1
I0
I0
I1
I0
tp792
aa(lp793
(I0
I0
I1
I0
I0
I1
I0
tp794
a(I0
I0
I0
I1
I1
I0
I1
tp795
a(I1
I0
I1
I0
I0
I1
I0
tp796
a(I0
I0
I1
I0
I1
I0
I0
tp797
a(I1
I0
I1
I0
I0
I0
I0
tp798
a(I1
I0
I1
I0
I0
I1
I0
tp799
a(I0
I0
I1
I0
I0
I1
I0
tp800
aa(lp801
(I0
I0
I1
I0
I0
I0
I0
tp802
a(I0
I0
I0
I1
I1
I0
I1
tp803
a(I1
I0
I1
I0
I0
I1
I0
tp804
a(I0
I0
I1
I0
I1
I0
I0
tp805
a(I1
I0
I1
I0
I1
I1
I0
tp806
a(I1
I0
I1
I0
I0
I1
I0
tp807
a(I0
I0
I1
I0
I0
I1
I0
tp808
aa(lp809
(I0
I0
I1
I0
I0
I0
I0
tp810
a(I0
I0
I0
I1
I1
I0
I1
tp811
a(I1
I0
I1
I0
I0
I1
I0
tp812
a(I0
I0
I1
I0
I1
I0
I0
tp813
a(I1
I0
I0
I0
I1
I1
I1
tp814
a(I1
I0
I1
I0
I0
I1
I0
tp815
a(I0
I0
I1
I0
I0
I1
I0
tp816
aa(lp817
(I0
I0
I1
I0
I0
I0
I0
tp818
a(I0
I0
I0
I1
I1
I0
I1
tp819
a(I1
I0
I1
I0
I0
I1
I0
tp820
a(I0
I0
I1
I0
I1
I0
I0
tp821
a(I1
I0
I0
I0
I0
I1
I0
tp822
a(I1
I0
I1
I0
I0
I1
I0
tp823
a(I0
I0
I1
I0
I0
I1
I0
tp824
aa(lp825
(I0
I0
I1
I0
I0
I1
I0
tp826
a(I0
I0
I0
I1
I1
I0
I1
tp827
a(I0
I0
I1
I0
I0
I1
I0
tp828
a(I0
I0
I1
I0
I1
I0
I0
tp829
a(I1
I0
I0
I0
I1
I1
I1
tp830
a(I1
I0
I0
I0
I0
I1
I1
tp831
a(I0
I0
I1
I0
I0
I1
I0
tp832
aa(lp833
(I0
I0
I1
I0
I0
I1
I0
tp834
a(I0
I0
I0
I1
I1
I0
I1
tp835
a(I0
I0
I1
I0
I0
I1
I0
tp836
a(I0
I0
I1
I0
I1
I0
I0
tp837
a(I1
I0
I0
I0
I1
I1
I1
tp838
a(I1
I0
I1
I0
I0
I1
I1
tp839
a(I0
I0
I1
I0
I0
I1
I0
tp840
aa(lp841
(I0
I0
I1
I0
I0
I1
I0
tp842
a(I0
I0
I0
I1
I1
I0
I1
tp843
a(I0
I0
I1
I0
I0
I1
I0
tp844
a(I0
I0
I1
I0
I1
I0
I0
tp845
a(I1
I0
I1
I0
I1
I1
I0
tp846
a(I1
I0
I1
I0
I1
I1
I1
tp847
a(I0
I0
I1
I0
I0
I1
I0
tp848
aa(lp849
(I0
I0
I1
I0
I0
I1
I0
tp850
a(I0
I0
I0
I1
I1
I0
I1
tp851
a(I0
I0
I1
I0
I0
I1
I0
tp852
a(I0
I0
I1
I0
I1
I0
I0
tp853
a(I1
I0
I0
I0
I1
I1
I1
tp854
a(I1
I0
I1
I0
I1
I1
I1
tp855
a(I0
I0
I1
I0
I0
I1
I0
tp856
aa(lp857
(I1
I1
I1
I0
I0
I1
I0
tp858
a(I0
I0
I0
I1
I1
I0
I1
tp859
a(I0
I0
I1
I0
I0
I1
I0
tp860
a(I0
I0
I1
I1
I1
I0
I0
tp861
a(I1
I0
I0
I0
I1
I1
I0
tp862
a(I1
I0
I1
I0
I0
I1
I0
tp863
a(I0
I0
I1
I0
I0
I1
I0
tp864
aa(lp865
(I1
I1
I1
I0
I0
I1
I0
tp866
a(I0
I0
I0
I1
I1
I0
I1
tp867
a(I0
I0
I1
I0
I0
I1
I0
tp868
a(I0
I0
I1
I1
I1
I0
I0
tp869
a(I1
I0
I0
I0
I0
I1
I0
tp870
a(I1
I0
I1
I0
I0
I1
I0
tp871
a(I0
I0
I1
I0
I0
I1
I0
tp872
aa(lp873
(I0
I0
I1
I0
I0
I1
I0
tp874
a(I0
I0
I0
I1
I1
I0
I1
tp875
a(I0
I0
I1
I1
I0
I1
I0
tp876
a(I0
I0
I1
I0
I1
I0
I0
tp877
a(I0
I0
I1
I0
I1
I1
I0
tp878
a(I1
I0
I1
I0
I0
I1
I0
tp879
a(I0
I0
I1
I0
I0
I1
I0
tp880
aa(lp881
(I0
I0
I1
I1
I0
I1
I0
tp882
a(I0
I0
I0
I1
I1
I0
I1
tp883
a(I0
I0
I1
I0
I0
I1
I0
tp884
a(I0
I0
I1
I1
I1
I0
I0
tp885
a(I1
I0
I1
I0
I1
I1
I0
tp886
a(I1
I0
I1
I0
I0
I1
I0
tp887
a(I0
I0
I1
I0
I0
I1
I0
tp888
aa(lp889
(I0
I0
I1
I1
I0
I1
I0
tp890
a(I0
I0
I0
I1
I1
I0
I1
tp891
a(I0
I0
I1
I0
I0
I1
I0
tp892
a(I0
I0
I1
I1
I1
I0
I0
tp893
a(I0
I1
I1
I0
I1
I1
I0
tp894
a(I1
I0
I1
I0
I0
I1
I0
tp895
a(I0
I0
I1
I0
I0
I1
I0
tp896
aa(lp897
(I0
I0
I1
I1
I0
I1
I0
tp898
a(I0
I0
I0
I1
I1
I0
I1
tp899
a(I0
I0
I1
I0
I0
I1
I0
tp900
a(I0
I0
I1
I1
I1
I0
I0
tp901
a(I1
I0
I1
I0
I1
I0
I0
tp902
a(I1
I0
I1
I0
I0
I1
I0
tp903
a(I0
I0
I1
I0
I0
I1
I0
tp904
aa(lp905
(I0
I0
I1
I1
I0
I1
I1
tp906
a(I0
I0
I0
I1
I1
I0
I1
tp907
a(I0
I0
I1
I0
I0
I1
I0
tp908
a(I0
I0
I1
I0
I1
I0
I0
tp909
a(I0
I1
I1
I0
I1
I1
I0
tp910
a(I1
I0
I1
I0
I0
I1
I0
tp911
a(I0
I0
I1
I0
I0
I1
I0
tp912
aa(lp913
(I0
I0
I1
I1
I0
I1
I0
tp914
a(I0
I0
I0
I1
I1
I0
I1
tp915
a(I0
I0
I1
I0
I0
I1
I0
tp916
a(I0
I0
I1
I0
I1
I0
I0
tp917
a(I1
I0
I1
I0
I1
I1
I0
tp918
a(I1
I0
I1
I0
I0
I1
I0
tp919
a(I0
I0
I1
I0
I0
I1
I0
tp920
aa(lp921
(I0
I0
I1
I1
I0
I1
I0
tp922
a(I0
I0
I0
I1
I1
I0
I1
tp923
a(I0
I0
I1
I0
I0
I1
I0
tp924
a(I0
I0
I1
I0
I1
I0
I0
tp925
a(I1
I0
I1
I0
I0
I1
I0
tp926
a(I1
I0
I1
I0
I0
I1
I0
tp927
a(I0
I0
I1
I0
I0
I1
I0
tp928
aa(lp929
(I0
I0
I1
I0
I0
I1
I0
tp930
a(I0
I0
I0
I1
I1
I0
I1
tp931
a(I0
I0
I1
I0
I0
I1
I0
tp932
a(I0
I0
I1
I0
I1
I0
I0
tp933
a(I1
I0
I1
I0
I1
I1
I0
tp934
a(I1
I0
I1
I0
I0
I1
I0
tp935
a(I0
I0
I1
I0
I0
I1
I0
tp936
aa(lp937
(I0
I0
I1
I0
I0
I1
I0
tp938
a(I0
I0
I0
I1
I1
I0
I1
tp939
a(I0
I0
I1
I0
I0
I1
I0
tp940
a(I0
I0
I1
I0
I1
I0
I0
tp941
a(I1
I0
I0
I0
I1
I1
I1
tp942
a(I1
I0
I1
I0
I0
I1
I0
tp943
a(I0
I0
I1
I0
I0
I1
I0
tp944
aa(lp945
(I0
I0
I1
I0
I0
I1
I0
tp946
a(I0
I0
I0
I1
I1
I0
I1
tp947
a(I0
I0
I1
I0
I0
I1
I0
tp948
a(I0
I0
I1
I0
I1
I0
I0
tp949
a(I0
I0
I1
I0
I1
I1
I0
tp950
a(I1
I0
I1
I0
I0
I1
I0
tp951
a(I0
I0
I1
I0
I0
I1
I0
tp952
aa(lp953
(I0
I0
I1
I0
I0
I0
I0
tp954
a(I0
I0
I0
I1
I1
I0
I1
tp955
a(I0
I0
I1
I0
I0
I1
I0
tp956
a(I0
I0
I1
I0
I1
I0
I0
tp957
a(I1
I0
I0
I0
I1
I1
I1
tp958
a(I1
I0
I1
I0
I0
I1
I0
tp959
a(I0
I0
I1
I0
I0
I1
I0
tp960
aa(lp961
(I0
I0
I1
I0
I0
I0
I0
tp962
a(I0
I0
I0
I1
I1
I0
I1
tp963
a(I0
I0
I1
I0
I0
I1
I0
tp964
a(I0
I0
I1
I0
I1
I0
I0
tp965
a(I1
I0
I1
I0
I1
I0
I0
tp966
a(I1
I0
I1
I0
I0
I1
I0
tp967
a(I0
I0
I1
I0
I0
I1
I0
tp968
aa(lp969
(I0
I0
I1
I0
I0
I0
I0
tp970
a(I0
I0
I0
I1
I1
I0
I1
tp971
a(I0
I0
I1
I0
I0
I1
I0
tp972
a(I0
I0
I1
I0
I1
I0
I0
tp973
a(I1
I0
I0
I0
I0
I1
I0
tp974
a(I1
I0
I1
I0
I0
I1
I0
tp975
a(I0
I0
I1
I0
I0
I1
I0
tp976
aa(lp977
(I0
I0
I1
I0
I1
I1
I0
tp978
a(I0
I0
I0
I1
I1
I0
I1
tp979
a(I1
I0
I1
I0
I0
I1
I0
tp980
a(I0
I0
I1
I0
I1
I0
I0
tp981
a(I1
I0
I1
I0
I1
I1
I0
tp982
a(I1
I0
I0
I1
I1
I1
I1
tp983
a(I0
I0
I1
I0
I0
I0
I0
tp984
aa(lp985
(I0
I0
I1
I0
I1
I1
I0
tp986
a(I0
I0
I0
I1
I1
I0
I1
tp987
a(I1
I0
I1
I0
I0
I1
I0
tp988
a(I0
I0
I1
I0
I1
I0
I0
tp989
a(I1
I0
I0
I0
I1
I1
I1
tp990
a(I1
I0
I0
I1
I1
I1
I1
tp991
a(I0
I0
I1
I0
I0
I0
I0
tp992
aa(lp993
(I0
I0
I1
I0
I1
I1
I0
tp994
a(I0
I0
I0
I1
I1
I0
I1
tp995
a(I1
I0
I1
I0
I0
I1
I0
tp996
a(I0
I0
I1
I0
I1
I0
I0
tp997
a(I1
I0
I0
I0
I0
I1
I0
tp998
a(I1
I0
I0
I1
I1
I1
I1
tp999
a(I0
I0
I1
I0
I0
I0
I0
tp1000
aa(lp1001
(I0
I0
I1
I1
I0
I1
I0
tp1002
a(I0
I0
I0
I1
I1
I0
I1
tp1003
a(I1
I0
I1
I0
I0
I1
I0
tp1004
a(I0
I0
I1
I0
I1
I0
I0
tp1005
a(I1
I0
I0
I0
I1
I1
I1
tp1006
a(I1
I0
I0
I1
I1
I1
I1
tp1007
a(I0
I0
I1
I0
I0
I0
I0
tp1008
aa(lp1009
(I0
I0
I1
I0
I0
I1
I0
tp1010
a(I0
I0
I0
I1
I1
I0
I1
tp1011
a(I1
I0
I1
I0
I0
I1
I0
tp1012
a(I0
I0
I1
I0
I1
I0
I0
tp1013
a(I1
I0
I1
I0
I1
I1
I0
tp1014
a(I1
I0
I0
I1
I1
I1
I1
tp1015
a(I0
I0
I1
I0
I0
I0
I0
tp1016
aa(lp1017
(I0
I0
I1
I0
I0
I1
I0
tp1018
a(I0
I0
I0
I1
I1
I0
I1
tp1019
a(I1
I0
I1
I0
I0
I1
I0
tp1020
a(I0
I0
I1
I0
I1
I0
I0
tp1021
a(I1
I0
I0
I0
I1
I1
I1
tp1022
a(I1
I0
I0
I1
I1
I1
I1
tp1023
a(I0
I0
I1
I0
I0
I0
I0
tp1024
aa(lp1025
(I0
I0
I1
I0
I0
I1
I0
tp1026
a(I0
I0
I0
I1
I1
I0
I1
tp1027
a(I1
I0
I1
I0
I0
I1
I0
tp1028
a(I0
I0
I1
I0
I1
I0
I0
tp1029
a(I1
I0
I1
I1
I0
I1
I0
tp1030
a(I1
I0
I0
I1
I1
I1
I1
tp1031
a(I0
I0
I1
I0
I0
I0
I0
tp1032
aa(lp1033
(I0
I0
I1
I0
I0
I1
I0
tp1034
a(I0
I0
I0
I1
I1
I0
I1
tp1035
a(I1
I0
I1
I0
I0
I1
I0
tp1036
a(I0
I0
I1
I0
I1
I0
I0
tp1037
a(I1
I0
I1
I0
I1
I1
I0
tp1038
a(I1
I0
I1
I0
I1
I1
I1
tp1039
a(I0
I0
I1
I0
I0
I0
I0
tp1040
aa(lp1041
(I0
I0
I1
I0
I0
I1
I0
tp1042
a(I0
I0
I0
I1
I1
I0
I1
tp1043
a(I1
I0
I1
I0
I0
I1
I0
tp1044
a(I0
I0
I1
I0
I1
I0
I0
tp1045
a(I1
I0
I0
I0
I1
I1
I1
tp1046
a(I1
I0
I1
I0
I1
I1
I1
tp1047
a(I0
I0
I1
I0
I0
I0
I0
tp1048
aa(lp1049
(I0
I0
I1
I0
I0
I1
I0
tp1050
a(I0
I0
I0
I1
I1
I0
I1
tp1051
a(I1
I0
I1
I0
I0
I1
I0
tp1052
a(I0
I0
I1
I0
I1
I0
I0
tp1053
a(I1
I0
I1
I0
I1
I0
I0
tp1054
a(I1
I0
I1
I0
I1
I1
I1
tp1055
a(I0
I0
I1
I0
I0
I0
I0
tp1056
aa(lp1057
(I0
I0
I1
I1
I0
I1
I1
tp1058
a(I0
I0
I0
I1
I1
I0
I1
tp1059
a(I1
I0
I0
I0
I0
I1
I0
tp1060
a(I0
I0
I1
I1
I1
I0
I0
tp1061
a(I1
I0
I1
I0
I1
I1
I0
tp1062
a(I1
I0
I1
I0
I0
I1
I0
tp1063
a(I0
I0
I1
I0
I0
I0
I0
tp1064
aa(lp1065
(I0
I0
I1
I1
I0
I1
I1
tp1066
a(I0
I0
I0
I1
I1
I0
I1
tp1067
a(I1
I0
I1
I0
I0
I1
I0
tp1068
a(I0
I0
I1
I1
I1
I0
I0
tp1069
a(I1
I0
I1
I0
I1
I1
I0
tp1070
a(I1
I0
I1
I0
I0
I1
I0
tp1071
a(I0
I0
I1
I0
I0
I0
I0
tp1072
aa(lp1073
(I0
I0
I1
I1
I0
I1
I1
tp1074
a(I0
I0
I0
I1
I1
I0
I1
tp1075
a(I1
I0
I0
I0
I0
I1
I0
tp1076
a(I0
I0
I1
I1
I1
I0
I0
tp1077
a(I1
I0
I1
I0
I1
I0
I0
tp1078
a(I1
I0
I1
I0
I0
I1
I0
tp1079
a(I0
I0
I1
I0
I0
I0
I0
tp1080
aa(lp1081
(I0
I0
I1
I1
I0
I1
I0
tp1082
a(I0
I0
I0
I1
I1
I0
I1
tp1083
a(I1
I0
I1
I0
I0
I1
I0
tp1084
a(I0
I0
I1
I1
I1
I0
I0
tp1085
a(I1
I0
I1
I0
I1
I1
I0
tp1086
a(I1
I0
I1
I0
I0
I1
I0
tp1087
a(I0
I0
I1
I0
I0
I0
I0
tp1088
aa(lp1089
(I0
I0
I1
I0
I0
I1
I0
tp1090
a(I0
I0
I0
I1
I1
I0
I1
tp1091
a(I1
I0
I1
I0
I0
I1
I0
tp1092
a(I0
I0
I1
I1
I1
I0
I0
tp1093
a(I1
I0
I1
I0
I1
I1
I0
tp1094
a(I1
I0
I1
I0
I0
I1
I0
tp1095
a(I0
I0
I1
I0
I0
I0
I0
tp1096
aa(lp1097
(I0
I0
I1
I0
I0
I1
I0
tp1098
a(I0
I0
I0
I1
I1
I0
I1
tp1099
a(I1
I0
I1
I0
I0
I1
I0
tp1100
a(I0
I0
I1
I1
I1
I0
I0
tp1101
a(I1
I0
I0
I0
I1
I1
I1
tp1102
a(I1
I0
I1
I0
I0
I1
I0
tp1103
a(I0
I0
I1
I0
I0
I0
I0
tp1104
aa(lp1105
(I0
I0
I1
I0
I0
I1
I0
tp1106
a(I0
I0
I0
I1
I1
I0
I1
tp1107
a(I1
I0
I1
I0
I0
I1
I0
tp1108
a(I0
I0
I1
I1
I1
I0
I0
tp1109
a(I1
I0
I1
I0
I0
I1
I0
tp1110
a(I1
I0
I1
I0
I0
I1
I0
tp1111
a(I0
I0
I1
I0
I0
I0
I0
tp1112
aa(lp1113
(I0
I0
I1
I0
I0
I1
I0
tp1114
a(I0
I0
I0
I1
I1
I0
I1
tp1115
a(I1
I0
I1
I0
I0
I1
I0
tp1116
a(I0
I0
I1
I1
I1
I0
I0
tp1117
a(I1
I0
I0
I0
I0
I1
I0
tp1118
a(I1
I0
I1
I0
I0
I1
I0
tp1119
a(I0
I0
I1
I0
I0
I0
I0
tp1120
aa(lp1121
(I0
I0
I1
I1
I0
I1
I1
tp1122
a(I0
I0
I0
I1
I1
I0
I1
tp1123
a(I1
I0
I1
I0
I0
I1
I0
tp1124
a(I0
I0
I1
I0
I1
I0
I0
tp1125
a(I1
I0
I1
I0
I1
I1
I0
tp1126
a(I1
I0
I1
I0
I0
I1
I0
tp1127
a(I0
I0
I1
I0
I0
I0
I0
tp1128
aa(lp1129
(I0
I0
I1
I1
I0
I1
I1
tp1130
a(I0
I0
I0
I1
I1
I0
I1
tp1131
a(I1
I0
I0
I0
I0
I1
I0
tp1132
a(I0
I0
I1
I0
I1
I0
I0
tp1133
a(I1
I0
I1
I0
I0
I1
I0
tp1134
a(I1
I0
I1
I0
I0
I1
I0
tp1135
a(I0
I0
I1
I0
I0
I0
I0
tp1136
aa(lp1137
(I0
I0
I1
I0
I1
I1
I0
tp1138
a(I0
I0
I0
I1
I1
I0
I1
tp1139
a(I1
I0
I1
I0
I0
I1
I0
tp1140
a(I0
I0
I1
I0
I1
I0
I0
tp1141
a(I1
I0
I1
I0
I1
I1
I0
tp1142
a(I1
I0
I1
I0
I0
I1
I0
tp1143
a(I0
I0
I1
I0
I0
I0
I0
tp1144
aa(lp1145
(I0
I0
I1
I0
I1
I1
I0
tp1146
a(I0
I0
I0
I1
I1
I0
I1
tp1147
a(I1
I0
I1
I0
I0
I1
I0
tp1148
a(I0
I0
I1
I0
I1
I0
I0
tp1149
a(I1
I0
I0
I0
I1
I1
I1
tp1150
a(I1
I0
I1
I0
I0
I1
I0
tp1151
a(I0
I0
I1
I0
I0
I0
I0
tp1152
aa(lp1153
(I0
I0
I1
I1
I0
I1
I0
tp1154
a(I0
I0
I0
I1
I1
I0
I1
tp1155
a(I1
I0
I1
I0
I0
I1
I0
tp1156
a(I0
I0
I1
I0
I1
I0
I0
tp1157
a(I1
I0
I1
I0
I1
I1
I0
tp1158
a(I1
I0
I1
I0
I0
I1
I0
tp1159
a(I0
I0
I1
I0
I0
I0
I0
tp1160
aa(lp1161
(I0
I0
I1
I1
I0
I1
I0
tp1162
a(I0
I0
I0
I1
I1
I0
I1
tp1163
a(I1
I0
I1
I0
I0
I1
I0
tp1164
a(I0
I0
I1
I0
I1
I0
I0
tp1165
a(I1
I0
I0
I0
I1
I1
I1
tp1166
a(I1
I0
I1
I0
I0
I1
I0
tp1167
a(I0
I0
I1
I0
I0
I0
I0
tp1168
aa(lp1169
(I0
I0
I1
I0
I0
I1
I0
tp1170
a(I0
I0
I0
I1
I1
I0
I1
tp1171
a(I1
I0
I1
I0
I0
I1
I0
tp1172
a(I0
I0
I1
I0
I1
I0
I0
tp1173
a(I1
I0
I1
I0
I1
I1
I0
tp1174
a(I1
I0
I1
I0
I0
I1
I0
tp1175
a(I0
I0
I1
I0
I0
I0
I0
tp1176
aa(lp1177
(I0
I0
I1
I0
I0
I1
I0
tp1178
a(I0
I0
I0
I1
I1
I0
I1
tp1179
a(I1
I0
I1
I0
I0
I1
I0
tp1180
a(I0
I0
I1
I0
I1
I0
I0
tp1181
a(I1
I0
I0
I0
I1
I1
I1
tp1182
a(I1
I0
I1
I0
I0
I1
I0
tp1183
a(I0
I0
I1
I0
I0
I0
I0
tp1184
aa(lp1185
(I0
I0
I1
I0
I0
I1
I0
tp1186
a(I0
I0
I0
I1
I1
I0
I1
tp1187
a(I1
I0
I1
I0
I0
I1
I0
tp1188
a(I0
I0
I1
I0
I1
I0
I0
tp1189
a(I1
I0
I1
I0
I0
I1
I0
tp1190
a(I1
I0
I1
I0
I0
I1
I0
tp1191
a(I0
I0
I1
I0
I0
I0
I0
tp1192
aa(lp1193
(I0
I0
I1
I0
I0
I1
I0
tp1194
a(I0
I0
I0
I1
I1
I0
I1
tp1195
a(I1
I0
I1
I0
I0
I1
I0
tp1196
a(I0
I0
I1
I0
I1
I0
I0
tp1197
a(I1
I0
I1
I0
I1
I0
I0
tp1198
a(I1
I0
I1
I0
I0
I1
I0
tp1199
a(I0
I0
I1
I0
I0
I0
I0
tp1200
aa(lp1201
(I0
I0
I1
I1
I0
I1
I1
tp1202
a(I0
I0
I1
I0
I1
I1
I1
tp1203
a(I1
I0
I0
I0
I0
I1
I0
tp1204
a(I0
I0
I1
I1
I1
I0
I0
tp1205
a(I1
I0
I1
I0
I1
I1
I1
tp1206
a(I0
I0
I1
I0
I0
I1
I0
tp1207
a(I0
I0
I1
I0
I0
I0
I0
tp1208
aa(lp1209
(I0
I0
I1
I0
I0
I1
I0
tp1210
a(I0
I0
I1
I0
I1
I1
I1
tp1211
a(I1
I0
I1
I0
I0
I1
I0
tp1212
a(I0
I0
I1
I0
I1
I0
I0
tp1213
a(I1
I0
I0
I0
I1
I1
I1
tp1214
a(I1
I0
I1
I0
I0
I1
I0
tp1215
a(I0
I0
I1
I0
I0
I0
I0
tp1216
aa(lp1217
(I0
I0
I1
I0
I0
I1
I0
tp1218
a(I0
I0
I1
I0
I1
I1
I1
tp1219
a(I1
I0
I1
I0
I0
I1
I0
tp1220
a(I0
I0
I1
I0
I1
I0
I0
tp1221
a(I1
I0
I0
I0
I0
I1
I0
tp1222
a(I1
I0
I1
I0
I0
I1
I0
tp1223
a(I0
I0
I1
I0
I0
I0
I0
tp1224
aa(lp1225
(I0
I0
I1
I0
I1
I1
I0
tp1226
a(I0
I0
I1
I1
I0
I1
I1
tp1227
a(I1
I0
I1
I0
I0
I1
I0
tp1228
a(I0
I0
I1
I1
I1
I0
I0
tp1229
a(I1
I0
I0
I0
I1
I1
I1
tp1230
a(I0
I0
I1
I0
I0
I1
I0
tp1231
a(I0
I0
I1
I0
I0
I0
I0
tp1232
aa(lp1233
(I0
I0
I1
I0
I1
I1
I1
tp1234
a(I0
I0
I1
I1
I0
I1
I1
tp1235
a(I1
I0
I0
I0
I0
I1
I0
tp1236
a(I0
I0
I1
I1
I1
I0
I0
tp1237
a(I1
I0
I0
I0
I1
I1
I1
tp1238
a(I0
I0
I1
I0
I0
I1
I0
tp1239
a(I0
I0
I1
I0
I0
I0
I0
tp1240
aa(lp1241
(I0
I0
I1
I1
I0
I1
I0
tp1242
a(I0
I0
I0
I1
I1
I0
I1
tp1243
a(I1
I0
I1
I0
I0
I1
I0
tp1244
a(I0
I0
I1
I1
I1
I0
I0
tp1245
a(I1
I0
I1
I0
I1
I1
I0
tp1246
a(I0
I0
I1
I0
I0
I1
I0
tp1247
a(I0
I0
I1
I0
I0
I0
I0
tp1248
aa(lp1249
(I0
I0
I1
I1
I0
I1
I0
tp1250
a(I0
I0
I0
I1
I1
I0
I1
tp1251
a(I1
I0
I1
I0
I0
I1
I0
tp1252
a(I0
I0
I1
I1
I1
I0
I0
tp1253
a(I1
I0
I0
I0
I1
I1
I1
tp1254
a(I0
I0
I1
I0
I0
I1
I0
tp1255
a(I0
I0
I1
I0
I0
I0
I0
tp1256
aa(lp1257
(I0
I0
I1
I1
I0
I1
I0
tp1258
a(I0
I0
I0
I1
I1
I0
I1
tp1259
a(I1
I0
I0
I0
I0
I1
I0
tp1260
a(I0
I0
I1
I1
I1
I0
I0
tp1261
a(I1
I0
I0
I0
I1
I1
I1
tp1262
a(I0
I0
I1
I0
I0
I1
I0
tp1263
a(I0
I0
I1
I0
I0
I0
I0
tp1264
aa(lp1265
(I0
I0
I1
I1
I0
I1
I0
tp1266
a(I0
I0
I1
I0
I1
I0
I1
tp1267
a(I1
I0
I0
I0
I0
I1
I0
tp1268
a(I0
I0
I1
I1
I1
I0
I0
tp1269
a(I1
I0
I0
I0
I1
I1
I1
tp1270
a(I0
I0
I1
I0
I0
I1
I0
tp1271
a(I0
I0
I1
I0
I0
I0
I0
tp1272
aa(lp1273
(I0
I0
I1
I1
I0
I1
I0
tp1274
a(I0
I0
I1
I0
I1
I0
I1
tp1275
a(I1
I0
I0
I0
I0
I1
I0
tp1276
a(I0
I0
I1
I1
I1
I0
I0
tp1277
a(I1
I0
I1
I0
I0
I1
I0
tp1278
a(I0
I0
I1
I0
I0
I1
I0
tp1279
a(I0
I0
I1
I0
I0
I0
I0
tp1280
aa(lp1281
(I0
I0
I1
I0
I0
I1
I0
tp1282
a(I0
I0
I1
I0
I1
I1
I1
tp1283
a(I1
I0
I0
I0
I0
I1
I0
tp1284
a(I0
I0
I1
I1
I1
I0
I0
tp1285
a(I1
I0
I0
I0
I1
I1
I1
tp1286
a(I0
I0
I1
I0
I0
I1
I0
tp1287
a(I0
I0
I1
I0
I0
I0
I0
tp1288
aa(lp1289
(I0
I0
I1
I0
I0
I1
I0
tp1290
a(I0
I0
I1
I0
I1
I1
I1
tp1291
a(I1
I0
I1
I0
I0
I1
I0
tp1292
a(I0
I0
I1
I1
I1
I0
I0
tp1293
a(I1
I0
I0
I0
I1
I1
I1
tp1294
a(I0
I0
I1
I0
I0
I1
I0
tp1295
a(I0
I0
I1
I0
I0
I0
I0
tp1296
aa(lp1297
(I0
I0
I1
I0
I0
I1
I0
tp1298
a(I0
I0
I1
I0
I1
I1
I1
tp1299
a(I1
I0
I1
I0
I0
I1
I0
tp1300
a(I0
I0
I1
I1
I1
I0
I0
tp1301
a(I1
I0
I0
I0
I1
I0
I1
tp1302
a(I0
I0
I1
I0
I0
I1
I0
tp1303
a(I0
I0
I1
I0
I0
I0
I0
tp1304
aa(lp1305
(I0
I0
I1
I1
I0
I1
I1
tp1306
a(I0
I0
I1
I0
I1
I1
I1
tp1307
a(I1
I0
I1
I0
I0
I1
I0
tp1308
a(I0
I0
I1
I0
I1
I0
I0
tp1309
a(I1
I0
I0
I0
I1
I1
I1
tp1310
a(I0
I0
I1
I0
I0
I1
I0
tp1311
a(I0
I0
I1
I0
I0
I0
I0
tp1312
aa(lp1313
(I0
I0
I1
I0
I1
I1
I0
tp1314
a(I0
I0
I1
I1
I0
I1
I1
tp1315
a(I1
I0
I1
I0
I0
I1
I0
tp1316
a(I0
I0
I1
I0
I1
I0
I0
tp1317
a(I1
I0
I0
I0
I1
I1
I1
tp1318
a(I0
I0
I1
I0
I0
I1
I0
tp1319
a(I0
I0
I1
I0
I0
I0
I0
tp1320
aa(lp1321
(I0
I0
I1
I0
I1
I1
I0
tp1322
a(I0
I0
I1
I1
I0
I1
I1
tp1323
a(I1
I0
I1
I0
I0
I1
I0
tp1324
a(I0
I0
I1
I0
I1
I0
I0
tp1325
a(I1
I0
I0
I0
I0
I1
I1
tp1326
a(I0
I0
I1
I0
I0
I1
I0
tp1327
a(I0
I0
I1
I0
I0
I0
I0
tp1328
aa(lp1329
(I0
I0
I1
I1
I0
I1
I0
tp1330
a(I1
I0
I1
I0
I1
I1
I1
tp1331
a(I1
I0
I1
I0
I0
I1
I0
tp1332
a(I0
I0
I1
I0
I1
I0
I0
tp1333
a(I1
I0
I0
I0
I1
I1
I1
tp1334
a(I0
I0
I1
I0
I0
I1
I0
tp1335
a(I0
I0
I1
I0
I0
I0
I0
tp1336
aa(lp1337
(I0
I0
I1
I1
I0
I1
I0
tp1338
a(I0
I0
I1
I0
I1
I1
I1
tp1339
a(I1
I0
I1
I0
I0
I1
I0
tp1340
a(I0
I0
I1
I0
I1
I0
I0
tp1341
a(I1
I0
I0
I0
I1
I1
I1
tp1342
a(I0
I0
I1
I0
I0
I1
I0
tp1343
a(I0
I0
I1
I0
I0
I0
I0
tp1344
aa(lp1345
(I0
I0
I1
I0
I0
I1
I0
tp1346
a(I0
I0
I1
I1
I0
I1
I1
tp1347
a(I1
I0
I1
I0
I0
I1
I0
tp1348
a(I0
I0
I1
I0
I1
I0
I0
tp1349
a(I1
I0
I0
I0
I1
I1
I1
tp1350
a(I0
I0
I1
I0
I0
I1
I0
tp1351
a(I0
I0
I1
I0
I0
I0
I0
tp1352
aa(lp1353
(I0
I0
I1
I0
I0
I1
I0
tp1354
a(I0
I0
I1
I0
I1
I1
I1
tp1355
a(I1
I0
I1
I0
I0
I1
I0
tp1356
a(I0
I0
I1
I0
I1
I0
I0
tp1357
a(I1
I0
I0
I0
I1
I1
I1
tp1358
a(I0
I0
I1
I0
I0
I1
I0
tp1359
a(I0
I0
I1
I0
I0
I0
I0
tp1360
aa(lp1361
(I0
I0
I1
I0
I0
I1
I0
tp1362
a(I0
I0
I1
I0
I1
I1
I1
tp1363
a(I1
I0
I1
I0
I0
I1
I0
tp1364
a(I0
I0
I1
I0
I1
I0
I0
tp1365
a(I1
I0
I1
I0
I0
I1
I1
tp1366
a(I0
I0
I1
I0
I0
I1
I0
tp1367
a(I0
I0
I1
I0
I0
I0
I0
tp1368
aa(lp1369
(I0
I0
I1
I0
I0
I1
I0
tp1370
a(I0
I0
I1
I0
I1
I1
I1
tp1371
a(I1
I0
I1
I0
I0
I1
I0
tp1372
a(I0
I0
I1
I0
I1
I0
I0
tp1373
a(I0
I1
I0
I0
I1
I1
I1
tp1374
a(I0
I0
I1
I0
I0
I1
I0
tp1375
a(I0
I0
I1
I0
I0
I0
I0
tp1376
aa(lp1377
(I0
I0
I1
I0
I0
I1
I0
tp1378
a(I0
I0
I1
I1
I0
I1
I0
tp1379
a(I1
I0
I1
I0
I0
I1
I0
tp1380
a(I0
I0
I1
I0
I1
I0
I0
tp1381
a(I1
I0
I0
I0
I1
I1
I1
tp1382
a(I0
I0
I1
I0
I0
I1
I0
tp1383
a(I0
I0
I1
I0
I0
I0
I0
tp1384
aa(lp1385
(I0
I0
I1
I0
I0
I1
I0
tp1386
a(I0
I0
I1
I1
I0
I1
I0
tp1387
a(I1
I0
I1
I0
I0
I1
I0
tp1388
a(I0
I0
I1
I0
I1
I0
I0
tp1389
a(I1
I0
I0
I0
I0
I1
I0
tp1390
a(I0
I0
I1
I0
I0
I1
I0
tp1391
a(I0
I0
I1
I0
I0
I0
I0
tp1392
aa(lp1393
(I0
I0
I1
I0
I0
I1
I0
tp1394
a(I0
I0
I1
I0
I1
I1
I1
tp1395
a(I1
I0
I1
I0
I0
I1
I0
tp1396
a(I0
I0
I1
I0
I1
I0
I0
tp1397
a(I1
I0
I0
I0
I0
I0
I0
tp1398
a(I0
I0
I1
I0
I0
I1
I0
tp1399
a(I0
I0
I1
I0
I0
I0
I0
tp1400
aa(lp1401
(I0
I0
I1
I0
I0
I1
I0
tp1402
a(I0
I0
I1
I0
I1
I0
I1
tp1403
a(I1
I0
I1
I0
I0
I1
I0
tp1404
a(I0
I0
I1
I0
I1
I0
I0
tp1405
a(I1
I0
I0
I0
I0
I0
I0
tp1406
a(I0
I0
I1
I0
I0
I1
I0
tp1407
a(I0
I0
I1
I0
I0
I0
I0
tp1408
aa(lp1409
(I0
I0
I1
I1
I0
I1
I0
tp1410
a(I0
I0
I0
I1
I1
I0
I1
tp1411
a(I0
I0
I1
I0
I0
I1
I0
tp1412
a(I0
I0
I1
I0
I1
I0
I0
tp1413
a(I1
I0
I0
I0
I1
I1
I1
tp1414
a(I1
I0
I1
I0
I0
I1
I0
tp1415
a(I0
I0
I1
I0
I0
I0
I0
tp1416
aa(lp1417
(I0
I0
I1
I1
I0
I1
I0
tp1418
a(I0
I0
I0
I1
I1
I0
I1
tp1419
a(I0
I0
I1
I0
I0
I1
I0
tp1420
a(I0
I0
I1
I0
I1
I0
I0
tp1421
a(I0
I0
I1
I0
I1
I1
I0
tp1422
a(I1
I0
I1
I0
I0
I1
I0
tp1423
a(I0
I0
I1
I0
I0
I0
I0
tp1424
aa(lp1425
(I0
I0
I1
I1
I0
I1
I0
tp1426
a(I0
I0
I0
I1
I1
I0
I1
tp1427
a(I0
I0
I1
I0
I0
I1
I0
tp1428
a(I0
I0
I1
I0
I1
I0
I0
tp1429
a(I1
I0
I1
I0
I0
I1
I0
tp1430
a(I1
I0
I1
I0
I0
I1
I0
tp1431
a(I0
I0
I1
I0
I0
I0
I0
tp1432
aa(lp1433
(I0
I0
I1
I0
I0
I0
I0
tp1434
a(I0
I0
I1
I0
I0
I1
I1
tp1435
a(I1
I0
I1
I0
I0
I1
I0
tp1436
a(I0
I0
I1
I0
I1
I0
I0
tp1437
a(I1
I0
I0
I0
I1
I1
I1
tp1438
a(I0
I0
I1
I0
I0
I1
I0
tp1439
a(I0
I0
I1
I0
I0
I0
I0
tp1440
aa(lp1441
(I0
I0
I1
I0
I0
I1
I0
tp1442
a(I0
I0
I0
I1
I1
I0
I1
tp1443
a(I0
I0
I1
I0
I0
I1
I0
tp1444
a(I0
I0
I1
I0
I1
I0
I0
tp1445
a(I1
I0
I1
I1
I1
I1
I1
tp1446
a(I1
I0
I1
I0
I0
I1
I0
tp1447
a(I0
I0
I1
I0
I0
I0
I0
tp1448
aa(lp1449
(I0
I0
I1
I0
I0
I1
I0
tp1450
a(I0
I0
I0
I1
I1
I0
I1
tp1451
a(I0
I0
I1
I0
I0
I1
I0
tp1452
a(I0
I0
I1
I0
I1
I0
I0
tp1453
a(I1
I0
I0
I0
I1
I1
I1
tp1454
a(I1
I0
I1
I0
I0
I1
I0
tp1455
a(I0
I0
I1
I0
I0
I0
I0
tp1456
aa(lp1457
(I0
I0
I1
I0
I0
I1
I0
tp1458
a(I0
I0
I0
I1
I1
I0
I1
tp1459
a(I0
I0
I1
I0
I0
I1
I0
tp1460
a(I0
I0
I1
I0
I1
I0
I0
tp1461
a(I0
I0
I1
I0
I1
I1
I0
tp1462
a(I1
I0
I1
I0
I0
I1
I0
tp1463
a(I0
I0
I1
I0
I0
I0
I0
tp1464
aa(lp1465
(I0
I0
I1
I0
I0
I1
I0
tp1466
a(I0
I0
I0
I1
I1
I0
I1
tp1467
a(I0
I0
I1
I0
I0
I1
I0
tp1468
a(I0
I0
I1
I0
I1
I0
I0
tp1469
a(I1
I0
I0
I0
I1
I0
I0
tp1470
a(I1
I0
I1
I0
I0
I1
I0
tp1471
a(I0
I0
I1
I0
I0
I0
I0
tp1472
aa(lp1473
(I0
I0
I1
I0
I0
I1
I0
tp1474
a(I0
I0
I0
I1
I1
I0
I1
tp1475
a(I0
I0
I1
I0
I0
I1
I0
tp1476
a(I0
I0
I1
I0
I1
I0
I0
tp1477
a(I1
I1
I1
I0
I1
I0
I0
tp1478
a(I1
I0
I1
I0
I0
I1
I0
tp1479
a(I0
I0
I1
I0
I0
I0
I0
tp1480
aa(lp1481
(I0
I0
I1
I0
I0
I1
I0
tp1482
a(I1
I0
I1
I0
I1
I1
I1
tp1483
a(I0
I0
I1
I0
I0
I1
I0
tp1484
a(I0
I0
I1
I0
I1
I0
I0
tp1485
a(I1
I0
I1
I0
I1
I1
I0
tp1486
a(I1
I0
I1
I0
I0
I1
I0
tp1487
a(I0
I0
I1
I0
I0
I0
I0
tp1488
aa(lp1489
(I0
I0
I1
I0
I0
I1
I0
tp1490
a(I1
I0
I1
I0
I1
I0
I1
tp1491
a(I0
I0
I1
I0
I0
I1
I0
tp1492
a(I0
I0
I1
I0
I1
I0
I0
tp1493
a(I1
I0
I0
I0
I1
I0
I1
tp1494
a(I1
I0
I1
I0
I0
I1
I0
tp1495
a(I0
I0
I1
I0
I0
I0
I0
tp1496
aa(lp1497
(I0
I0
I1
I0
I0
I1
I0
tp1498
a(I0
I0
I1
I0
I1
I1
I1
tp1499
a(I0
I0
I1
I0
I0
I1
I0
tp1500
a(I0
I0
I1
I0
I1
I0
I0
tp1501
a(I1
I0
I0
I0
I1
I1
I1
tp1502
a(I1
I0
I1
I0
I0
I1
I0
tp1503
a(I0
I0
I1
I0
I0
I0
I0
tp1504
aa(lp1505
(I0
I0
I1
I0
I0
I1
I0
tp1506
a(I0
I0
I1
I0
I0
I1
I1
tp1507
a(I0
I0
I1
I0
I0
I1
I0
tp1508
a(I0
I0
I1
I0
I1
I0
I0
tp1509
a(I1
I0
I0
I0
I0
I1
I0
tp1510
a(I1
I0
I1
I0
I0
I1
I0
tp1511
a(I0
I0
I1
I0
I0
I0
I0
tp1512
aa(lp1513
(I0
I0
I1
I0
I0
I1
I0
tp1514
a(I0
I0
I1
I0
I1
I1
I1
tp1515
a(I0
I0
I1
I0
I0
I1
I0
tp1516
a(I0
I0
I1
I0
I1
I0
I0
tp1517
a(I1
I0
I0
I0
I0
I1
I0
tp1518
a(I1
I0
I1
I0
I0
I1
I0
tp1519
a(I0
I0
I1
I0
I0
I0
I0
tp1520
aa(lp1521
(I0
I0
I1
I0
I0
I1
I0
tp1522
a(I0
I0
I1
I0
I1
I1
I1
tp1523
a(I0
I0
I1
I0
I0
I1
I0
tp1524
a(I0
I0
I1
I0
I1
I0
I0
tp1525
a(I1
I0
I1
I0
I0
I0
I0
tp1526
a(I1
I0
I1
I0
I0
I1
I0
tp1527
a(I0
I0
I1
I0
I0
I0
I0
tp1528
aa(lp1529
(I0
I0
I1
I0
I0
I1
I0
tp1530
a(I0
I0
I1
I1
I0
I1
I1
tp1531
a(I0
I0
I1
I0
I0
I1
I0
tp1532
a(I0
I0
I1
I1
I1
I0
I0
tp1533
a(I1
I0
I1
I0
I0
I1
I0
tp1534
a(I0
I0
I1
I0
I0
I1
I0
tp1535
a(I0
I0
I1
I0
I0
I0
I0
tp1536
aa(lp1537
(I0
I0
I1
I0
I0
I1
I0
tp1538
a(I0
I0
I1
I1
I0
I1
I1
tp1539
a(I0
I0
I1
I0
I0
I1
I0
tp1540
a(I0
I0
I1
I1
I1
I0
I0
tp1541
a(I1
I0
I0
I0
I0
I1
I0
tp1542
a(I0
I0
I1
I0
I0
I1
I0
tp1543
a(I0
I0
I1
I0
I0
I0
I0
tp1544
aa(lp1545
(I0
I0
I1
I0
I0
I1
I0
tp1546
a(I0
I0
I1
I0
I0
I1
I1
tp1547
a(I0
I0
I1
I0
I0
I1
I0
tp1548
a(I0
I0
I1
I1
I1
I0
I0
tp1549
a(I1
I0
I0
I0
I1
I1
I0
tp1550
a(I0
I0
I1
I0
I0
I1
I0
tp1551
a(I0
I0
I1
I0
I0
I0
I0
tp1552
aa(lp1553
(I0
I0
I1
I0
I0
I1
I0
tp1554
a(I0
I0
I1
I0
I1
I1
I1
tp1555
a(I0
I0
I1
I0
I0
I1
I0
tp1556
a(I0
I0
I1
I1
I1
I0
I0
tp1557
a(I1
I0
I0
I0
I1
I1
I1
tp1558
a(I0
I0
I1
I0
I0
I1
I0
tp1559
a(I0
I0
I1
I0
I0
I0
I0
tp1560
aa(lp1561
(I0
I0
I1
I0
I0
I1
I0
tp1562
a(I0
I0
I1
I0
I1
I1
I1
tp1563
a(I0
I0
I1
I0
I0
I1
I0
tp1564
a(I0
I0
I1
I1
I1
I0
I0
tp1565
a(I1
I0
I0
I0
I1
I0
I1
tp1566
a(I0
I0
I1
I0
I0
I1
I0
tp1567
a(I0
I0
I1
I0
I0
I0
I0
tp1568
aa(lp1569
(I0
I0
I1
I0
I0
I1
I0
tp1570
a(I0
I0
I1
I0
I1
I1
I1
tp1571
a(I0
I0
I1
I0
I0
I1
I0
tp1572
a(I0
I0
I1
I1
I1
I0
I0
tp1573
a(I1
I0
I0
I0
I0
I1
I0
tp1574
a(I0
I0
I1
I0
I0
I1
I0
tp1575
a(I0
I0
I1
I0
I0
I0
I0
tp1576
aa(lp1577
(I0
I0
I1
I1
I0
I1
I1
tp1578
a(I0
I0
I1
I0
I1
I1
I1
tp1579
a(I0
I0
I1
I0
I0
I1
I0
tp1580
a(I0
I0
I1
I0
I1
I0
I0
tp1581
a(I1
I0
I0
I0
I1
I1
I1
tp1582
a(I0
I0
I1
I0
I0
I1
I0
tp1583
a(I0
I0
I1
I0
I0
I0
I0
tp1584
aa(lp1585
(I0
I0
I1
I1
I0
I1
I1
tp1586
a(I0
I0
I1
I0
I1
I1
I1
tp1587
a(I0
I0
I1
I0
I0
I1
I0
tp1588
a(I0
I0
I1
I0
I1
I0
I0
tp1589
a(I0
I0
I0
I0
I1
I1
I1
tp1590
a(I0
I0
I1
I0
I0
I1
I0
tp1591
a(I0
I0
I1
I0
I0
I0
I0
tp1592
aa(lp1593
(I0
I0
I1
I1
I0
I1
I1
tp1594
a(I0
I0
I1
I0
I1
I1
I1
tp1595
a(I0
I0
I1
I0
I0
I1
I0
tp1596
a(I0
I0
I1
I0
I1
I0
I0
tp1597
a(I1
I1
I1
I0
I1
I0
I0
tp1598
a(I0
I0
I1
I0
I0
I1
I0
tp1599
a(I0
I0
I1
I0
I0
I0
I0
tp1600
aa(lp1601
(I0
I0
I1
I0
I1
I1
I0
tp1602
a(I0
I0
I1
I1
I0
I1
I1
tp1603
a(I0
I0
I1
I0
I0
I1
I0
tp1604
a(I0
I0
I1
I0
I1
I0
I0
tp1605
a(I1
I0
I0
I0
I1
I1
I1
tp1606
a(I0
I0
I1
I0
I0
I1
I0
tp1607
a(I0
I0
I1
I0
I0
I0
I0
tp1608
aa(lp1609
(I0
I0
I1
I1
I0
I1
I0
tp1610
a(I1
I0
I1
I0
I1
I1
I1
tp1611
a(I0
I0
I1
I0
I0
I1
I0
tp1612
a(I0
I0
I1
I0
I1
I0
I0
tp1613
a(I1
I0
I0
I0
I1
I1
I1
tp1614
a(I0
I0
I1
I0
I0
I1
I0
tp1615
a(I0
I0
I1
I0
I0
I0
I0
tp1616
aa(lp1617
(I0
I0
I1
I1
I0
I1
I0
tp1618
a(I1
I0
I1
I0
I1
I1
I1
tp1619
a(I0
I0
I1
I0
I0
I1
I0
tp1620
a(I0
I0
I1
I0
I1
I0
I0
tp1621
a(I0
I0
I0
I0
I1
I1
I1
tp1622
a(I0
I0
I1
I0
I0
I1
I0
tp1623
a(I0
I0
I1
I0
I0
I0
I0
tp1624
aa(lp1625
(I0
I0
I1
I1
I0
I1
I0
tp1626
a(I0
I0
I1
I0
I1
I1
I1
tp1627
a(I0
I0
I1
I0
I0
I1
I0
tp1628
a(I0
I0
I1
I0
I1
I0
I0
tp1629
a(I1
I0
I0
I0
I1
I1
I1
tp1630
a(I0
I0
I1
I0
I0
I1
I0
tp1631
a(I0
I0
I1
I0
I0
I0
I0
tp1632
aa(lp1633
(I0
I0
I1
I0
I0
I1
I0
tp1634
a(I0
I0
I1
I1
I0
I1
I1
tp1635
a(I0
I0
I1
I0
I0
I1
I0
tp1636
a(I0
I0
I1
I0
I1
I0
I0
tp1637
a(I1
I0
I0
I0
I1
I1
I1
tp1638
a(I0
I0
I1
I0
I0
I1
I0
tp1639
a(I0
I0
I1
I0
I0
I0
I0
tp1640
aa(lp1641
(I0
I0
I1
I0
I0
I1
I0
tp1642
a(I0
I0
I1
I0
I0
I1
I1
tp1643
a(I0
I0
I1
I0
I0
I1
I0
tp1644
a(I0
I0
I1
I0
I1
I0
I0
tp1645
a(I1
I0
I0
I0
I1
I1
I1
tp1646
a(I0
I0
I1
I0
I0
I1
I0
tp1647
a(I0
I0
I1
I0
I0
I0
I0
tp1648
aa(lp1649
(I0
I0
I1
I0
I0
I1
I0
tp1650
a(I0
I0
I1
I0
I0
I1
I1
tp1651
a(I0
I0
I1
I0
I0
I1
I0
tp1652
a(I0
I0
I1
I0
I1
I0
I0
tp1653
a(I1
I0
I0
I0
I0
I1
I1
tp1654
a(I0
I0
I1
I0
I0
I1
I0
tp1655
a(I0
I0
I1
I0
I0
I0
I0
tp1656
aa(lp1657
(I0
I0
I1
I0
I0
I1
I0
tp1658
a(I0
I0
I1
I0
I1
I1
I1
tp1659
a(I0
I0
I1
I0
I0
I1
I0
tp1660
a(I0
I0
I1
I0
I1
I0
I0
tp1661
a(I1
I0
I0
I0
I1
I1
I1
tp1662
a(I0
I0
I1
I0
I0
I1
I0
tp1663
a(I0
I0
I1
I0
I0
I0
I0
tp1664
aa(lp1665
(I0
I0
I1
I0
I0
I1
I0
tp1666
a(I0
I0
I1
I0
I1
I1
I1
tp1667
a(I0
I0
I1
I0
I0
I1
I0
tp1668
a(I0
I0
I1
I0
I1
I0
I0
tp1669
a(I1
I0
I0
I0
I1
I0
I1
tp1670
a(I0
I0
I1
I0
I0
I1
I0
tp1671
a(I0
I0
I1
I0
I0
I0
I0
tp1672
aa(lp1673
(I0
I0
I1
I0
I0
I1
I0
tp1674
a(I0
I0
I1
I0
I1
I1
I1
tp1675
a(I0
I0
I1
I0
I0
I1
I0
tp1676
a(I0
I0
I1
I0
I1
I0
I0
tp1677
a(I1
I0
I0
I0
I1
I1
I0
tp1678
a(I0
I0
I1
I0
I0
I1
I0
tp1679
a(I0
I0
I1
I0
I0
I0
I0
tp1680
aa(lp1681
(I0
I0
I1
I0
I0
I1
I0
tp1682
a(I0
I0
I1
I0
I1
I1
I1
tp1683
a(I0
I0
I1
I0
I0
I1
I0
tp1684
a(I0
I0
I1
I0
I1
I0
I0
tp1685
a(I1
I0
I0
I0
I0
I1
I0
tp1686
a(I0
I0
I1
I0
I0
I1
I0
tp1687
a(I0
I0
I1
I0
I0
I0
I0
tp1688
aa(lp1689
(I0
I0
I1
I0
I0
I1
I0
tp1690
a(I0
I0
I1
I0
I1
I1
I1
tp1691
a(I0
I0
I1
I0
I0
I1
I0
tp1692
a(I0
I0
I1
I0
I1
I0
I0
tp1693
a(I1
I0
I0
I0
I0
I0
I0
tp1694
a(I0
I0
I1
I0
I0
I1
I0
tp1695
a(I0
I0
I1
I0
I0
I0
I0
tp1696
aa(lp1697
(I0
I0
I1
I0
I0
I1
I0
tp1698
a(I0
I0
I1
I0
I1
I0
I1
tp1699
a(I0
I0
I1
I0
I0
I1
I0
tp1700
a(I0
I0
I1
I0
I1
I0
I0
tp1701
a(I0
I0
I0
I0
I1
I1
I1
tp1702
a(I0
I0
I1
I0
I0
I1
I0
tp1703
a(I0
I0
I1
I0
I0
I0
I0
tp1704
aa(lp1705
(I0
I0
I1
I0
I0
I1
I0
tp1706
a(I0
I0
I1
I0
I1
I0
I1
tp1707
a(I0
I0
I1
I0
I0
I1
I0
tp1708
a(I0
I0
I1
I0
I1
I0
I0
tp1709
a(I1
I0
I0
I0
I0
I0
I0
tp1710
a(I0
I0
I1
I0
I0
I1
I0
tp1711
a(I0
I0
I1
I0
I0
I0
I0
tp1712
aa(lp1713
(I0
I0
I1
I0
I0
I1
I0
tp1714
a(I0
I0
I0
I1
I1
I0
I0
tp1715
a(I0
I0
I1
I0
I0
I1
I0
tp1716
a(I0
I0
I1
I0
I1
I0
I0
tp1717
a(I0
I0
I0
I0
I1
I1
I1
tp1718
a(I0
I0
I1
I0
I0
I1
I0
tp1719
a(I0
I0
I1
I0
I0
I0
I0
tp1720
aa(lp1721
(I0
I0
I1
I0
I0
I0
I0
tp1722
a(I0
I0
I1
I1
I0
I1
I1
tp1723
a(I0
I0
I1
I0
I0
I1
I0
tp1724
a(I0
I0
I1
I0
I1
I0
I0
tp1725
a(I1
I0
I0
I0
I1
I0
I1
tp1726
a(I0
I0
I1
I0
I0
I1
I0
tp1727
a(I0
I0
I1
I0
I0
I0
I0
tp1728
aa(lp1729
(I0
I0
I1
I0
I0
I0
I0
tp1730
a(I0
I0
I1
I0
I0
I1
I1
tp1731
a(I0
I0
I1
I0
I0
I1
I0
tp1732
a(I0
I0
I1
I0
I1
I0
I0
tp1733
a(I1
I0
I0
I0
I0
I1
I1
tp1734
a(I0
I0
I1
I0
I0
I1
I0
tp1735
a(I0
I0
I1
I0
I0
I0
I0
tp1736
aa(lp1737
(I0
I0
I1
I0
I0
I0
I0
tp1738
a(I0
I0
I1
I0
I0
I1
I1
tp1739
a(I0
I0
I1
I0
I0
I1
I0
tp1740
a(I0
I0
I1
I0
I1
I0
I0
tp1741
a(I1
I0
I0
I0
I0
I1
I0
tp1742
a(I0
I0
I1
I0
I0
I1
I0
tp1743
a(I0
I0
I1
I0
I0
I0
I0
tp1744
aa(lp1745
(I0
I0
I1
I0
I0
I0
I0
tp1746
a(I0
I0
I1
I0
I1
I1
I1
tp1747
a(I0
I0
I1
I0
I0
I1
I0
tp1748
a(I0
I0
I1
I0
I1
I0
I0
tp1749
a(I1
I0
I0
I0
I0
I1
I0
tp1750
a(I0
I0
I1
I0
I0
I1
I0
tp1751
a(I0
I0
I1
I0
I0
I0
I0
tp1752
aa(lp1753
(I0
I0
I1
I0
I0
I0
I0
tp1754
a(I0
I0
I1
I0
I1
I1
I1
tp1755
a(I0
I0
I1
I0
I0
I1
I0
tp1756
a(I0
I0
I1
I0
I1
I0
I0
tp1757
a(I1
I0
I0
I0
I0
I0
I0
tp1758
a(I0
I0
I1
I0
I0
I1
I0
tp1759
a(I0
I0
I1
I0
I0
I0
I0
tp1760
aa(lp1761
(I0
I0
I1
I0
I0
I0
I0
tp1762
a(I0
I0
I1
I0
I1
I1
I1
tp1763
a(I0
I0
I1
I0
I0
I1
I0
tp1764
a(I0
I0
I1
I0
I1
I0
I0
tp1765
a(I1
I1
I1
I0
I0
I0
I0
tp1766
a(I0
I0
I1
I0
I0
I1
I0
tp1767
a(I0
I0
I1
I0
I0
I0
I0
tp1768
aa(lp1769
(I0
I0
I1
I0
I0
I0
I0
tp1770
a(I0
I0
I1
I0
I1
I0
I1
tp1771
a(I0
I0
I1
I0
I0
I1
I0
tp1772
a(I0
I0
I1
I0
I1
I0
I0
tp1773
a(I1
I0
I0
I0
I0
I0
I0
tp1774
a(I0
I0
I1
I0
I0
I1
I0
tp1775
a(I0
I0
I1
I0
I0
I0
I0
tp1776
aa(lp1777
(I0
I0
I1
I0
I0
I0
I0
tp1778
a(I0
I0
I1
I0
I1
I1
I1
tp1779
a(I0
I0
I1
I0
I0
I1
I0
tp1780
a(I0
I0
I1
I0
I0
I1
I0
tp1781
a(I1
I0
I0
I0
I1
I1
I1
tp1782
a(I0
I0
I1
I0
I0
I1
I0
tp1783
a(I0
I0
I1
I0
I0
I0
I0
tp1784
aa(lp1785
(I0
I0
I1
I0
I0
I0
I0
tp1786
a(I0
I0
I1
I0
I1
I1
I1
tp1787
a(I0
I0
I1
I0
I0
I1
I0
tp1788
a(I0
I0
I1
I0
I0
I1
I0
tp1789
a(I1
I0
I1
I0
I1
I0
I0
tp1790
a(I0
I0
I1
I0
I0
I1
I0
tp1791
a(I0
I0
I1
I0
I0
I0
I0
tp1792
aa(lp1793
(I0
I0
I1
I1
I0
I1
I0
tp1794
a(I1
I0
I1
I0
I1
I1
I1
tp1795
a(I0
I0
I1
I0
I0
I1
I0
tp1796
a(I0
I0
I1
I0
I1
I0
I0
tp1797
a(I1
I0
I0
I0
I1
I1
I1
tp1798
a(I0
I0
I1
I0
I0
I0
I0
tp1799
a(I0
I0
I1
I0
I0
I0
I0
tp1800
aa(lp1801
(I0
I0
I1
I1
I0
I1
I0
tp1802
a(I0
I0
I1
I0
I1
I1
I1
tp1803
a(I0
I0
I1
I0
I0
I1
I0
tp1804
a(I0
I0
I1
I0
I1
I0
I0
tp1805
a(I1
I0
I0
I0
I1
I1
I1
tp1806
a(I0
I0
I1
I0
I0
I0
I0
tp1807
a(I0
I0
I1
I0
I0
I0
I0
tp1808
aa(lp1809
(I0
I0
I1
I0
I0
I1
I0
tp1810
a(I0
I0
I1
I1
I0
I1
I1
tp1811
a(I0
I0
I1
I0
I0
I1
I0
tp1812
a(I0
I0
I1
I0
I1
I0
I0
tp1813
a(I1
I0
I0
I0
I1
I1
I1
tp1814
a(I0
I0
I1
I0
I0
I0
I0
tp1815
a(I0
I0
I1
I0
I0
I0
I0
tp1816
aa(lp1817
(I0
I0
I1
I0
I0
I1
I0
tp1818
a(I0
I0
I1
I0
I0
I1
I1
tp1819
a(I0
I0
I1
I0
I0
I1
I0
tp1820
a(I0
I0
I1
I0
I1
I0
I0
tp1821
a(I1
I0
I0
I0
I1
I1
I1
tp1822
a(I0
I0
I1
I0
I0
I0
I0
tp1823
a(I0
I0
I1
I0
I0
I0
I0
tp1824
aa(lp1825
(I0
I0
I1
I0
I0
I1
I0
tp1826
a(I0
I0
I1
I0
I1
I1
I1
tp1827
a(I0
I0
I1
I0
I0
I1
I0
tp1828
a(I0
I0
I1
I0
I1
I0
I0
tp1829
a(I1
I0
I0
I0
I1
I1
I1
tp1830
a(I0
I0
I1
I0
I0
I0
I0
tp1831
a(I0
I0
I1
I0
I0
I0
I0
tp1832
aa(lp1833
(I0
I0
I1
I0
I0
I1
I0
tp1834
a(I0
I0
I1
I1
I0
I1
I0
tp1835
a(I0
I0
I1
I0
I0
I1
I0
tp1836
a(I0
I0
I1
I0
I1
I0
I0
tp1837
a(I1
I0
I0
I0
I1
I1
I1
tp1838
a(I0
I0
I1
I0
I0
I0
I0
tp1839
a(I0
I0
I1
I0
I0
I0
I0
tp1840
aa(lp1841
(I0
I0
I1
I0
I0
I1
I0
tp1842
a(I0
I0
I1
I0
I1
I1
I1
tp1843
a(I0
I0
I1
I0
I0
I1
I0
tp1844
a(I0
I0
I1
I0
I1
I0
I0
tp1845
a(I1
I0
I1
I0
I0
I1
I0
tp1846
a(I0
I0
I1
I0
I0
I0
I0
tp1847
a(I0
I0
I1
I0
I0
I0
I0
tp1848
aa(lp1849
(I0
I0
I1
I0
I0
I1
I0
tp1850
a(I0
I0
I1
I1
I0
I1
I1
tp1851
a(I0
I0
I1
I0
I0
I0
I0
tp1852
a(I0
I0
I1
I0
I1
I0
I0
tp1853
a(I1
I0
I0
I0
I1
I1
I1
tp1854
a(I0
I0
I1
I0
I0
I1
I0
tp1855
a(I0
I0
I1
I0
I0
I0
I0
tp1856
aa(lp1857
(I0
I0
I1
I0
I0
I1
I0
tp1858
a(I0
I0
I1
I0
I1
I1
I1
tp1859
a(I0
I0
I1
I0
I0
I0
I0
tp1860
a(I0
I0
I1
I0
I1
I0
I0
tp1861
a(I1
I0
I0
I0
I1
I1
I1
tp1862
a(I0
I0
I1
I0
I0
I1
I0
tp1863
a(I0
I0
I1
I0
I0
I0
I0
tp1864
aa(lp1865
(I0
I0
I1
I0
I0
I1
I0
tp1866
a(I0
I0
I1
I0
I1
I1
I1
tp1867
a(I0
I0
I1
I0
I0
I0
I0
tp1868
a(I0
I0
I1
I0
I1
I0
I0
tp1869
a(I1
I0
I1
I0
I0
I1
I1
tp1870
a(I0
I0
I1
I0
I0
I1
I0
tp1871
a(I0
I0
I1
I0
I0
I0
I0
tp1872
aa(lp1873
(I0
I0
I1
I0
I0
I1
I0
tp1874
a(I0
I0
I1
I0
I1
I1
I1
tp1875
a(I0
I0
I1
I0
I0
I0
I0
tp1876
a(I0
I0
I1
I0
I1
I0
I0
tp1877
a(I1
I0
I0
I0
I0
I0
I0
tp1878
a(I0
I0
I1
I0
I0
I1
I0
tp1879
a(I0
I0
I1
I0
I0
I0
I0
tp1880
aa(lp1881
(I0
I0
I1
I0
I0
I1
I0
tp1882
a(I0
I0
I1
I0
I1
I1
I1
tp1883
a(I0
I0
I1
I0
I0
I0
I0
tp1884
a(I0
I0
I1
I0
I1
I0
I0
tp1885
a(I1
I1
I1
I0
I0
I0
I0
tp1886
a(I0
I0
I1
I0
I0
I1
I0
tp1887
a(I0
I0
I1
I0
I0
I0
I0
tp1888
aa(lp1889
(I0
I0
I1
I0
I0
I0
I0
tp1890
a(I0
I0
I1
I1
I0
I1
I1
tp1891
a(I0
I0
I1
I0
I0
I0
I0
tp1892
a(I0
I0
I1
I0
I1
I0
I0
tp1893
a(I1
I0
I0
I0
I1
I1
I1
tp1894
a(I0
I0
I1
I0
I0
I1
I0
tp1895
a(I0
I0
I1
I0
I0
I0
I0
tp1896
aa(lp1897
(I0
I0
I1
I0
I0
I0
I0
tp1898
a(I0
I0
I1
I0
I1
I1
I1
tp1899
a(I0
I0
I1
I0
I0
I0
I0
tp1900
a(I0
I0
I1
I0
I1
I0
I0
tp1901
a(I1
I0
I0
I0
I1
I1
I1
tp1902
a(I0
I0
I1
I0
I0
I1
I0
tp1903
a(I0
I0
I1
I0
I0
I0
I0
tp1904
aa(lp1905
(I0
I0
I1
I0
I0
I0
I0
tp1906
a(I0
I0
I1
I0
I0
I1
I1
tp1907
a(I0
I0
I1
I0
I0
I0
I0
tp1908
a(I0
I0
I1
I0
I1
I0
I0
tp1909
a(I1
I0
I0
I0
I0
I1
I1
tp1910
a(I0
I0
I1
I0
I0
I1
I0
tp1911
a(I0
I0
I1
I0
I0
I0
I0
tp1912
aa(lp1913
(I0
I0
I1
I0
I0
I0
I0
tp1914
a(I0
I0
I1
I0
I1
I0
I0
tp1915
a(I0
I0
I1
I0
I0
I0
I0
tp1916
a(I0
I0
I1
I0
I1
I0
I0
tp1917
a(I1
I0
I0
I0
I1
I1
I1
tp1918
a(I0
I0
I1
I0
I0
I1
I0
tp1919
a(I0
I0
I1
I0
I0
I0
I0
tp1920
aa(lp1921
(I0
I0
I1
I0
I0
I0
I0
tp1922
a(I0
I0
I1
I0
I1
I1
I1
tp1923
a(I0
I0
I1
I0
I0
I0
I0
tp1924
a(I0
I0
I1
I0
I1
I0
I0
tp1925
a(I1
I0
I0
I0
I0
I0
I0
tp1926
a(I0
I0
I1
I0
I0
I1
I0
tp1927
a(I0
I0
I1
I0
I0
I0
I0
tp1928
aa(lp1929
(I0
I0
I1
I0
I0
I0
I0
tp1930
a(I0
I0
I1
I0
I0
I1
I1
tp1931
a(I0
I0
I1
I0
I0
I0
I0
tp1932
a(I0
I0
I1
I0
I1
I0
I0
tp1933
a(I1
I0
I0
I0
I0
I0
I0
tp1934
a(I0
I0
I1
I0
I0
I1
I0
tp1935
a(I0
I0
I1
I0
I0
I0
I0
tp1936
aa(lp1937
(I0
I0
I1
I0
I0
I0
I0
tp1938
a(I0
I0
I0
I0
I1
I1
I1
tp1939
a(I0
I0
I1
I0
I0
I0
I0
tp1940
a(I0
I0
I1
I0
I1
I0
I0
tp1941
a(I1
I0
I0
I0
I0
I0
I0
tp1942
a(I0
I0
I1
I0
I0
I1
I0
tp1943
a(I0
I0
I1
I0
I0
I0
I0
tp1944
aa(lp1945
(I0
I0
I1
I0
I0
I0
I0
tp1946
a(I0
I0
I0
I0
I1
I1
I1
tp1947
a(I0
I0
I1
I0
I0
I0
I0
tp1948
a(I0
I0
I1
I0
I1
I0
I0
tp1949
a(I1
I0
I1
I0
I0
I0
I0
tp1950
a(I0
I0
I1
I0
I0
I1
I0
tp1951
a(I0
I0
I1
I0
I0
I0
I0
tp1952
aa(lp1953
(I0
I0
I1
I0
I0
I0
I0
tp1954
a(I0
I0
I1
I0
I1
I1
I1
tp1955
a(I0
I0
I1
I0
I0
I0
I0
tp1956
a(I0
I0
I1
I0
I0
I1
I0
tp1957
a(I1
I0
I0
I0
I1
I1
I1
tp1958
a(I0
I0
I1
I0
I0
I1
I0
tp1959
a(I0
I0
I1
I0
I0
I0
I0
tp1960
aa(lp1961
(I0
I0
I1
I0
I0
I0
I0
tp1962
a(I0
I0
I1
I0
I1
I1
I1
tp1963
a(I0
I0
I1
I0
I0
I0
I0
tp1964
a(I0
I0
I1
I0
I0
I1
I0
tp1965
a(I1
I0
I1
I0
I1
I0
I0
tp1966
a(I0
I0
I1
I0
I0
I1
I0
tp1967
a(I0
I0
I1
I0
I0
I0
I0
tp1968
aa(lp1969
(I0
I0
I1
I0
I0
I0
I0
tp1970
a(I0
I0
I1
I0
I1
I1
I1
tp1971
a(I0
I0
I1
I0
I0
I0
I0
tp1972
a(I0
I0
I1
I0
I0
I1
I0
tp1973
a(I1
I0
I0
I0
I0
I1
I0
tp1974
a(I0
I0
I1
I0
I0
I1
I0
tp1975
a(I0
I0
I1
I0
I0
I0
I0
tp1976
aa(lp1977
(I0
I0
I1
I0
I0
I0
I0
tp1978
a(I0
I0
I1
I0
I1
I1
I1
tp1979
a(I0
I0
I1
I0
I0
I0
I0
tp1980
a(I0
I0
I1
I0
I0
I1
I0
tp1981
a(I1
I0
I0
I0
I0
I0
I0
tp1982
a(I0
I0
I1
I0
I0
I1
I0
tp1983
a(I0
I0
I1
I0
I0
I0
I0
tp1984
aa(lp1985
(I0
I0
I1
I0
I0
I0
I0
tp1986
a(I0
I0
I0
I0
I1
I1
I1
tp1987
a(I0
I0
I1
I0
I0
I0
I0
tp1988
a(I0
I0
I1
I0
I0
I1
I0
tp1989
a(I1
I0
I0
I0
I0
I0
I0
tp1990
a(I0
I0
I1
I0
I0
I1
I0
tp1991
a(I0
I0
I1
I0
I0
I0
I0
tp1992
aa(lp1993
(I0
I0
I1
I0
I0
I0
I0
tp1994
a(I0
I0
I0
I0
I1
I1
I1
tp1995
a(I0
I0
I1
I0
I0
I0
I0
tp1996
a(I0
I0
I1
I0
I0
I1
I0
tp1997
a(I1
I0
I1
I0
I0
I0
I0
tp1998
a(I0
I0
I1
I0
I0
I1
I0
tp1999
a(I0
I0
I1
I0
I0
I0
I0
tp2000
aa(lp2001
(I0
I0
I1
I0
I0
I0
I0
tp2002
a(I0
I0
I1
I0
I1
I1
I1
tp2003
a(I0
I0
I1
I0
I0
I0
I0
tp2004
a(I0
I0
I1
I0
I0
I1
I0
tp2005
a(I1
I0
I1
I0
I1
I0
I0
tp2006
a(I1
I0
I1
I0
I0
I0
I0
tp2007
a(I0
I0
I1
I0
I0
I0
I0
tp2008
aa(lp2009
(I0
I0
I1
I0
I0
I0
I0
tp2010
a(I0
I0
I1
I0
I1
I0
I1
tp2011
a(I0
I0
I1
I0
I0
I0
I0
tp2012
a(I0
I0
I1
I0
I0
I1
I0
tp2013
a(I1
I0
I0
I0
I0
I1
I0
tp2014
a(I1
I0
I1
I0
I0
I0
I0
tp2015
a(I0
I0
I1
I0
I0
I0
I0
tp2016
aa(lp2017
(I0
I0
I1
I0
I1
I1
I1
tp2018
a(I0
I0
I1
I1
I0
I1
I1
tp2019
a(I0
I0
I1
I0
I0
I0
I0
tp2020
a(I0
I0
I1
I0
I1
I0
I0
tp2021
a(I1
I0
I0
I0
I1
I1
I1
tp2022
a(I0
I0
I1
I0
I0
I0
I0
tp2023
a(I0
I0
I1
I0
I0
I0
I0
tp2024
aa(lp2025
(I0
I0
I1
I0
I1
I1
I1
tp2026
a(I0
I0
I1
I1
I0
I1
I1
tp2027
a(I0
I0
I1
I0
I0
I0
I0
tp2028
a(I0
I0
I1
I0
I1
I0
I0
tp2029
a(I1
I0
I1
I0
I1
I1
I1
tp2030
a(I0
I0
I1
I0
I0
I0
I0
tp2031
a(I0
I0
I1
I0
I0
I0
I0
tp2032
aa(lp2033
(I0
I0
I1
I0
I1
I1
I1
tp2034
a(I0
I0
I1
I0
I0
I1
I1
tp2035
a(I0
I0
I1
I0
I0
I0
I0
tp2036
a(I0
I0
I1
I0
I1
I0
I0
tp2037
a(I1
I0
I0
I0
I1
I1
I1
tp2038
a(I0
I0
I1
I0
I0
I0
I0
tp2039
a(I0
I0
I1
I0
I0
I0
I0
tp2040
aa(lp2041
(I0
I0
I1
I1
I0
I1
I0
tp2042
a(I1
I0
I1
I0
I1
I1
I1
tp2043
a(I0
I0
I1
I0
I0
I0
I0
tp2044
a(I0
I0
I1
I0
I1
I0
I0
tp2045
a(I1
I0
I0
I0
I1
I1
I1
tp2046
a(I0
I0
I1
I0
I0
I0
I0
tp2047
a(I0
I0
I1
I0
I0
I0
I0
tp2048
aa(lp2049
(I0
I0
I1
I0
I0
I1
I0
tp2050
a(I0
I0
I1
I1
I0
I1
I1
tp2051
a(I0
I0
I1
I0
I0
I0
I0
tp2052
a(I0
I0
I1
I0
I1
I0
I0
tp2053
a(I1
I0
I0
I0
I1
I1
I1
tp2054
a(I0
I0
I1
I0
I0
I0
I0
tp2055
a(I0
I0
I1
I0
I0
I0
I0
tp2056
aa(lp2057
(I0
I0
I1
I0
I0
I1
I0
tp2058
a(I0
I0
I1
I0
I1
I1
I1
tp2059
a(I0
I0
I1
I0
I0
I0
I0
tp2060
a(I0
I0
I1
I0
I1
I0
I0
tp2061
a(I1
I0
I0
I0
I1
I1
I1
tp2062
a(I0
I0
I1
I0
I0
I0
I0
tp2063
a(I0
I0
I1
I0
I0
I0
I0
tp2064
aa(lp2065
(I0
I0
I1
I0
I0
I1
I0
tp2066
a(I0
I0
I1
I0
I0
I1
I1
tp2067
a(I0
I0
I1
I0
I0
I0
I0
tp2068
a(I0
I0
I1
I0
I1
I0
I0
tp2069
a(I1
I0
I1
I0
I0
I1
I1
tp2070
a(I0
I0
I1
I0
I0
I0
I0
tp2071
a(I0
I0
I1
I0
I0
I0
I0
tp2072
aa(lp2073
(I0
I0
I1
I0
I0
I1
I0
tp2074
a(I0
I0
I1
I0
I1
I1
I1
tp2075
a(I0
I0
I1
I0
I0
I0
I0
tp2076
a(I0
I0
I1
I0
I1
I0
I0
tp2077
a(I1
I0
I1
I0
I0
I1
I1
tp2078
a(I0
I0
I1
I0
I0
I0
I0
tp2079
a(I0
I0
I1
I0
I0
I0
I0
tp2080
aa(lp2081
(I0
I0
I1
I0
I0
I1
I0
tp2082
a(I0
I0
I1
I0
I1
I1
I1
tp2083
a(I0
I0
I1
I0
I0
I0
I0
tp2084
a(I0
I0
I1
I0
I1
I0
I0
tp2085
a(I1
I0
I1
I0
I0
I1
I0
tp2086
a(I0
I0
I1
I0
I0
I0
I0
tp2087
a(I0
I0
I1
I0
I0
I0
I0
tp2088
aa(lp2089
(I0
I0
I1
I0
I0
I0
I0
tp2090
a(I0
I0
I1
I0
I0
I1
I1
tp2091
a(I0
I0
I1
I0
I0
I0
I0
tp2092
a(I0
I0
I1
I0
I1
I0
I0
tp2093
a(I1
I0
I0
I0
I1
I1
I1
tp2094
a(I0
I0
I1
I0
I0
I0
I0
tp2095
a(I0
I0
I1
I0
I0
I0
I0
tp2096
aa(lp2097
(I0
I0
I1
I0
I0
I0
I0
tp2098
a(I0
I0
I1
I0
I1
I1
I1
tp2099
a(I0
I0
I1
I0
I0
I0
I0
tp2100
a(I0
I0
I1
I0
I1
I0
I0
tp2101
a(I1
I0
I0
I0
I1
I1
I1
tp2102
a(I0
I0
I1
I0
I0
I0
I0
tp2103
a(I0
I0
I1
I0
I0
I0
I0
tp2104
aa(lp2105
(I0
I0
I1
I0
I0
I0
I0
tp2106
a(I0
I0
I1
I0
I1
I0
I0
tp2107
a(I0
I0
I1
I0
I0
I0
I0
tp2108
a(I0
I0
I1
I0
I1
I0
I0
tp2109
a(I1
I0
I0
I0
I1
I1
I1
tp2110
a(I0
I0
I1
I0
I0
I0
I0
tp2111
a(I0
I0
I1
I0
I0
I0
I0
tp2112
aa(lp2113
(I0
I0
I1
I0
I0
I0
I0
tp2114
a(I0
I0
I1
I0
I1
I1
I1
tp2115
a(I0
I0
I1
I0
I0
I0
I0
tp2116
a(I0
I0
I1
I0
I1
I0
I0
tp2117
a(I1
I0
I1
I0
I0
I1
I0
tp2118
a(I0
I0
I1
I0
I0
I0
I0
tp2119
a(I0
I0
I1
I0
I0
I0
I0
tp2120
aa(lp2121
(I0
I0
I1
I0
I0
I0
I0
tp2122
a(I0
I0
I1
I0
I1
I1
I1
tp2123
a(I0
I0
I1
I0
I0
I0
I0
tp2124
a(I0
I0
I1
I0
I1
I0
I0
tp2125
a(I1
I0
I0
I0
I0
I1
I0
tp2126
a(I0
I0
I1
I0
I0
I0
I0
tp2127
a(I0
I0
I1
I0
I0
I0
I0
tp2128
aa(lp2129
(I0
I0
I1
I0
I0
I0
I0
tp2130
a(I0
I0
I1
I0
I1
I1
I1
tp2131
a(I0
I0
I1
I0
I0
I0
I0
tp2132
a(I0
I0
I1
I0
I1
I0
I0
tp2133
a(I0
I0
I0
I0
I1
I1
I1
tp2134
a(I0
I0
I1
I0
I0
I0
I0
tp2135
a(I0
I0
I1
I0
I0
I0
I0
tp2136
aa(lp2137
(I0
I0
I1
I0
I0
I0
I0
tp2138
a(I0
I0
I1
I0
I0
I1
I1
tp2139
a(I0
I0
I1
I0
I0
I0
I0
tp2140
a(I0
I0
I1
I0
I1
I0
I0
tp2141
a(I1
I0
I1
I0
I0
I0
I0
tp2142
a(I0
I0
I1
I0
I0
I0
I0
tp2143
a(I0
I0
I1
I0
I0
I0
I0
tp2144
aa(lp2145
(I0
I0
I1
I0
I0
I0
I0
tp2146
a(I0
I0
I1
I0
I1
I1
I1
tp2147
a(I0
I0
I1
I0
I0
I0
I0
tp2148
a(I0
I0
I1
I0
I1
I0
I0
tp2149
a(I1
I0
I0
I0
I0
I0
I0
tp2150
a(I0
I0
I1
I0
I0
I0
I0
tp2151
a(I0
I0
I1
I0
I0
I0
I0
tp2152
aa(lp2153
(I0
I0
I1
I0
I0
I0
I0
tp2154
a(I0
I0
I1
I0
I1
I1
I1
tp2155
a(I0
I0
I1
I0
I0
I0
I0
tp2156
a(I0
I0
I1
I0
I1
I0
I0
tp2157
a(I1
I0
I1
I0
I0
I0
I0
tp2158
a(I0
I0
I1
I0
I0
I0
I0
tp2159
a(I0
I0
I1
I0
I0
I0
I0
tp2160
aa(lp2161
(I0
I0
I1
I0
I0
I0
I0
tp2162
a(I0
I0
I1
I0
I1
I1
I1
tp2163
a(I0
I0
I1
I0
I0
I0
I0
tp2164
a(I0
I0
I1
I0
I0
I1
I0
tp2165
a(I1
I0
I0
I0
I1
I1
I1
tp2166
a(I0
I0
I1
I0
I0
I0
I0
tp2167
a(I0
I0
I1
I0
I0
I0
I0
tp2168
aa(lp2169
(I0
I0
I1
I0
I0
I0
I0
tp2170
a(I0
I0
I1
I0
I1
I1
I1
tp2171
a(I0
I0
I1
I0
I0
I0
I0
tp2172
a(I0
I0
I1
I0
I0
I1
I0
tp2173
a(I1
I0
I1
I0
I0
I0
I0
tp2174
a(I0
I0
I1
I0
I0
I0
I0
tp2175
a(I0
I0
I1
I0
I0
I0
I0
tp2176
aa(lp2177
(I0
I0
I1
I0
I0
I0
I0
tp2178
a(I0
I0
I0
I0
I1
I1
I1
tp2179
a(I0
I0
I1
I0
I0
I0
I0
tp2180
a(I0
I0
I1
I0
I0
I1
I0
tp2181
a(I1
I0
I1
I1
I0
I0
I0
tp2182
a(I0
I0
I1
I0
I0
I0
I0
tp2183
a(I0
I0
I1
I0
I0
I0
I0
tp2184
aa(lp2185
(I0
I0
I1
I0
I0
I0
I0
tp2186
a(I0
I0
I0
I0
I1
I1
I1
tp2187
a(I0
I0
I1
I0
I0
I0
I0
tp2188
a(I0
I0
I1
I0
I0
I1
I0
tp2189
a(I1
I0
I1
I0
I0
I0
I0
tp2190
a(I0
I0
I1
I0
I0
I0
I0
tp2191
a(I0
I0
I1
I0
I0
I0
I0
tp2192
aa(lp2193
(I0
I0
I1
I0
I0
I1
I0
tp2194
a(I0
I0
I1
I0
I0
I1
I1
tp2195
a(I0
I0
I1
I0
I0
I0
I0
tp2196
a(I0
I0
I1
I0
I0
I0
I0
tp2197
a(I1
I0
I0
I0
I1
I1
I1
tp2198
a(I0
I0
I1
I0
I0
I0
I0
tp2199
a(I0
I0
I1
I0
I0
I0
I0
tp2200
aa(lp2201
(I0
I0
I1
I0
I0
I1
I0
tp2202
a(I0
I0
I1
I0
I0
I1
I0
tp2203
a(I0
I0
I1
I0
I0
I0
I0
tp2204
a(I0
I0
I1
I0
I0
I0
I0
tp2205
a(I1
I0
I0
I0
I1
I1
I1
tp2206
a(I0
I0
I1
I0
I0
I0
I0
tp2207
a(I0
I0
I1
I0
I0
I0
I0
tp2208
aa(lp2209
(I0
I0
I1
I0
I0
I0
I0
tp2210
a(I0
I0
I1
I1
I0
I1
I1
tp2211
a(I0
I0
I1
I0
I0
I0
I0
tp2212
a(I0
I0
I1
I0
I0
I0
I0
tp2213
a(I1
I0
I0
I0
I1
I1
I1
tp2214
a(I0
I0
I1
I0
I0
I0
I0
tp2215
a(I0
I0
I1
I0
I0
I0
I0
tp2216
aa(lp2217
(I0
I0
I1
I0
I0
I0
I0
tp2218
a(I0
I0
I1
I0
I1
I0
I0
tp2219
a(I0
I0
I1
I0
I0
I0
I0
tp2220
a(I0
I0
I1
I0
I0
I0
I0
tp2221
a(I1
I0
I0
I0
I1
I1
I1
tp2222
a(I0
I0
I1
I0
I0
I0
I0
tp2223
a(I0
I0
I1
I0
I0
I0
I0
tp2224
aa(lp2225
(I0
I0
I1
I0
I0
I0
I0
tp2226
a(I0
I0
I1
I0
I1
I1
I1
tp2227
a(I0
I0
I1
I0
I0
I0
I0
tp2228
a(I0
I0
I1
I0
I0
I0
I0
tp2229
a(I1
I0
I1
I0
I0
I1
I0
tp2230
a(I0
I0
I1
I0
I0
I0
I0
tp2231
a(I0
I0
I1
I0
I0
I0
I0
tp2232
aa(lp2233
(I0
I0
I1
I0
I0
I0
I0
tp2234
a(I0
I0
I1
I0
I1
I1
I0
tp2235
a(I0
I0
I1
I0
I0
I0
I0
tp2236
a(I0
I0
I1
I0
I0
I0
I0
tp2237
a(I1
I0
I1
I0
I0
I1
I0
tp2238
a(I0
I0
I1
I0
I0
I0
I0
tp2239
a(I0
I0
I1
I0
I0
I0
I0
tp2240
aa(lp2241
(I0
I0
I1
I0
I0
I0
I0
tp2242
a(I0
I0
I1
I0
I1
I1
I1
tp2243
a(I0
I0
I1
I0
I0
I0
I0
tp2244
a(I0
I0
I1
I0
I0
I0
I0
tp2245
a(I1
I0
I1
I1
I0
I0
I0
tp2246
a(I0
I0
I1
I0
I0
I0
I0
tp2247
a(I0
I0
I1
I0
I0
I0
I0
tp2248
aa(lp2249
(I0
I0
I1
I0
I0
I0
I0
tp2250
a(I0
I0
I1
I0
I1
I1
I0
tp2251
a(I0
I0
I1
I0
I0
I0
I0
tp2252
a(I0
I0
I1
I0
I0
I0
I0
tp2253
a(I1
I0
I1
I1
I0
I0
I0
tp2254
a(I0
I0
I1
I0
I0
I0
I0
tp2255
a(I0
I0
I1
I0
I0
I0
I0
tp2256
aa(lp2257
(I0
I0
I1
I0
I0
I0
I0
tp2258
a(I0
I0
I1
I0
I1
I1
I1
tp2259
a(I0
I0
I1
I0
I0
I0
I0
tp2260
a(I0
I0
I1
I0
I0
I0
I0
tp2261
a(I1
I0
I1
I0
I0
I0
I0
tp2262
a(I0
I0
I1
I0
I0
I0
I0
tp2263
a(I0
I0
I1
I0
I0
I0
I0
tp2264
aa(lp2265
(I0
I0
I1
I0
I0
I0
I0
tp2266
a(I0
I0
I1
I0
I1
I1
I1
tp2267
a(I0
I0
I1
I0
I0
I0
I0
tp2268
a(I0
I0
I0
I0
I0
I0
I0
tp2269
a(I1
I0
I1
I0
I0
I1
I0
tp2270
a(I0
I0
I1
I0
I0
I0
I0
tp2271
a(I0
I0
I1
I0
I0
I0
I0
tp2272
aa(lp2273
(I0
I0
I1
I0
I0
I0
I0
tp2274
a(I0
I0
I1
I0
I1
I1
I1
tp2275
a(I0
I0
I0
I0
I0
I0
I0
tp2276
a(I0
I0
I1
I0
I0
I0
I0
tp2277
a(I1
I0
I1
I1
I0
I0
I0
tp2278
a(I0
I0
I1
I0
I0
I0
I0
tp2279
a(I0
I0
I1
I0
I0
I0
I0
tp2280
aa(lp2281
(I0
I0
I1
I0
I0
I0
I0
tp2282
a(I0
I0
I1
I0
I1
I1
I0
tp2283
a(I0
I0
I0
I0
I0
I0
I0
tp2284
a(I0
I0
I1
I0
I0
I0
I0
tp2285
a(I1
I0
I1
I1
I0
I0
I0
tp2286
a(I0
I0
I1
I0
I0
I0
I0
tp2287
a(I0
I0
I1
I0
I0
I0
I0
tp2288
aa(lp2289
(I0
I0
I1
I0
I0
I0
I0
tp2290
a(I0
I0
I1
I0
I1
I1
I1
tp2291
a(I0
I0
I0
I0
I0
I0
I0
tp2292
a(I0
I0
I1
I0
I0
I0
I0
tp2293
a(I1
I0
I0
I0
I0
I0
I0
tp2294
a(I0
I0
I1
I0
I0
I0
I0
tp2295
a(I0
I0
I1
I0
I0
I0
I0
tp2296
aa(lp2297
(I0
I0
I1
I0
I0
I0
I0
tp2298
a(I0
I0
I1
I0
I1
I1
I1
tp2299
a(I0
I0
I0
I0
I0
I0
I0
tp2300
a(I0
I0
I1
I0
I0
I0
I0
tp2301
a(I1
I0
I1
I0
I0
I0
I0
tp2302
a(I0
I0
I1
I0
I0
I0
I0
tp2303
a(I0
I0
I1
I0
I0
I0
I0
tp2304
aa(lp2305
(I1
I0
I1
I0
I0
I0
I1
tp2306
a(I0
I0
I0
I1
I1
I1
I1
tp2307
a(I0
I0
I1
I0
I0
I0
I0
tp2308
a(I0
I0
I0
I0
I1
I1
I1
tp2309
a(I0
I1
I1
I0
I1
I0
I0
tp2310
a(I1
I0
I1
I0
I0
I1
I0
tp2311
a(I0
I0
I0
I0
I0
I0
I0
tp2312
aa(lp2313
(I1
I0
I1
I0
I0
I0
I1
tp2314
a(I0
I0
I1
I1
I1
I1
I1
tp2315
a(I0
I0
I1
I0
I0
I0
I0
tp2316
a(I0
I0
I0
I0
I1
I1
I1
tp2317
a(I0
I1
I1
I0
I1
I0
I0
tp2318
a(I1
I0
I1
I0
I0
I1
I0
tp2319
a(I0
I0
I0
I0
I0
I0
I0
tp2320
aa(lp2321
(I1
I0
I1
I0
I0
I0
I1
tp2322
a(I0
I0
I0
I1
I0
I0
I1
tp2323
a(I1
I0
I0
I0
I0
I1
I0
tp2324
a(I0
I0
I0
I0
I1
I1
I1
tp2325
a(I0
I1
I1
I0
I1
I0
I0
tp2326
a(I1
I0
I1
I0
I0
I1
I0
tp2327
a(I0
I0
I0
I0
I0
I0
I0
tp2328
aa(lp2329
(I1
I0
I1
I0
I0
I0
I1
tp2330
a(I0
I0
I1
I1
I0
I0
I1
tp2331
a(I1
I0
I0
I1
I1
I1
I0
tp2332
a(I0
I0
I0
I0
I1
I1
I1
tp2333
a(I0
I1
I1
I0
I1
I0
I0
tp2334
a(I1
I0
I0
I1
I1
I1
I0
tp2335
a(I0
I0
I0
I0
I0
I0
I0
tp2336
aa(lp2337
(I0
I0
I1
I0
I0
I0
I1
tp2338
a(I0
I0
I0
I1
I0
I0
I1
tp2339
a(I1
I0
I0
I1
I1
I1
I0
tp2340
a(I0
I0
I0
I0
I1
I1
I1
tp2341
a(I0
I1
I1
I1
I1
I0
I1
tp2342
a(I1
I0
I0
I1
I0
I1
I1
tp2343
a(I0
I0
I0
I0
I0
I0
I0
tp2344
aa(lp2345
(I0
I0
I1
I0
I0
I1
I0
tp2346
a(I0
I0
I1
I0
I0
I1
I1
tp2347
a(I1
I0
I0
I1
I1
I1
I0
tp2348
a(I0
I0
I0
I0
I1
I1
I1
tp2349
a(I0
I1
I1
I0
I1
I0
I0
tp2350
a(I1
I0
I1
I0
I0
I1
I0
tp2351
a(I0
I0
I0
I0
I0
I0
I0
tp2352
aa(lp2353
(I1
I0
I1
I0
I0
I1
I0
tp2354
a(I0
I0
I0
I1
I1
I0
I1
tp2355
a(I1
I0
I0
I1
I1
I1
I0
tp2356
a(I0
I0
I0
I0
I1
I1
I1
tp2357
a(I0
I1
I1
I0
I1
I0
I0
tp2358
a(I1
I0
I1
I0
I0
I1
I0
tp2359
a(I0
I0
I0
I0
I0
I0
I0
tp2360
aa(lp2361
(I1
I0
I1
I0
I0
I0
I1
tp2362
a(I0
I0
I0
I1
I0
I0
I1
tp2363
a(I1
I0
I0
I1
I1
I1
I0
tp2364
a(I0
I0
I0
I0
I1
I1
I1
tp2365
a(I0
I1
I1
I1
I1
I0
I0
tp2366
a(I1
I0
I0
I1
I1
I1
I1
tp2367
a(I0
I0
I0
I0
I0
I0
I0
tp2368
aa(lp2369
(I1
I0
I1
I0
I0
I0
I1
tp2370
a(I0
I0
I0
I1
I0
I0
I1
tp2371
a(I1
I0
I0
I1
I1
I1
I0
tp2372
a(I0
I0
I0
I0
I1
I1
I1
tp2373
a(I0
I1
I1
I0
I1
I1
I0
tp2374
a(I1
I0
I0
I1
I1
I1
I1
tp2375
a(I0
I0
I0
I0
I0
I0
I0
tp2376
aa(lp2377
(I0
I0
I1
I1
I0
I0
I1
tp2378
a(I1
I0
I0
I1
I1
I0
I1
tp2379
a(I1
I0
I0
I1
I1
I1
I0
tp2380
a(I0
I0
I1
I0
I0
I1
I1
tp2381
a(I0
I1
I0
I1
I0
I1
I1
tp2382
a(I1
I0
I0
I1
I0
I1
I1
tp2383
a(I0
I0
I0
I0
I0
I0
I0
tp2384
aa(lp2385
(F0.8824419918482405
F101.98288726365271
tp2386
a(F0.8823677026738969
F101.98046311298707
tp2387
a(F0.8819151898295798
F101.9039571632242
tp2388
a(F0.8813111176807736
F101.55660511410703
tp2389
a(F0.8807608320883524
F101.32346205010857
tp2390
a(F0.8806975614986876
F94.76982655893481
tp2391
a(F0.879980552885832
F94.69869131025938
tp2392
a(F0.8797061660903474
F94.3368924960717
tp2393
a(F0.8796486351163715
F94.26599856221345
tp2394
a(F0.8793301792443623
F94.22716571587722
tp2395
a(F0.8793059128828022
F94.11992491391698
tp2396
a(F0.8787812978696574
F94.0465852756248
tp2397
a(F0.878687653124032
F93.9364485231179
tp2398
a(F0.878617218149794
F93.93620768487432
tp2399
a(F0.8781694912577627
F93.87629533719753
tp2400
a(F0.8777372059958823
F91.55966796369557
tp2401
a(F0.8772384297418232
F91.49886820401852
tp2402
a(F0.8770341600618665
F91.48772151354149
tp2403
a(F0.876054801462654
F90.97130914592283
tp2404
a(F0.8760315542596279
F90.86372144392142
tp2405
a(F0.8754804799095022
F90.62733740166414
tp2406
a(F0.8753415380019535
F90.62656013151309
tp2407
a(F0.875266069708354
F90.59381507172169
tp2408
a(F0.8734833343211784
F90.2541384551288
tp2409
a(F0.8734598993597464
F90.14657905338852
tp2410
a(F0.8731643507745732
F89.89149893436304
tp2411
a(F0.8727013444086472
F89.80474551284277
tp2412
a(F0.8718350654916522
F89.5692243491627
tp2413
a(F0.8718027029772882
F89.56762769996152
tp2414
a(F0.8699991552064092
F89.487930540395
tp2415
a(F0.8699455839173144
F88.30266463323497
tp2416
a(F0.8695771174015393
F88.2168228432507
tp2417
a(F0.8690971319023308
F87.78560566598875
tp2418
a(F0.8684291255246861
F87.42132923823213
tp2419
a(F0.8681198351663618
F87.38047817690841
tp2420
a(F0.8676082827334698
F85.320685101414
tp2421
a(F0.8675731081811664
F85.32062786503033
tp2422
a(F0.8673486850255896
F85.2886760939844
tp2423
a(F0.8666359469800908
F85.21557520001889
tp2424
a(F0.8659533415150817
F84.72695534627087
tp2425
a(F0.8658860560570424
F84.72611073104048
tp2426
a(F0.8653372149735978
F84.3772650490651
tp2427
a(F0.8653134616821232
F84.26857171970988
tp2428
a(F0.8653088808745111
F84.26782026381615
tp2429
a(F0.8650404211495671
F84.14038577215553
tp2430
a(F0.8650189896563876
F84.13618036272737
tp2431
a(F0.8649972276972192
F84.13604237302121
tp2432
a(F0.8645244166066754
F82.66613830660245
tp2433
a(F0.8631468271356066
F81.83741077135903
tp2434
a(F0.8630461276814181
F75.41937017881912
tp2435
a(F0.8623684916718622
F75.33086306966487
tp2436
a(F0.8615301582066381
F74.54359904563456
tp2437
a(F0.861503150933304
F74.54359014619641
tp2438
a(F0.8614715767583478
F74.54300962694018
tp2439
a(F0.8614180343285294
F74.45462423889319
tp2440
a(F0.8613599704645718
F74.45406344083415
tp2441
a(F0.8609671094385303
F74.0172945661419
tp2442
a(F0.8609351470844402
F73.91755205588456
tp2443
a(F0.8608367493448289
F73.8910542403031
tp2444
a(F0.860810009464241
F73.89097633367862
tp2445
a(F0.8607785844062172
F73.89013812705592
tp2446
a(F0.8603290634623404
F73.830851530362
tp2447
a(F0.8601667376423197
F73.79818594552276
tp2448
a(F0.8600543325731821
F72.05536501809853
tp2449
a(F0.8598269966621899
F72.01999012007792
tp2450
a(F0.8595561791909114
F71.98729973140146
tp2451
a(F0.858175379401453
F71.05370508275612
tp2452
a(F0.857633690546288
F70.44037717729921
tp2453
a(F0.8576079063591882
F70.44016265567785
tp2454
a(F0.8575787025494224
F70.43848766083495
tp2455
a(F0.8569647868538348
F70.34712106490397
tp2456
a(F0.856964250425636
F70.34704682260002
tp2457
a(F0.8564847099114432
F70.20648964132712
tp2458
a(F0.8559239768761603
F69.58757158432354
tp2459
a(F0.8558691312894013
F69.58573603997576
tp2460
a(F0.8552543470769705
F69.49418472295915
tp2461
a(F0.854670912089484
F68.85471976925817
tp2462
a(F0.853993434357286
F68.76549368776097
tp2463
a(F0.8531538690351401
F67.96440378284413
tp2464
a(F0.8530642365037309
F67.93785930755443
tp2465
a(F0.8530375121042
F67.9378143995828
tp2466
a(F0.8530060192202964
F67.93765520982247
tp2467
a(F0.8526356462290464
F67.89798705761379
tp2468
a(F0.8526016184274453
F67.51075677984072
tp2469
a(F0.8525789754568334
F67.44431527372772
tp2470
a(F0.8525733538115148
F67.39090783924436
tp2471
a(F0.8525472857505116
F67.34390708322202
tp2472
a(F0.8524372359618564
F67.28059680550518
tp2473
a(F0.8520253573653068
F65.71067381457802
tp2474
a(F0.8518803790406684
F65.68839199547418
tp2475
a(F0.8516507316088671
F65.64793108613983
tp2476
a(F0.8515274992960178
F65.6420453922774
tp2477
a(F0.8513564852984554
F65.62118086412258
tp2478
a(F0.8501683920831912
F64.70075497127849
tp2479
a(F0.8501425757433185
F64.70056922131641
tp2480
a(F0.8499321116046771
F64.62931617754175
tp2481
a(F0.8495929220628612
F64.08768810470008
tp2482
a(F0.8495671530864932
F64.08742680503772
tp2483
a(F0.8495625155741248
F63.98797488216065
tp2484
a(F0.8489675594499396
F63.89878214763294
tp2485
a(F0.8466957171350027
F63.46903635135851
tp2486
a(F0.8466482375827434
F63.46663218299614
tp2487
a(F0.8466049547213976
F63.35776551106983
tp2488
a(F0.8447795798403598
F63.21744700910813
tp2489
a(F0.8447416790278137
F63.102435264536
tp2490
a(F0.8423738006904169
F62.97394443915192
tp2491
a(F0.842373316287331
F62.97392993948131
tp2492
a(F0.8421785090135627
F62.29162616786217
tp2493
a(F0.8421779805237605
F62.2822090910793
tp2494
a(F0.8418624530213494
F62.03013664924514
tp2495
a(F0.8417239272776434
F61.97938533774544
tp2496
a(F0.8417150913152731
F61.97857014457687
tp2497
a(F0.8417109990814381
F61.977748260504846
tp2498
a(F0.8409574910837856
F59.98204642375959
tp2499
a(F0.839121758339407
F58.51968758489852
tp2500
a(F0.8391201495449944
F58.517408100468614
tp2501
a(F0.8383203550622887
F57.61733320631932
tp2502
a(F0.8383198892389687
F57.61732952792707
tp2503
a(F0.8383177807824364
F57.61598030986828
tp2504
a(F0.8338790372774644
F56.62678688675943
tp2505
a(F0.8338460289026345
F56.615564280638765
tp2506
a(F0.8338049498888679
F56.61295343504836
tp2507
a(F0.8317527790661743
F56.17653928540103
tp2508
a(F0.8317037989704088
F56.17360267492164
tp2509
a(F0.8315929867001091
F56.05816350271223
tp2510
a(F0.8314799164280906
F55.863114185572165
tp2511
a(F0.8311732893773477
F55.18121394995817
tp2512
a(F0.8311243256378393
F55.177812980116215
tp2513
a(F0.8309673066604881
F55.07869525210994
tp2514
a(F0.8304741519540346
F54.392738193087574
tp2515
a(F0.8304224615847615
F54.389899798953536
tp2516
a(F0.8297021298097815
F54.27321002755847
tp2517
a(F0.8295051712165395
F53.70748299356184
tp2518
a(F0.8294158049773948
F53.70381431683505
tp2519
a(F0.8286905337103695
F53.574399301046014
tp2520
a(F0.8278385938264885
F52.6471419471908
tp2521
a(F0.8273505562604385
F52.01071866315871
tp2522
a(F0.8273089300538509
F52.008817318644724
tp2523
a(F0.8271409536367563
F51.86988199530386
tp2524
a(F0.827070437467716
F51.86860976155168
tp2525
a(F0.826750858778222
F50.695929215555196
tp2526
a(F0.826280202497748
F50.565891932468745
tp2527
a(F0.8248666484394698
F49.885311154310784
tp2528
a(F0.8248280231929612
F49.88240890785348
tp2529
a(F0.8247576852229365
F49.57902863487352
tp2530
a(F0.8247194637135605
F49.575957618578784
tp2531
a(F0.8243090017135112
F48.890500901706645
tp2532
a(F0.8242704863500704
F48.88721186624214
tp2533
a(F0.8241021633200447
F48.753232570377705
tp2534
a(F0.8235101397736366
F48.75178127030855
tp2535
a(F0.8224474424701511
F48.5769158363464
tp2536
a(F0.8215224415743796
F48.25570359601578
tp2537
a(F0.8212939270853697
F48.12301416452503
tp2538
a(F0.8211359876491315
F48.03416014075042
tp2539
a(F0.820907312424016
F47.99641079146025
tp2540
a(F0.8207811854840205
F47.79431138603917
tp2541
a(F0.8207263534478098
F47.79396959806244
tp2542
a(F0.8206881573315348
F47.77740041861415
tp2543
a(F0.8205817697240161
F47.53305681133109
tp2544
a(F0.820561589110978
F47.425960108201394
tp2545
a(F0.8204011924886381
F46.92042421629334
tp2546
a(F0.8203160283519408
F46.896503522066766
tp2547
a(F0.8195224637316356
F46.854649087312794
tp2548
a(F0.8190971116683743
F45.50873373052184
tp2549
a(F0.8176575902152562
F44.8542392250645
tp2550
a(F0.817547125715681
F44.85133511497309
tp2551
a(F0.8174291338104959
F44.61888493489431
tp2552
a(F0.8172008087162874
F44.353060494349535
tp2553
a(F0.8171635727353803
F43.83661198243344
tp2554
a(F0.8167325052800358
F43.65699220184809
tp2555
a(F0.8166145086747438
F43.65401325744713
tp2556
a(F0.8162689583886669
F43.59981996637528
tp2557
a(F0.8161969757185258
F43.56111681918985
tp2558
a(F0.8161331830570537
F43.451352832157866
tp2559
a(F0.8152618001374106
F43.40213061140459
tp2560
a(F0.8149220268510168
F43.39960939145786
tp2561
a(F0.8144184752618382
F43.28160016394158
tp2562
a(F0.8143810905389172
F43.25993605191174
tp2563
a(F0.814279730430212
F43.25226510725348
tp2564
a(F0.8137975534180928
F42.9219965309469
tp2565
a(F0.8137396519109975
F42.30499797262797
tp2566
a(F0.8137264783104388
F42.300039223180534
tp2567
a(F0.8136901679839121
F42.279156904207504
tp2568
a(F0.8134854979919108
F42.277397808964075
tp2569
a(F0.8131517167977287
F42.27046244875896
tp2570
a(F0.8118150598448226
F42.10946997367286
tp2571
a(F0.81128356560796
F42.1034452993009
tp2572
a(F0.8112168978204835
F41.64593356409107
tp2573
a(F0.8111245402988073
F41.63936409112546
tp2574
a(F0.8110373150381156
F41.61823646537635
tp2575
a(F0.8107171276395428
F41.59126423722856
tp2576
a(F0.8092535405120924
F40.602596241538116
tp2577
a(F0.8092502287075886
F40.60247791484733
tp2578
a(F0.8090138991806672
F40.42545699241453
tp2579
a(F0.8087732447670776
F40.41294195655412
tp2580
a(F0.8087670626620072
F40.41272842272788
tp2581
a(F0.8087597362661978
F40.41061152480825
tp2582
a(F0.8084507549257267
F39.5364988580626
tp2583
a(F0.8084249807054817
F39.53436691985037
tp2584
a(F0.8084092345450196
F39.53428496999581
tp2585
a(F0.8069710561119396
F38.58934312892481
tp2586
a(F0.8068131422325172
F38.192785920632666
tp2587
a(F0.8067825195986679
F38.190101206190576
tp2588
a(F0.8065602747505627
F37.920408716750316
tp2589
a(F0.8063469813878175
F37.11588440953445
tp2590
a(F0.8061050395423708
F36.936785875563984
tp2591
a(F0.8060995059210768
F36.936657260076714
tp2592
a(F0.8058496427715884
F36.93195626765058
tp2593
a(F0.8058436150539736
F36.93190161759541
tp2594
a(F0.8058381736444533
F36.93176353671949
tp2595
a(F0.8058364727999365
F36.929967377949524
tp2596
a(F0.8058135397776636
F36.92813651243983
tp2597
a(F0.8054026367369018
F36.92806854848307
tp2598
a(F0.8053887640435717
F36.92544472106736
tp2599
a(F0.8025774139420832
F36.87133733635187
tp2600
a(F0.8016684878045075
F35.97790932530613
tp2601
a(F0.8014296401146987
F35.79330951151776
tp2602
a(F0.801367559125014
F35.77760236781131
tp2603
a(F0.8011144928573717
F35.773256667898295
tp2604
a(F0.8009134882313846
F35.757260450876316
tp2605
a(F0.8008234633003012
F35.756623507172314
tp2606
a(F0.8003807660856086
F35.74902432090158
tp2607
a(F0.7930078480351124
F34.90275319741434
tp2608
a(F0.7930021149932356
F34.9006017386664
tp2609
a(F0.7804595884686583
F34.26403988430017
tp2610
a(F0.7798600890206819
F33.90287225518128
tp2611
a(F0.779825831323756
F33.08418499046884
tp2612
a(F0.779561783705303
F32.866138064429066
tp2613
a(F0.7790679323899294
F32.84324115036456
tp2614
a(F0.7788878744507345
F32.75661105608369
tp2615
a(F0.7783660132616212
F32.7042232265507
tp2616
a(F0.7765699165419346
F31.85750634767094
tp2617
a(F0.7761086222180191
F31.637215404512126
tp2618
a(F0.7757994679231359
F31.62750264888518
tp2619
a(F0.7741046653743462
F31.442969082494905
tp2620
a(F0.7736176724428449
F31.438381164372807
tp2621
a(F0.7717857999555228
F30.79714549152296
tp2622
a(F0.7713305875814007
F30.571913243617256
tp2623
a(F0.7709848359246169
F30.553203017312054
tp2624
a(F0.7708443996916545
F30.321791350703815
tp2625
a(F0.7685278682869691
F30.303553627757882
tp2626
a(F0.7684580758402019
F30.28563153258896
tp2627
a(F0.7647100463318668
F30.27961058461504
tp2628
a(F0.7646804858350884
F30.278898487959456
tp2629
a(F0.7642883181952611
F29.465772315151604
tp2630
a(F0.7639971833468486
F29.387443875185905
tp2631
a(F0.7635539973365674
F29.35737162488076
tp2632
a(F0.7618620465992665
F29.22456834718501
tp2633
a(F0.7546545841220449
F29.222841446902944
tp2634
a(F0.7546183685161789
F29.222579514668865
tp2635
a(F0.7496272250782506
F29.09188478223978
tp2636
a(F0.7481770857514816
F29.01162178565374
tp2637
a(F0.747260932387447
F29.002275919700224
tp2638
a(F0.7470582399911895
F28.9990647996543
tp2639
a(F0.7468500294418994
F28.740461465568497
tp2640
a(F0.7467385343504652
F28.659299866244275
tp2641
a(F0.7465839953023825
F27.54929775695096
tp2642
a(F0.745726209578344
F27.25884378717285
tp2643
a(F0.7450497581217902
F27.241141519974466
tp2644
a(F0.7446228960190036
F27.220928015382057
tp2645
a(F0.7442512861708638
F26.990108487535935
tp2646
a(F0.7408179319386624
F26.133916623170244
tp2647
a(F0.7403885205337771
F26.114458777909608
tp2648
a(F0.7402922063688976
F25.85938535762535
tp2649
a(F0.7387391151473949
F25.814574626254597
tp2650
a(F0.7380836040163996
F25.79791585462278
tp2651
a(F0.7342368984142699
F25.71435036943513
tp2652
a(F0.7340571475853779
F25.479737336177557
tp2653
a(F0.7337513968647822
F25.461631540487314
tp2654
a(F0.7335547745243152
F25.45444026913262
tp2655
a(F0.7333598377627579
F25.009189722239647
tp2656
a(F0.726987814786785
F24.36683640119921
tp2657
a(F0.7161511887887716
F24.190212527979998
tp2658
a(F0.715772734246165
F24.066396790805854
tp2659
a(F0.7094816856054531
F23.912659577258044
tp2660
a(F0.7084751599279047
F23.28912266677701
tp2661
a(F0.7050485972990657
F23.15172972535335
tp2662
a(F0.7046937489595645
F22.261021445118015
tp2663
a(F0.7015657233294603
F22.11618766803805
tp2664
a(F0.7014534820440786
F22.11616823060166
tp2665
a(F0.6951804408089826
F21.84691705235597
tp2666
a(F0.6950701173402769
F21.846896512791375
tp2667
a(F0.6946990678234025
F21.63916364692811
tp2668
a(F0.6731617521238047
F21.599966006799363
tp2669
a(F0.6204951284914382
F21.40470173090848
tp2670
a(F0.6203982919535537
F21.404421353700243
tp2671
a(F0.6203254973046074
F21.250485217586778
tp2672
a(F0.6201223539591549
F21.248761728832342
tp2673
a(F0.4833859343468593
F20.0
tp2674
a(F0.4833859343468576
F19.999999999999996
tp2675
a(F0.48338593434685634
F19.999999999999993
tp2676
a(F0.48338593434685534
F19.99999999999999
tp2677
a(F0.48338593434685495
F19.99999999999997
tp2678
a(F0.48338593434685306
F19.999999999999968
tp2679
a(F0.48338593434685223
F19.999999999999957
tp2680
a(F0.4833859343468512
F19.999999999999947
tp2681
a(F0.483385934346849
F19.999999999999883
tp2682
a(F0.48338593434684873
F19.999999999999858
tp2683
atp2684
.