((lp0
(lp1
(I0
I1
I1
I0
I1
I0
I0
tp2
a(I0
I1
I1
I1
I1
I1
I1
tp3
a(I1
I0
I1
I0
I1
I0
I0
tp4
a(I0
I0
I0
I1
I1
I1
I0
tp5
a(I1
I0
I1
I0
I1
I1
I0
tp6
a(I0
I0
I1
I1
I1
I1
I0
tp7
a(I0
I0
I0
I0
I1
I1
I0
tp8
aa(lp9
(I0
I1
I1
I0
I1
I0
I0
tp10
a(I0
I1
I1
I1
I1
I1
I1
tp11
a(I1
I0
I0
I0
I1
I1
I0
tp12
a(I0
I0
I0
I1
I1
I1
I0
tp13
a(I1
I0
I1
I0
I0
I0
I0
tp14
a(I0
I0
I1
I1
I1
I1
I0
tp15
a(I0
I0
I0
I0
I1
I1
I0
tp16
aa(lp17
(I0
I1
I1
I0
I1
I0
I0
tp18
a(I0
I1
I1
I1
I1
I1
I1
tp19
a(I1
I0
I1
I0
I1
I0
I0
tp20
a(I0
I0
I0
I1
I1
I1
I0
tp21
a(I1
I0
I1
I0
I0
I1
I0
tp22
a(I0
I0
I1
I1
I1
I1
I0
tp23
a(I0
I0
I0
I0
I1
I1
I0
tp24
aa(lp25
(I0
I1
I1
I0
I1
I0
I0
tp26
a(I0
I1
I1
I1
I1
I1
I1
tp27
a(I1
I0
I1
I0
I1
I0
I0
tp28
a(I0
I0
I0
I1
I1
I1
I0
tp29
a(I1
I0
I1
I0
I0
I0
I0
tp30
a(I0
I0
I1
I1
I1
I1
I0
tp31
a(I0
I0
I0
I0
I1
I1
I0
tp32
aa(lp33
(I0
I1
I1
I0
I1
I0
I0
tp34
a(I0
I1
I1
I0
I1
I1
I0
tp35
a(I1
I0
I1
I0
I1
I0
I0
tp36
a(I0
I0
I0
I1
I1
I1
I0
tp37
a(I1
I0
I1
I0
I0
I0
I0
tp38
a(I0
I0
I1
I1
I1
I1
I0
tp39
a(I0
I0
I0
I0
I1
I1
I0
tp40
aa(lp41
(I0
I1
I1
I0
I1
I0
I0
tp42
a(I0
I0
I1
I0
I1
I1
I0
tp43
a(I1
I0
I1
I0
I1
I0
I0
tp44
a(I0
I0
I0
I1
I1
I1
I0
tp45
a(I1
I0
I1
I0
I0
I0
I0
tp46
a(I0
I0
I1
I1
I1
I1
I0
tp47
a(I0
I0
I0
I0
I1
I1
I0
tp48
aa(lp49
(I0
I1
I1
I0
I1
I0
I0
tp50
a(I0
I0
I1
I0
I0
I1
I0
tp51
a(I1
I0
I1
I0
I1
I0
I0
tp52
a(I0
I0
I0
I1
I1
I1
I0
tp53
a(I1
I0
I1
I0
I0
I0
I0
tp54
a(I0
I0
I1
I1
I1
I1
I0
tp55
a(I0
I0
I0
I0
I1
I1
I0
tp56
aa(lp57
(I0
I1
I1
I0
I1
I0
I0
tp58
a(I0
I1
I1
I1
I1
I1
I1
tp59
a(I1
I0
I1
I0
I0
I1
I0
tp60
a(I0
I0
I0
I1
I1
I1
I0
tp61
a(I1
I0
I1
I0
I0
I0
I0
tp62
a(I0
I0
I1
I1
I1
I1
I0
tp63
a(I0
I0
I0
I0
I1
I1
I0
tp64
aa(lp65
(I1
I0
I1
I1
I1
I0
I0
tp66
a(I0
I0
I1
I0
I1
I1
I1
tp67
a(I1
I0
I1
I0
I0
I1
I0
tp68
a(I0
I0
I0
I1
I1
I1
I0
tp69
a(I1
I0
I1
I0
I0
I0
I0
tp70
a(I0
I0
I0
I1
I1
I1
I1
tp71
a(I0
I0
I0
I0
I1
I1
I0
tp72
aa(lp73
(I1
I0
I1
I1
I1
I0
I0
tp74
a(I0
I0
I1
I0
I1
I1
I0
tp75
a(I1
I0
I1
I0
I0
I1
I0
tp76
a(I0
I0
I0
I1
I1
I1
I0
tp77
a(I1
I0
I1
I0
I0
I0
I0
tp78
a(I0
I0
I0
I1
I1
I1
I1
tp79
a(I0
I0
I0
I0
I1
I1
I0
tp80
aa(lp81
(I0
I1
I1
I1
I1
I0
I0
tp82
a(I0
I0
I1
I0
I1
I1
I1
tp83
a(I1
I0
I1
I0
I0
I1
I0
tp84
a(I0
I0
I0
I1
I1
I1
I0
tp85
a(I1
I0
I1
I0
I0
I0
I0
tp86
a(I0
I0
I0
I1
I1
I1
I1
tp87
a(I0
I0
I0
I0
I1
I1
I0
tp88
aa(lp89
(I0
I1
I1
I0
I1
I0
I0
tp90
a(I0
I1
I1
I1
I1
I1
I0
tp91
a(I1
I0
I1
I0
I1
I0
I0
tp92
a(I0
I0
I0
I1
I1
I1
I0
tp93
a(I1
I0
I1
I0
I0
I0
I0
tp94
a(I0
I0
I1
I0
I1
I1
I0
tp95
a(I0
I0
I0
I0
I1
I1
I0
tp96
aa(lp97
(I0
I1
I1
I0
I1
I0
I0
tp98
a(I0
I1
I1
I1
I1
I1
I1
tp99
a(I1
I0
I1
I0
I1
I0
I0
tp100
a(I0
I0
I0
I1
I1
I1
I0
tp101
a(I1
I0
I1
I0
I0
I0
I0
tp102
a(I0
I0
I1
I0
I1
I1
I0
tp103
a(I0
I0
I0
I0
I1
I1
I0
tp104
aa(lp105
(I0
I1
I1
I0
I1
I0
I0
tp106
a(I0
I1
I1
I0
I1
I1
I1
tp107
a(I1
I0
I1
I0
I1
I0
I0
tp108
a(I0
I0
I0
I1
I1
I1
I0
tp109
a(I1
I0
I1
I0
I0
I0
I0
tp110
a(I0
I0
I1
I0
I1
I1
I0
tp111
a(I0
I0
I0
I0
I1
I1
I0
tp112
aa(lp113
(I0
I1
I1
I0
I1
I0
I0
tp114
a(I0
I0
I1
I0
I1
I1
I0
tp115
a(I1
I0
I1
I0
I1
I0
I0
tp116
a(I0
I0
I0
I1
I1
I1
I0
tp117
a(I1
I0
I1
I0
I0
I0
I0
tp118
a(I0
I0
I1
I0
I1
I1
I0
tp119
a(I0
I0
I0
I0
I1
I1
I0
tp120
aa(lp121
(I0
I1
I1
I0
I1
I0
I0
tp122
a(I0
I0
I1
I0
I0
I1
I0
tp123
a(I1
I0
I1
I0
I1
I0
I0
tp124
a(I0
I0
I0
I1
I1
I1
I0
tp125
a(I1
I0
I1
I0
I0
I0
I0
tp126
a(I0
I0
I1
I0
I1
I1
I0
tp127
a(I0
I0
I0
I0
I1
I1
I0
tp128
aa(lp129
(I0
I1
I1
I0
I1
I0
I0
tp130
a(I0
I1
I1
I1
I1
I1
I1
tp131
a(I1
I0
I1
I1
I0
I0
I0
tp132
a(I0
I0
I0
I1
I1
I1
I0
tp133
a(I1
I0
I1
I0
I0
I0
I0
tp134
a(I0
I0
I1
I1
I1
I1
I0
tp135
a(I0
I0
I0
I0
I1
I1
I0
tp136
aa(lp137
(I0
I1
I1
I0
I1
I0
I0
tp138
a(I0
I1
I1
I1
I1
I1
I0
tp139
a(I1
I0
I1
I0
I0
I1
I0
tp140
a(I0
I0
I0
I1
I1
I1
I0
tp141
a(I1
I0
I1
I0
I0
I0
I0
tp142
a(I0
I0
I1
I0
I1
I1
I0
tp143
a(I0
I0
I0
I0
I1
I1
I0
tp144
aa(lp145
(I0
I1
I1
I0
I1
I0
I0
tp146
a(I0
I0
I1
I0
I0
I1
I0
tp147
a(I1
I0
I1
I0
I0
I1
I0
tp148
a(I0
I0
I0
I1
I1
I1
I0
tp149
a(I1
I0
I1
I0
I0
I0
I0
tp150
a(I0
I0
I1
I0
I1
I1
I0
tp151
a(I0
I0
I0
I0
I1
I1
I0
tp152
aa(lp153
(I0
I1
I1
I0
I1
I0
I0
tp154
a(I0
I0
I1
I0
I0
I1
I0
tp155
a(I1
I0
I1
I0
I0
I1
I0
tp156
a(I0
I0
I1
I1
I1
I1
I0
tp157
a(I1
I0
I1
I0
I0
I0
I0
tp158
a(I0
I0
I1
I0
I1
I1
I0
tp159
a(I0
I0
I0
I0
I1
I1
I0
tp160
aa(lp161
(I0
I1
I1
I0
I1
I0
I0
tp162
a(I0
I0
I1
I1
I1
I1
I0
tp163
a(I1
I0
I1
I0
I0
I0
I0
tp164
a(I0
I0
I0
I1
I1
I1
I0
tp165
a(I1
I0
I1
I0
I0
I0
I0
tp166
a(I0
I0
I1
I1
I1
I1
I0
tp167
a(I0
I0
I0
I0
I1
I1
I0
tp168
aa(lp169
(I0
I1
I1
I0
I1
I0
I0
tp170
a(I0
I1
I1
I1
I1
I1
I0
tp171
a(I1
I0
I1
I0
I0
I0
I0
tp172
a(I0
I0
I0
I1
I1
I1
I0
tp173
a(I1
I0
I1
I0
I0
I0
I0
tp174
a(I0
I0
I1
I1
I1
I1
I0
tp175
a(I0
I0
I0
I0
I1
I1
I0
tp176
aa(lp177
(I0
I1
I1
I0
I1
I0
I0
tp178
a(I0
I0
I1
I0
I1
I1
I0
tp179
a(I1
I0
I1
I0
I0
I0
I0
tp180
a(I0
I0
I0
I1
I1
I1
I0
tp181
a(I1
I0
I1
I0
I0
I0
I0
tp182
a(I0
I0
I1
I1
I1
I1
I0
tp183
a(I0
I0
I0
I0
I1
I1
I0
tp184
aa(lp185
(I0
I1
I1
I0
I1
I0
I0
tp186
a(I0
I0
I1
I0
I0
I1
I0
tp187
a(I1
I0
I1
I0
I0
I0
I0
tp188
a(I0
I0
I0
I1
I1
I1
I0
tp189
a(I1
I0
I1
I0
I0
I0
I0
tp190
a(I0
I0
I1
I1
I1
I1
I0
tp191
a(I0
I0
I0
I0
I1
I1
I0
tp192
aa(lp193
(I0
I1
I1
I0
I1
I0
I0
tp194
a(I0
I0
I1
I0
I1
I1
I0
tp195
a(I1
I0
I1
I0
I0
I1
I0
tp196
a(I0
I0
I0
I1
I1
I1
I0
tp197
a(I1
I0
I1
I0
I0
I0
I0
tp198
a(I0
I0
I1
I0
I1
I0
I0
tp199
a(I0
I0
I0
I0
I1
I1
I0
tp200
aa(lp201
(I0
I1
I1
I0
I1
I0
I0
tp202
a(I0
I0
I1
I0
I0
I1
I0
tp203
a(I1
I0
I1
I0
I0
I1
I0
tp204
a(I0
I0
I1
I1
I1
I1
I0
tp205
a(I1
I0
I1
I0
I0
I0
I0
tp206
a(I0
I0
I1
I0
I1
I0
I0
tp207
a(I0
I0
I0
I0
I1
I1
I0
tp208
aa(lp209
(I0
I1
I1
I0
I1
I0
I0
tp210
a(I0
I1
I1
I1
I1
I1
I0
tp211
a(I1
I0
I1
I0
I0
I0
I0
tp212
a(I0
I0
I0
I1
I1
I1
I0
tp213
a(I1
I0
I1
I0
I0
I0
I0
tp214
a(I0
I0
I1
I0
I1
I1
I0
tp215
a(I0
I0
I0
I0
I1
I1
I0
tp216
aa(lp217
(I0
I1
I1
I0
I1
I0
I0
tp218
a(I0
I0
I1
I0
I1
I1
I0
tp219
a(I1
I0
I1
I0
I0
I0
I0
tp220
a(I0
I0
I0
I1
I1
I1
I0
tp221
a(I1
I0
I1
I0
I0
I0
I0
tp222
a(I0
I0
I1
I0
I1
I1
I0
tp223
a(I0
I0
I0
I0
I1
I1
I0
tp224
aa(lp225
(I0
I1
I1
I0
I1
I0
I0
tp226
a(I0
I0
I1
I0
I1
I1
I0
tp227
a(I1
I0
I1
I0
I0
I0
I0
tp228
a(I0
I0
I0
I1
I1
I1
I0
tp229
a(I1
I0
I1
I0
I0
I0
I0
tp230
a(I0
I0
I1
I0
I1
I1
I1
tp231
a(I0
I0
I0
I0
I1
I1
I0
tp232
aa(lp233
(I0
I1
I1
I0
I1
I0
I0
tp234
a(I0
I0
I1
I1
I0
I1
I0
tp235
a(I1
I0
I1
I0
I0
I0
I0
tp236
a(I0
I0
I0
I1
I1
I1
I0
tp237
a(I1
I0
I1
I0
I0
I0
I0
tp238
a(I0
I0
I1
I0
I1
I1
I0
tp239
a(I0
I0
I0
I0
I1
I1
I0
tp240
aa(lp241
(I0
I1
I1
I0
I1
I0
I0
tp242
a(I0
I0
I1
I0
I0
I1
I0
tp243
a(I1
I0
I1
I0
I0
I0
I0
tp244
a(I0
I0
I0
I1
I1
I1
I0
tp245
a(I1
I0
I1
I0
I0
I0
I0
tp246
a(I0
I0
I1
I0
I1
I1
I0
tp247
a(I0
I0
I0
I0
I1
I1
I0
tp248
aa(lp249
(I0
I1
I1
I0
I1
I0
I0
tp250
a(I0
I0
I1
I0
I0
I1
I0
tp251
a(I1
I0
I1
I0
I0
I0
I0
tp252
a(I0
I0
I0
I1
I1
I1
I0
tp253
a(I1
I0
I1
I0
I0
I0
I0
tp254
a(I0
I0
I1
I0
I1
I1
I1
tp255
a(I0
I0
I0
I0
I1
I1
I0
tp256
aa(lp257
(I0
I1
I1
I0
I1
I0
I0
tp258
a(I0
I0
I1
I0
I0
I1
I0
tp259
a(I1
I0
I1
I0
I0
I0
I0
tp260
a(I0
I0
I1
I1
I1
I1
I0
tp261
a(I1
I0
I1
I0
I0
I0
I0
tp262
a(I0
I0
I1
I0
I1
I1
I0
tp263
a(I0
I0
I0
I0
I1
I1
I0
tp264
aa(lp265
(I0
I1
I1
I0
I1
I0
I0
tp266
a(I0
I0
I1
I1
I1
I1
I0
tp267
a(I1
I0
I1
I0
I0
I0
I0
tp268
a(I0
I0
I0
I1
I1
I1
I0
tp269
a(I1
I0
I1
I0
I0
I0
I0
tp270
a(I0
I0
I1
I0
I1
I0
I0
tp271
a(I0
I0
I0
I0
I1
I1
I0
tp272
aa(lp273
(I0
I1
I1
I0
I1
I0
I0
tp274
a(I0
I0
I1
I0
I1
I1
I0
tp275
a(I1
I0
I1
I0
I0
I0
I0
tp276
a(I0
I0
I0
I1
I1
I1
I0
tp277
a(I1
I0
I1
I0
I0
I0
I0
tp278
a(I0
I0
I1
I0
I1
I0
I0
tp279
a(I0
I0
I0
I0
I1
I1
I0
tp280
aa(lp281
(I0
I1
I1
I0
I1
I0
I0
tp282
a(I0
I0
I0
I0
I1
I1
I0
tp283
a(I1
I0
I1
I0
I0
I0
I0
tp284
a(I0
I0
I0
I1
I1
I1
I0
tp285
a(I1
I0
I1
I0
I0
I0
I0
tp286
a(I0
I0
I1
I0
I1
I0
I0
tp287
a(I0
I0
I0
I0
I1
I1
I0
tp288
aa(lp289
(I0
I1
I1
I0
I1
I0
I0
tp290
a(I0
I0
I1
I0
I1
I0
I0
tp291
a(I1
I0
I1
I0
I0
I0
I0
tp292
a(I0
I0
I0
I1
I1
I1
I0
tp293
a(I1
I0
I1
I0
I0
I0
I0
tp294
a(I0
I0
I1
I0
I1
I0
I0
tp295
a(I0
I0
I0
I0
I1
I1
I0
tp296
aa(lp297
(I0
I1
I1
I0
I1
I0
I0
tp298
a(I0
I0
I1
I0
I0
I1
I0
tp299
a(I1
I0
I1
I0
I0
I0
I0
tp300
a(I0
I0
I0
I1
I1
I1
I0
tp301
a(I1
I0
I1
I0
I0
I0
I0
tp302
a(I0
I0
I1
I0
I1
I0
I0
tp303
a(I0
I0
I0
I0
I1
I1
I0
tp304
aa(lp305
(I0
I1
I1
I0
I1
I0
I0
tp306
a(I0
I0
I1
I0
I0
I1
I0
tp307
a(I1
I0
I1
I0
I0
I0
I0
tp308
a(I0
I0
I0
I1
I1
I1
I0
tp309
a(I1
I0
I1
I0
I0
I0
I0
tp310
a(I0
I0
I1
I0
I1
I0
I0
tp311
a(I0
I0
I0
I0
I1
I1
I1
tp312
aa(lp313
(I0
I1
I1
I0
I1
I0
I0
tp314
a(I0
I1
I1
I1
I1
I1
I1
tp315
a(I1
I0
I1
I0
I0
I0
I0
tp316
a(I1
I1
I1
I0
I0
I0
I0
tp317
a(I1
I0
I1
I0
I0
I0
I0
tp318
a(I0
I0
I1
I1
I1
I1
I0
tp319
a(I0
I0
I0
I0
I1
I1
I0
tp320
aa(lp321
(I0
I1
I1
I0
I1
I0
I0
tp322
a(I0
I1
I1
I1
I1
I1
I1
tp323
a(I1
I0
I1
I1
I0
I0
I0
tp324
a(I0
I0
I1
I0
I1
I1
I0
tp325
a(I1
I0
I1
I0
I0
I0
I0
tp326
a(I0
I0
I1
I0
I1
I0
I0
tp327
a(I0
I0
I0
I0
I1
I1
I0
tp328
aa(lp329
(I0
I1
I1
I0
I1
I0
I0
tp330
a(I0
I1
I1
I0
I1
I1
I0
tp331
a(I1
I0
I1
I1
I0
I0
I0
tp332
a(I0
I0
I1
I0
I1
I1
I0
tp333
a(I1
I0
I1
I0
I0
I0
I0
tp334
a(I0
I0
I1
I0
I1
I0
I0
tp335
a(I0
I0
I0
I0
I1
I1
I0
tp336
aa(lp337
(I0
I1
I1
I0
I1
I0
I0
tp338
a(I0
I0
I1
I0
I0
I1
I0
tp339
a(I1
I0
I1
I0
I1
I0
I0
tp340
a(I1
I1
I1
I0
I0
I0
I0
tp341
a(I1
I0
I1
I0
I0
I0
I0
tp342
a(I0
I0
I1
I0
I1
I0
I0
tp343
a(I0
I0
I0
I0
I1
I1
I0
tp344
aa(lp345
(I0
I1
I1
I0
I1
I0
I0
tp346
a(I0
I1
I1
I0
I1
I1
I0
tp347
a(I1
I0
I1
I0
I1
I0
I0
tp348
a(I0
I0
I0
I1
I1
I1
I0
tp349
a(I1
I0
I1
I0
I0
I0
I0
tp350
a(I0
I0
I1
I0
I1
I1
I1
tp351
a(I0
I0
I0
I0
I0
I1
I0
tp352
aa(lp353
(I0
I1
I1
I0
I1
I0
I0
tp354
a(I0
I0
I1
I0
I1
I1
I0
tp355
a(I1
I0
I1
I0
I1
I0
I0
tp356
a(I0
I0
I0
I1
I1
I1
I0
tp357
a(I1
I0
I1
I0
I0
I0
I0
tp358
a(I0
I0
I1
I0
I1
I1
I1
tp359
a(I0
I0
I0
I0
I0
I1
I0
tp360
aa(lp361
(I0
I1
I1
I0
I1
I0
I0
tp362
a(I0
I0
I1
I0
I0
I1
I0
tp363
a(I1
I0
I1
I0
I1
I0
I0
tp364
a(I0
I0
I0
I1
I1
I1
I0
tp365
a(I1
I0
I1
I0
I0
I0
I0
tp366
a(I0
I0
I1
I0
I1
I1
I1
tp367
a(I0
I0
I0
I0
I0
I1
I0
tp368
aa(lp369
(I0
I1
I1
I0
I1
I0
I0
tp370
a(I0
I1
I1
I1
I1
I1
I0
tp371
a(I1
I0
I1
I0
I0
I0
I0
tp372
a(I1
I1
I1
I0
I0
I0
I0
tp373
a(I1
I0
I1
I0
I0
I0
I0
tp374
a(I0
I0
I1
I0
I1
I1
I0
tp375
a(I0
I0
I0
I0
I1
I1
I0
tp376
aa(lp377
(I0
I1
I1
I0
I1
I0
I0
tp378
a(I0
I1
I1
I1
I1
I1
I0
tp379
a(I1
I0
I1
I0
I1
I0
I0
tp380
a(I0
I0
I0
I1
I1
I1
I0
tp381
a(I1
I0
I1
I0
I0
I0
I0
tp382
a(I0
I0
I1
I0
I1
I0
I0
tp383
a(I0
I0
I0
I0
I0
I1
I0
tp384
aa(lp385
(I0
I1
I1
I0
I1
I0
I0
tp386
a(I0
I1
I1
I0
I1
I1
I0
tp387
a(I1
I0
I1
I0
I1
I0
I0
tp388
a(I0
I0
I0
I1
I1
I1
I0
tp389
a(I1
I0
I1
I0
I0
I0
I0
tp390
a(I0
I0
I1
I0
I1
I0
I0
tp391
a(I0
I0
I0
I0
I0
I1
I0
tp392
aa(lp393
(I0
I1
I1
I0
I1
I0
I0
tp394
a(I0
I0
I1
I0
I1
I1
I1
tp395
a(I1
I0
I1
I0
I1
I0
I0
tp396
a(I0
I0
I0
I1
I1
I1
I0
tp397
a(I1
I0
I1
I0
I0
I0
I0
tp398
a(I0
I0
I1
I0
I1
I0
I0
tp399
a(I0
I0
I0
I0
I0
I1
I0
tp400
aa(lp401
(I0
I1
I1
I0
I1
I0
I0
tp402
a(I0
I0
I1
I0
I0
I1
I0
tp403
a(I1
I0
I1
I0
I1
I0
I0
tp404
a(I0
I0
I0
I1
I1
I1
I0
tp405
a(I1
I0
I1
I0
I0
I0
I0
tp406
a(I0
I0
I1
I0
I1
I0
I0
tp407
a(I0
I0
I0
I0
I0
I1
I0
tp408
aa(lp409
(I0
I1
I1
I0
I1
I0
I0
tp410
a(I0
I0
I1
I1
I0
I1
I0
tp411
a(I0
I0
I1
I0
I1
I1
I0
tp412
a(I0
I0
I0
I1
I1
I1
I0
tp413
a(I1
I0
I1
I0
I0
I0
I0
tp414
a(I0
I0
I1
I0
I1
I0
I0
tp415
a(I0
I0
I0
I0
I0
I1
I0
tp416
aa(lp417
(I0
I1
I1
I0
I1
I0
I0
tp418
a(I0
I0
I1
I0
I0
I1
I0
tp419
a(I0
I0
I1
I0
I1
I1
I0
tp420
a(I0
I0
I0
I1
I1
I1
I0
tp421
a(I1
I0
I1
I0
I0
I0
I0
tp422
a(I0
I0
I1
I0
I1
I0
I0
tp423
a(I0
I0
I0
I0
I0
I1
I0
tp424
aa(lp425
(I0
I1
I1
I0
I1
I0
I0
tp426
a(I0
I0
I1
I1
I1
I1
I0
tp427
a(I1
I0
I1
I0
I0
I0
I0
tp428
a(I1
I1
I1
I0
I0
I0
I0
tp429
a(I1
I0
I1
I0
I0
I0
I0
tp430
a(I0
I0
I1
I0
I1
I0
I0
tp431
a(I0
I0
I0
I0
I1
I1
I0
tp432
aa(lp433
(I0
I1
I1
I0
I1
I0
I0
tp434
a(I0
I1
I1
I1
I1
I1
I0
tp435
a(I1
I0
I1
I0
I0
I0
I0
tp436
a(I1
I1
I1
I0
I0
I0
I0
tp437
a(I1
I0
I1
I0
I0
I0
I0
tp438
a(I0
I0
I1
I0
I1
I0
I0
tp439
a(I0
I0
I0
I0
I1
I1
I0
tp440
aa(lp441
(I0
I1
I1
I0
I1
I0
I0
tp442
a(I0
I1
I1
I1
I1
I1
I1
tp443
a(I1
I0
I1
I0
I0
I0
I0
tp444
a(I1
I1
I1
I0
I0
I0
I0
tp445
a(I1
I0
I1
I0
I0
I0
I0
tp446
a(I0
I0
I1
I0
I1
I0
I0
tp447
a(I0
I0
I0
I0
I1
I1
I0
tp448
aa(lp449
(I1
I1
I1
I0
I0
I0
I0
tp450
a(I0
I0
I1
I1
I1
I1
I0
tp451
a(I1
I0
I1
I0
I0
I0
I0
tp452
a(I1
I1
I1
I0
I0
I0
I0
tp453
a(I1
I0
I1
I0
I0
I0
I0
tp454
a(I0
I0
I1
I0
I1
I0
I0
tp455
a(I0
I0
I0
I0
I1
I1
I0
tp456
aa(lp457
(I1
I1
I1
I0
I0
I0
I0
tp458
a(I0
I1
I1
I1
I1
I1
I0
tp459
a(I1
I0
I1
I0
I0
I0
I0
tp460
a(I1
I1
I1
I0
I0
I0
I0
tp461
a(I1
I0
I1
I0
I0
I0
I0
tp462
a(I0
I0
I1
I0
I1
I0
I0
tp463
a(I0
I0
I0
I0
I1
I1
I0
tp464
aa(lp465
(I0
I1
I1
I0
I1
I0
I0
tp466
a(I0
I1
I1
I1
I1
I1
I0
tp467
a(I1
I0
I1
I0
I1
I0
I0
tp468
a(I0
I0
I1
I0
I1
I1
I0
tp469
a(I1
I0
I1
I0
I0
I0
I0
tp470
a(I0
I0
I1
I0
I1
I0
I0
tp471
a(I0
I0
I0
I0
I0
I1
I0
tp472
aa(lp473
(I0
I1
I1
I0
I1
I0
I0
tp474
a(I0
I1
I1
I0
I1
I1
I0
tp475
a(I1
I0
I1
I0
I1
I0
I0
tp476
a(I0
I0
I1
I0
I1
I1
I0
tp477
a(I1
I0
I1
I0
I0
I0
I0
tp478
a(I0
I0
I1
I0
I1
I0
I0
tp479
a(I0
I0
I0
I0
I0
I1
I0
tp480
aa(lp481
(I0
I1
I1
I0
I1
I0
I0
tp482
a(I0
I0
I1
I0
I1
I1
I0
tp483
a(I1
I0
I1
I0
I1
I0
I0
tp484
a(I0
I0
I1
I0
I1
I1
I0
tp485
a(I1
I0
I1
I0
I0
I0
I0
tp486
a(I0
I0
I1
I0
I1
I0
I0
tp487
a(I0
I0
I0
I0
I0
I1
I0
tp488
aa(lp489
(I0
I1
I1
I0
I1
I0
I0
tp490
a(I0
I0
I1
I0
I0
I1
I0
tp491
a(I1
I0
I1
I0
I1
I0
I0
tp492
a(I0
I0
I1
I0
I1
I1
I0
tp493
a(I1
I0
I1
I0
I0
I0
I0
tp494
a(I0
I0
I1
I0
I1
I0
I0
tp495
a(I0
I0
I0
I0
I0
I1
I0
tp496
aa(lp497
(I0
I1
I1
I0
I1
I0
I0
tp498
a(I0
I0
I1
I0
I1
I1
I0
tp499
a(I0
I0
I1
I0
I1
I1
I0
tp500
a(I0
I0
I1
I0
I1
I1
I0
tp501
a(I1
I0
I1
I0
I0
I0
I0
tp502
a(I0
I0
I1
I0
I1
I0
I0
tp503
a(I0
I0
I0
I0
I0
I1
I0
tp504
aa(lp505
(I0
I1
I1
I0
I1
I0
I0
tp506
a(I0
I0
I0
I0
I1
I1
I0
tp507
a(I0
I0
I1
I0
I1
I1
I0
tp508
a(I0
I0
I1
I0
I1
I1
I0
tp509
a(I1
I0
I1
I0
I0
I0
I0
tp510
a(I0
I0
I1
I0
I1
I0
I0
tp511
a(I0
I0
I0
I0
I0
I1
I0
tp512
aa(lp513
(I0
I1
I1
I0
I1
I0
I0
tp514
a(I0
I0
I1
I0
I0
I1
I0
tp515
a(I0
I0
I1
I0
I1
I1
I0
tp516
a(I0
I0
I1
I0
I1
I1
I0
tp517
a(I1
I0
I1
I0
I0
I0
I0
tp518
a(I0
I0
I1
I0
I1
I0
I0
tp519
a(I0
I0
I0
I0
I0
I1
I0
tp520
aa(lp521
(I0
I1
I1
I0
I1
I0
I0
tp522
a(I0
I0
I1
I0
I0
I1
I0
tp523
a(I1
I0
I1
I0
I0
I0
I0
tp524
a(I0
I0
I0
I1
I1
I1
I0
tp525
a(I1
I0
I1
I0
I0
I0
I0
tp526
a(I0
I0
I1
I0
I1
I1
I1
tp527
a(I0
I0
I0
I0
I0
I1
I0
tp528
aa(lp529
(I0
I1
I1
I0
I1
I0
I0
tp530
a(I0
I0
I1
I0
I0
I1
I0
tp531
a(I0
I0
I1
I0
I0
I1
I0
tp532
a(I0
I0
I0
I1
I1
I1
I0
tp533
a(I1
I0
I1
I0
I0
I0
I0
tp534
a(I0
I0
I1
I0
I1
I1
I1
tp535
a(I0
I0
I0
I0
I0
I1
I0
tp536
aa(lp537
(I0
I1
I1
I0
I1
I0
I0
tp538
a(I0
I1
I1
I1
I1
I1
I0
tp539
a(I1
I0
I1
I0
I1
I0
I0
tp540
a(I0
I0
I1
I0
I1
I0
I0
tp541
a(I1
I0
I1
I0
I0
I0
I0
tp542
a(I0
I0
I1
I0
I1
I0
I0
tp543
a(I0
I0
I0
I0
I0
I1
I0
tp544
aa(lp545
(I0
I1
I1
I0
I1
I0
I0
tp546
a(I0
I0
I1
I0
I1
I1
I0
tp547
a(I1
I0
I1
I0
I1
I0
I0
tp548
a(I0
I0
I1
I0
I1
I0
I0
tp549
a(I1
I0
I1
I0
I0
I0
I0
tp550
a(I0
I0
I1
I0
I1
I0
I0
tp551
a(I0
I0
I0
I0
I0
I1
I0
tp552
aa(lp553
(I0
I1
I1
I0
I1
I0
I0
tp554
a(I0
I0
I1
I0
I0
I1
I0
tp555
a(I1
I0
I1
I0
I1
I0
I0
tp556
a(I0
I0
I1
I0
I1
I0
I0
tp557
a(I1
I0
I1
I0
I0
I0
I0
tp558
a(I0
I0
I1
I0
I1
I0
I0
tp559
a(I0
I0
I0
I0
I0
I1
I0
tp560
aa(lp561
(I0
I1
I1
I0
I1
I0
I0
tp562
a(I0
I0
I1
I0
I1
I1
I0
tp563
a(I0
I0
I1
I0
I1
I1
I0
tp564
a(I0
I0
I1
I0
I1
I0
I0
tp565
a(I1
I0
I1
I0
I0
I0
I0
tp566
a(I0
I0
I1
I0
I1
I0
I0
tp567
a(I0
I0
I0
I0
I0
I1
I0
tp568
aa(lp569
(I0
I1
I1
I0
I1
I0
I0
tp570
a(I0
I0
I1
I1
I0
I1
I0
tp571
a(I0
I0
I1
I0
I1
I1
I0
tp572
a(I0
I0
I1
I0
I1
I0
I0
tp573
a(I1
I0
I1
I0
I0
I0
I0
tp574
a(I0
I0
I1
I0
I1
I0
I0
tp575
a(I0
I0
I0
I0
I0
I1
I0
tp576
aa(lp577
(I0
I1
I1
I0
I1
I0
I0
tp578
a(I0
I0
I1
I0
I0
I1
I0
tp579
a(I0
I0
I1
I0
I1
I1
I0
tp580
a(I0
I0
I1
I0
I1
I0
I0
tp581
a(I1
I0
I1
I0
I0
I0
I0
tp582
a(I0
I0
I1
I0
I1
I0
I0
tp583
a(I0
I0
I0
I0
I0
I1
I0
tp584
aa(lp585
(I1
I1
I1
I0
I0
I0
I0
tp586
a(I0
I0
I1
I0
I0
I1
I0
tp587
a(I1
I0
I1
I0
I0
I0
I0
tp588
a(I0
I0
I1
I0
I1
I1
I0
tp589
a(I1
I0
I1
I0
I0
I0
I0
tp590
a(I0
I0
I1
I0
I1
I0
I0
tp591
a(I0
I0
I0
I0
I1
I0
I0
tp592
aa(lp593
(I0
I1
I1
I0
I1
I0
I0
tp594
a(I0
I0
I1
I0
I0
I1
I0
tp595
a(I0
I0
I1
I0
I0
I1
I0
tp596
a(I0
I0
I0
I1
I1
I1
I0
tp597
a(I1
I0
I1
I0
I0
I0
I0
tp598
a(I0
I0
I1
I0
I1
I0
I0
tp599
a(I0
I0
I0
I0
I0
I1
I0
tp600
aa(lp601
(I0
I1
I1
I0
I1
I0
I0
tp602
a(I0
I0
I1
I0
I0
I1
I0
tp603
a(I0
I0
I1
I0
I0
I1
I0
tp604
a(I0
I0
I1
I1
I1
I1
I0
tp605
a(I1
I0
I1
I0
I0
I0
I0
tp606
a(I0
I0
I1
I0
I1
I0
I0
tp607
a(I0
I0
I0
I0
I0
I1
I0
tp608
aa(lp609
(I0
I0
I1
I0
I1
I0
I0
tp610
a(I0
I0
I1
I0
I0
I1
I0
tp611
a(I0
I0
I1
I0
I0
I1
I0
tp612
a(I0
I0
I0
I1
I1
I1
I0
tp613
a(I1
I0
I1
I0
I0
I0
I0
tp614
a(I0
I0
I1
I0
I1
I0
I0
tp615
a(I0
I0
I0
I0
I0
I1
I0
tp616
aa(lp617
(I0
I0
I1
I0
I1
I0
I0
tp618
a(I0
I0
I1
I0
I0
I1
I0
tp619
a(I0
I0
I1
I0
I0
I1
I0
tp620
a(I0
I0
I1
I1
I1
I1
I0
tp621
a(I1
I0
I1
I0
I0
I0
I0
tp622
a(I0
I0
I1
I0
I1
I0
I0
tp623
a(I0
I0
I0
I0
I0
I1
I0
tp624
aa(lp625
(I0
I1
I1
I0
I1
I0
I0
tp626
a(I0
I0
I1
I0
I0
I1
I0
tp627
a(I0
I0
I1
I0
I1
I0
I0
tp628
a(I0
I0
I1
I0
I1
I1
I0
tp629
a(I1
I0
I1
I0
I0
I0
I0
tp630
a(I0
I0
I1
I0
I1
I0
I0
tp631
a(I0
I0
I0
I0
I0
I1
I0
tp632
aa(lp633
(I0
I1
I1
I0
I1
I0
I0
tp634
a(I0
I1
I1
I1
I1
I1
I0
tp635
a(I0
I0
I1
I0
I0
I1
I0
tp636
a(I0
I0
I1
I0
I1
I1
I0
tp637
a(I1
I1
I1
I0
I0
I0
I0
tp638
a(I0
I0
I1
I0
I1
I0
I0
tp639
a(I0
I0
I0
I0
I0
I1
I0
tp640
aa(lp641
(I0
I1
I1
I0
I1
I0
I0
tp642
a(I0
I1
I1
I1
I1
I1
I0
tp643
a(I0
I0
I1
I0
I0
I1
I0
tp644
a(I0
I0
I1
I0
I1
I1
I0
tp645
a(I1
I0
I1
I0
I0
I0
I0
tp646
a(I0
I0
I1
I0
I1
I0
I0
tp647
a(I0
I0
I0
I0
I0
I1
I0
tp648
aa(lp649
(I0
I1
I1
I0
I1
I0
I0
tp650
a(I0
I1
I1
I0
I1
I1
I0
tp651
a(I0
I0
I1
I0
I0
I1
I0
tp652
a(I0
I0
I1
I0
I1
I1
I0
tp653
a(I1
I0
I1
I0
I0
I0
I0
tp654
a(I0
I0
I1
I0
I1
I0
I0
tp655
a(I0
I0
I0
I0
I0
I1
I0
tp656
aa(lp657
(I0
I1
I1
I0
I1
I0
I0
tp658
a(I0
I0
I1
I0
I1
I1
I0
tp659
a(I0
I0
I1
I0
I0
I1
I0
tp660
a(I0
I0
I1
I0
I1
I1
I0
tp661
a(I1
I0
I1
I0
I0
I0
I0
tp662
a(I0
I0
I1
I0
I1
I0
I0
tp663
a(I0
I0
I0
I0
I0
I1
I0
tp664
aa(lp665
(I0
I1
I1
I0
I1
I0
I0
tp666
a(I0
I0
I1
I1
I0
I1
I0
tp667
a(I0
I0
I1
I0
I0
I1
I0
tp668
a(I0
I0
I1
I0
I1
I1
I0
tp669
a(I1
I0
I1
I0
I0
I0
I0
tp670
a(I0
I0
I1
I0
I1
I0
I0
tp671
a(I0
I0
I0
I0
I0
I1
I0
tp672
aa(lp673
(I0
I1
I1
I0
I1
I0
I0
tp674
a(I0
I0
I1
I0
I0
I1
I0
tp675
a(I0
I0
I1
I0
I0
I1
I0
tp676
a(I0
I0
I1
I0
I1
I1
I0
tp677
a(I1
I0
I1
I0
I0
I0
I0
tp678
a(I0
I0
I1
I0
I1
I0
I0
tp679
a(I0
I0
I0
I0
I0
I1
I0
tp680
aa(lp681
(I0
I1
I1
I0
I1
I0
I0
tp682
a(I0
I0
I1
I0
I0
I1
I0
tp683
a(I0
I0
I1
I0
I0
I1
I0
tp684
a(I0
I1
I1
I0
I1
I0
I0
tp685
a(I1
I0
I1
I0
I0
I0
I0
tp686
a(I0
I0
I1
I0
I1
I0
I0
tp687
a(I0
I0
I0
I0
I0
I1
I0
tp688
aa(lp689
(I0
I0
I1
I0
I1
I0
I0
tp690
a(I0
I0
I1
I0
I0
I1
I0
tp691
a(I0
I0
I1
I0
I0
I1
I0
tp692
a(I0
I1
I1
I0
I1
I0
I0
tp693
a(I1
I0
I1
I0
I0
I0
I0
tp694
a(I0
I0
I1
I0
I1
I0
I0
tp695
a(I0
I0
I0
I0
I0
I1
I0
tp696
aa(lp697
(I0
I1
I1
I0
I1
I0
I0
tp698
a(I0
I0
I1
I0
I0
I1
I0
tp699
a(I0
I0
I1
I0
I1
I0
I0
tp700
a(I0
I0
I1
I0
I1
I0
I0
tp701
a(I1
I0
I1
I0
I0
I0
I0
tp702
a(I0
I0
I1
I0
I1
I0
I0
tp703
a(I0
I0
I0
I0
I0
I1
I0
tp704
aa(lp705
(I0
I0
I1
I0
I1
I1
I0
tp706
a(I0
I0
I1
I0
I0
I1
I0
tp707
a(I0
I0
I1
I0
I1
I0
I0
tp708
a(I0
I0
I1
I0
I1
I0
I0
tp709
a(I1
I0
I1
I0
I0
I0
I0
tp710
a(I0
I0
I1
I0
I1
I0
I0
tp711
a(I0
I0
I0
I0
I0
I1
I0
tp712
aa(lp713
(I0
I0
I1
I0
I1
I0
I0
tp714
a(I0
I0
I1
I0
I0
I1
I0
tp715
a(I0
I0
I1
I0
I1
I0
I0
tp716
a(I0
I0
I1
I0
I1
I0
I0
tp717
a(I1
I0
I1
I0
I0
I0
I0
tp718
a(I0
I0
I1
I0
I1
I0
I0
tp719
a(I0
I0
I0
I0
I0
I1
I0
tp720
aa(lp721
(I0
I1
I1
I0
I0
I0
I0
tp722
a(I0
I0
I1
I0
I0
I1
I0
tp723
a(I0
I0
I1
I0
I1
I0
I0
tp724
a(I0
I0
I1
I0
I1
I0
I0
tp725
a(I1
I0
I1
I0
I0
I0
I0
tp726
a(I0
I0
I1
I0
I1
I0
I0
tp727
a(I0
I0
I0
I0
I0
I1
I0
tp728
aa(lp729
(I0
I1
I1
I0
I1
I0
I0
tp730
a(I0
I1
I1
I1
I1
I1
I0
tp731
a(I0
I0
I1
I0
I0
I1
I0
tp732
a(I0
I0
I1
I0
I1
I0
I0
tp733
a(I1
I0
I1
I0
I0
I0
I0
tp734
a(I0
I0
I1
I0
I1
I0
I0
tp735
a(I0
I0
I0
I0
I0
I1
I0
tp736
aa(lp737
(I0
I1
I1
I0
I1
I0
I0
tp738
a(I0
I1
I1
I0
I1
I1
I0
tp739
a(I0
I0
I1
I0
I0
I1
I0
tp740
a(I0
I0
I1
I0
I1
I0
I0
tp741
a(I1
I0
I1
I0
I0
I0
I0
tp742
a(I0
I0
I1
I0
I1
I0
I0
tp743
a(I0
I0
I0
I0
I0
I1
I0
tp744
aa(lp745
(I0
I1
I1
I0
I1
I0
I0
tp746
a(I0
I0
I1
I0
I1
I1
I0
tp747
a(I0
I0
I1
I0
I0
I1
I0
tp748
a(I0
I0
I1
I0
I1
I0
I0
tp749
a(I1
I0
I1
I0
I0
I0
I0
tp750
a(I0
I0
I1
I0
I1
I0
I0
tp751
a(I0
I0
I0
I0
I0
I1
I0
tp752
aa(lp753
(I0
I1
I1
I0
I1
I0
I0
tp754
a(I0
I0
I1
I1
I0
I1
I0
tp755
a(I0
I0
I1
I0
I0
I1
I0
tp756
a(I0
I0
I1
I0
I1
I0
I0
tp757
a(I1
I0
I1
I0
I0
I0
I0
tp758
a(I0
I0
I1
I0
I1
I0
I0
tp759
a(I0
I0
I0
I0
I0
I1
I0
tp760
aa(lp761
(I0
I1
I1
I0
I1
I0
I0
tp762
a(I0
I0
I1
I0
I0
I1
I0
tp763
a(I0
I0
I1
I0
I0
I1
I0
tp764
a(I0
I0
I1
I0
I1
I0
I0
tp765
a(I1
I0
I1
I0
I0
I0
I0
tp766
a(I0
I0
I1
I0
I1
I0
I0
tp767
a(I0
I0
I0
I0
I0
I1
I0
tp768
aa(lp769
(I0
I0
I1
I0
I1
I1
I0
tp770
a(I0
I0
I1
I0
I0
I1
I0
tp771
a(I0
I0
I1
I0
I0
I1
I0
tp772
a(I0
I0
I1
I0
I1
I0
I0
tp773
a(I1
I0
I1
I0
I0
I0
I0
tp774
a(I0
I0
I1
I0
I1
I0
I0
tp775
a(I0
I0
I0
I0
I0
I1
I0
tp776
aa(lp777
(I0
I0
I1
I0
I1
I0
I0
tp778
a(I0
I0
I1
I0
I0
I1
I0
tp779
a(I0
I0
I1
I0
I0
I1
I0
tp780
a(I0
I0
I1
I0
I1
I0
I0
tp781
a(I1
I0
I1
I0
I0
I0
I0
tp782
a(I0
I0
I1
I0
I1
I0
I0
tp783
a(I0
I0
I0
I0
I0
I1
I0
tp784
aa(lp785
(I0
I1
I1
I0
I0
I0
I0
tp786
a(I0
I0
I1
I0
I0
I1
I0
tp787
a(I0
I0
I1
I0
I0
I1
I0
tp788
a(I0
I0
I1
I0
I1
I0
I0
tp789
a(I1
I0
I1
I0
I0
I0
I0
tp790
a(I0
I0
I1
I0
I1
I0
I0
tp791
a(I0
I0
I0
I0
I0
I1
I0
tp792
aa(lp793
(I0
I0
I1
I0
I1
I0
I0
tp794
a(I0
I0
I1
I0
I0
I0
I0
tp795
a(I0
I0
I1
I0
I0
I1
I0
tp796
a(I0
I0
I1
I0
I1
I0
I0
tp797
a(I1
I0
I1
I0
I0
I0
I0
tp798
a(I0
I0
I1
I0
I1
I0
I0
tp799
a(I0
I0
I0
I0
I0
I1
I0
tp800
aa(lp801
(I0
I1
I1
I0
I0
I0
I0
tp802
a(I0
I0
I1
I0
I0
I0
I0
tp803
a(I0
I0
I1
I0
I0
I1
I0
tp804
a(I0
I0
I1
I0
I1
I0
I0
tp805
a(I1
I0
I1
I0
I0
I0
I0
tp806
a(I0
I0
I1
I0
I1
I0
I0
tp807
a(I0
I0
I0
I0
I0
I1
I0
tp808
aa(lp809
(I0
I0
I1
I0
I0
I0
I0
tp810
a(I0
I0
I1
I0
I0
I1
I0
tp811
a(I0
I0
I1
I0
I0
I1
I0
tp812
a(I0
I0
I1
I0
I1
I0
I0
tp813
a(I1
I0
I1
I0
I0
I0
I0
tp814
a(I0
I0
I1
I0
I1
I0
I0
tp815
a(I0
I0
I0
I0
I0
I1
I0
tp816
aa(lp817
(I0
I0
I1
I0
I0
I0
I0
tp818
a(I0
I0
I1
I0
I0
I0
I0
tp819
a(I0
I0
I1
I0
I0
I1
I0
tp820
a(I0
I0
I1
I0
I1
I0
I0
tp821
a(I1
I0
I1
I0
I0
I0
I0
tp822
a(I0
I0
I1
I0
I1
I0
I0
tp823
a(I0
I0
I0
I0
I0
I1
I0
tp824
aa(lp825
(I1
I1
I1
I0
I0
I0
I0
tp826
a(I0
I0
I1
I0
I0
I1
I0
tp827
a(I0
I0
I1
I0
I0
I1
I0
tp828
a(I0
I0
I1
I0
I1
I1
I0
tp829
a(I1
I0
I1
I0
I0
I0
I0
tp830
a(I0
I0
I1
I0
I1
I0
I0
tp831
a(I0
I0
I1
I0
I0
I0
I0
tp832
aa(lp833
(I0
I0
I1
I0
I1
I0
I0
tp834
a(I0
I0
I1
I0
I0
I1
I0
tp835
a(I0
I0
I1
I0
I0
I0
I0
tp836
a(I0
I0
I1
I0
I1
I1
I0
tp837
a(I1
I0
I1
I0
I0
I0
I0
tp838
a(I0
I0
I1
I0
I1
I0
I0
tp839
a(I0
I0
I0
I0
I0
I1
I0
tp840
aa(lp841
(I1
I1
I1
I0
I0
I0
I0
tp842
a(I0
I0
I1
I0
I0
I1
I0
tp843
a(I0
I0
I1
I0
I0
I1
I0
tp844
a(I1
I1
I1
I0
I0
I0
I0
tp845
a(I1
I0
I1
I0
I0
I0
I0
tp846
a(I0
I0
I1
I0
I1
I1
I0
tp847
a(I0
I0
I1
I0
I0
I0
I0
tp848
aa(lp849
(I1
I1
I1
I0
I0
I0
I0
tp850
a(I0
I1
I1
I1
I1
I1
I0
tp851
a(I1
I0
I1
I0
I0
I0
I0
tp852
a(I1
I1
I1
I0
I0
I0
I0
tp853
a(I1
I0
I1
I0
I0
I0
I0
tp854
a(I0
I0
I1
I0
I1
I0
I0
tp855
a(I0
I0
I1
I0
I0
I0
I0
tp856
aa(lp857
(I1
I1
I1
I0
I1
I0
I0
tp858
a(I0
I0
I1
I0
I0
I1
I0
tp859
a(I0
I0
I1
I0
I0
I1
I0
tp860
a(I1
I1
I1
I0
I0
I0
I0
tp861
a(I1
I0
I1
I0
I0
I0
I0
tp862
a(I0
I0
I1
I0
I1
I0
I0
tp863
a(I0
I0
I1
I0
I0
I0
I0
tp864
aa(lp865
(I1
I1
I1
I0
I1
I0
I0
tp866
a(I0
I0
I0
I0
I0
I1
I0
tp867
a(I0
I0
I1
I0
I0
I1
I0
tp868
a(I1
I1
I1
I0
I0
I0
I0
tp869
a(I1
I0
I1
I0
I0
I0
I0
tp870
a(I0
I0
I1
I0
I1
I0
I0
tp871
a(I0
I0
I1
I0
I0
I0
I0
tp872
aa(lp873
(I1
I1
I1
I0
I0
I0
I0
tp874
a(I0
I0
I1
I0
I1
I1
I1
tp875
a(I0
I0
I1
I0
I0
I1
I0
tp876
a(I1
I1
I1
I0
I0
I0
I0
tp877
a(I1
I0
I1
I0
I0
I0
I0
tp878
a(I0
I0
I1
I0
I1
I0
I0
tp879
a(I0
I0
I1
I0
I0
I0
I0
tp880
aa(lp881
(I1
I1
I1
I0
I0
I0
I0
tp882
a(I0
I0
I1
I0
I0
I1
I0
tp883
a(I0
I0
I1
I0
I0
I1
I0
tp884
a(I1
I1
I1
I0
I0
I0
I0
tp885
a(I1
I0
I1
I0
I0
I0
I0
tp886
a(I0
I0
I1
I0
I1
I0
I0
tp887
a(I0
I0
I1
I0
I0
I0
I0
tp888
aa(lp889
(I1
I1
I1
I0
I0
I0
I0
tp890
a(I0
I0
I1
I0
I0
I1
I0
tp891
a(I0
I0
I1
I0
I0
I1
I0
tp892
a(I1
I1
I1
I0
I0
I0
I0
tp893
a(I1
I0
I1
I0
I0
I0
I0
tp894
a(I0
I0
I0
I0
I1
I0
I0
tp895
a(I0
I0
I1
I0
I0
I0
I0
tp896
aa(lp897
(I1
I1
I1
I0
I0
I0
I0
tp898
a(I0
I0
I1
I0
I0
I0
I0
tp899
a(I0
I0
I1
I0
I0
I1
I0
tp900
a(I1
I1
I1
I0
I0
I0
I0
tp901
a(I1
I0
I1
I0
I0
I0
I0
tp902
a(I0
I0
I1
I0
I1
I0
I0
tp903
a(I0
I0
I1
I0
I0
I0
I0
tp904
aa(lp905
(I0
I0
I1
I1
I0
I0
I0
tp906
a(I0
I0
I1
I0
I0
I1
I0
tp907
a(I0
I0
I1
I0
I0
I1
I0
tp908
a(I1
I1
I1
I0
I0
I0
I0
tp909
a(I1
I0
I1
I0
I0
I0
I0
tp910
a(I0
I0
I1
I0
I1
I0
I0
tp911
a(I0
I0
I1
I0
I0
I0
I0
tp912
aa(lp913
(I0
I0
I1
I0
I0
I0
I0
tp914
a(I0
I0
I1
I0
I0
I1
I0
tp915
a(I0
I0
I1
I0
I0
I1
I0
tp916
a(I1
I1
I1
I0
I0
I0
I0
tp917
a(I1
I0
I1
I0
I0
I0
I0
tp918
a(I0
I0
I1
I0
I1
I0
I0
tp919
a(I0
I0
I1
I0
I0
I0
I0
tp920
aa(lp921
(I0
I0
I1
I0
I0
I0
I0
tp922
a(I0
I0
I1
I0
I0
I1
I0
tp923
a(I0
I0
I1
I0
I0
I1
I0
tp924
a(I1
I1
I1
I0
I0
I0
I0
tp925
a(I1
I0
I1
I0
I0
I0
I0
tp926
a(I0
I0
I0
I0
I1
I0
I0
tp927
a(I0
I0
I1
I0
I0
I0
I0
tp928
aa(lp929
(I0
I0
I1
I0
I0
I0
I0
tp930
a(I0
I0
I1
I1
I0
I0
I0
tp931
a(I0
I0
I1
I0
I0
I1
I0
tp932
a(I1
I1
I1
I0
I0
I0
I0
tp933
a(I1
I0
I1
I0
I0
I0
I0
tp934
a(I0
I0
I1
I0
I1
I0
I0
tp935
a(I0
I0
I1
I0
I0
I0
I0
tp936
aa(lp937
(I0
I0
I1
I0
I0
I0
I0
tp938
a(I0
I0
I1
I0
I0
I0
I0
tp939
a(I0
I0
I1
I0
I0
I1
I0
tp940
a(I1
I1
I1
I0
I0
I0
I0
tp941
a(I1
I0
I1
I0
I0
I0
I0
tp942
a(I0
I0
I1
I0
I1
I0
I0
tp943
a(I0
I0
I1
I0
I0
I0
I0
tp944
aa(lp945
(I1
I1
I1
I0
I0
I0
I0
tp946
a(I0
I0
I1
I0
I0
I1
I0
tp947
a(I0
I0
I1
I0
I0
I0
I0
tp948
a(I1
I1
I1
I0
I0
I0
I0
tp949
a(I1
I0
I1
I0
I0
I0
I0
tp950
a(I0
I0
I1
I0
I1
I1
I0
tp951
a(I0
I0
I1
I0
I0
I0
I0
tp952
aa(lp953
(I0
I0
I1
I0
I1
I0
I0
tp954
a(I0
I0
I1
I0
I0
I1
I0
tp955
a(I0
I0
I1
I0
I0
I0
I0
tp956
a(I1
I1
I1
I0
I0
I0
I0
tp957
a(I1
I0
I1
I0
I0
I0
I0
tp958
a(I0
I0
I1
I0
I1
I1
I0
tp959
a(I0
I0
I1
I0
I0
I0
I0
tp960
aa(lp961
(I1
I1
I1
I0
I1
I0
I0
tp962
a(I0
I0
I1
I0
I1
I1
I0
tp963
a(I0
I0
I1
I0
I0
I0
I0
tp964
a(I1
I1
I1
I0
I0
I0
I0
tp965
a(I1
I0
I1
I0
I0
I0
I0
tp966
a(I0
I0
I1
I0
I1
I0
I0
tp967
a(I0
I0
I1
I0
I0
I0
I0
tp968
aa(lp969
(I1
I1
I1
I0
I1
I0
I0
tp970
a(I0
I0
I1
I1
I0
I1
I0
tp971
a(I0
I0
I1
I0
I0
I0
I0
tp972
a(I1
I1
I1
I0
I0
I0
I0
tp973
a(I1
I0
I1
I0
I0
I0
I0
tp974
a(I0
I0
I1
I0
I1
I0
I0
tp975
a(I0
I0
I1
I0
I0
I0
I0
tp976
aa(lp977
(I1
I1
I1
I0
I1
I0
I0
tp978
a(I0
I0
I1
I0
I0
I1
I0
tp979
a(I0
I0
I1
I0
I0
I0
I0
tp980
a(I1
I1
I1
I0
I0
I0
I0
tp981
a(I1
I0
I1
I0
I0
I0
I0
tp982
a(I0
I0
I1
I0
I1
I0
I0
tp983
a(I0
I0
I1
I0
I0
I0
I0
tp984
aa(lp985
(I1
I1
I1
I0
I0
I0
I0
tp986
a(I0
I0
I1
I0
I1
I1
I0
tp987
a(I0
I0
I1
I0
I0
I0
I0
tp988
a(I1
I1
I1
I0
I0
I0
I0
tp989
a(I1
I0
I1
I0
I0
I0
I0
tp990
a(I0
I0
I1
I0
I1
I0
I0
tp991
a(I0
I0
I1
I0
I0
I0
I0
tp992
aa(lp993
(I1
I1
I1
I0
I0
I0
I0
tp994
a(I0
I0
I1
I0
I0
I1
I1
tp995
a(I0
I0
I1
I0
I0
I0
I0
tp996
a(I1
I1
I1
I0
I0
I0
I0
tp997
a(I1
I0
I1
I0
I0
I0
I0
tp998
a(I0
I0
I1
I0
I1
I0
I0
tp999
a(I0
I0
I1
I0
I0
I0
I0
tp1000
aa(lp1001
(I1
I1
I1
I0
I0
I0
I0
tp1002
a(I0
I0
I1
I1
I0
I1
I0
tp1003
a(I0
I0
I1
I0
I0
I0
I0
tp1004
a(I1
I1
I1
I0
I0
I0
I0
tp1005
a(I1
I0
I1
I0
I0
I0
I0
tp1006
a(I0
I0
I1
I0
I1
I0
I0
tp1007
a(I0
I0
I1
I0
I0
I0
I0
tp1008
aa(lp1009
(I1
I1
I1
I0
I0
I0
I0
tp1010
a(I0
I0
I1
I0
I1
I0
I0
tp1011
a(I0
I0
I1
I0
I0
I0
I0
tp1012
a(I1
I1
I1
I0
I0
I0
I0
tp1013
a(I1
I0
I1
I0
I0
I0
I0
tp1014
a(I0
I0
I1
I0
I1
I0
I0
tp1015
a(I0
I0
I1
I0
I0
I0
I0
tp1016
aa(lp1017
(I1
I1
I1
I0
I0
I0
I0
tp1018
a(I0
I0
I1
I0
I0
I1
I0
tp1019
a(I0
I0
I1
I0
I0
I0
I0
tp1020
a(I1
I1
I1
I0
I0
I0
I0
tp1021
a(I1
I0
I1
I0
I0
I0
I0
tp1022
a(I0
I0
I1
I0
I1
I0
I0
tp1023
a(I0
I0
I1
I0
I0
I0
I0
tp1024
aa(lp1025
(I0
I0
I1
I0
I1
I0
I0
tp1026
a(I0
I0
I1
I0
I0
I1
I0
tp1027
a(I0
I0
I1
I0
I0
I0
I0
tp1028
a(I1
I1
I1
I0
I0
I0
I0
tp1029
a(I1
I0
I1
I0
I0
I0
I0
tp1030
a(I0
I0
I1
I0
I1
I0
I0
tp1031
a(I0
I0
I1
I0
I0
I0
I0
tp1032
aa(lp1033
(I0
I0
I1
I0
I0
I1
I0
tp1034
a(I0
I0
I1
I0
I0
I1
I0
tp1035
a(I0
I0
I1
I0
I0
I0
I0
tp1036
a(I1
I1
I1
I0
I0
I0
I0
tp1037
a(I1
I0
I1
I0
I0
I0
I0
tp1038
a(I0
I0
I1
I0
I1
I0
I0
tp1039
a(I0
I0
I1
I0
I0
I0
I0
tp1040
aa(lp1041
(I1
I1
I1
I0
I0
I0
I0
tp1042
a(I0
I0
I1
I0
I0
I1
I0
tp1043
a(I0
I0
I1
I0
I0
I0
I0
tp1044
a(I0
I0
I1
I0
I1
I0
I0
tp1045
a(I1
I0
I1
I0
I0
I0
I0
tp1046
a(I0
I0
I1
I0
I1
I0
I0
tp1047
a(I0
I0
I1
I0
I0
I0
I0
tp1048
aa(lp1049
(I0
I0
I1
I0
I1
I0
I0
tp1050
a(I0
I0
I1
I0
I0
I1
I0
tp1051
a(I0
I0
I1
I0
I0
I0
I0
tp1052
a(I0
I0
I1
I0
I1
I0
I0
tp1053
a(I1
I0
I1
I0
I0
I0
I0
tp1054
a(I0
I0
I1
I0
I1
I0
I0
tp1055
a(I0
I0
I1
I0
I0
I0
I0
tp1056
aa(lp1057
(I1
I1
I1
I0
I0
I0
I0
tp1058
a(I0
I0
I1
I0
I0
I0
I0
tp1059
a(I0
I0
I1
I0
I0
I0
I0
tp1060
a(I1
I1
I1
I0
I0
I0
I0
tp1061
a(I1
I0
I1
I0
I0
I0
I0
tp1062
a(I0
I0
I1
I0
I1
I0
I0
tp1063
a(I0
I0
I1
I0
I0
I0
I0
tp1064
aa(lp1065
(I0
I0
I1
I0
I1
I0
I0
tp1066
a(I0
I0
I1
I0
I0
I0
I0
tp1067
a(I0
I0
I1
I0
I0
I0
I0
tp1068
a(I1
I1
I1
I0
I0
I0
I0
tp1069
a(I1
I0
I1
I0
I0
I0
I0
tp1070
a(I0
I0
I1
I0
I1
I0
I0
tp1071
a(I0
I0
I1
I0
I0
I0
I0
tp1072
aa(lp1073
(I0
I0
I1
I0
I0
I1
I0
tp1074
a(I0
I0
I1
I0
I0
I1
I0
tp1075
a(I0
I0
I1
I0
I0
I0
I0
tp1076
a(I0
I0
I1
I0
I1
I0
I0
tp1077
a(I1
I0
I1
I0
I0
I0
I0
tp1078
a(I0
I0
I1
I0
I1
I0
I0
tp1079
a(I0
I0
I1
I0
I0
I0
I0
tp1080
aa(lp1081
(I0
I0
I1
I0
I0
I1
I0
tp1082
a(I0
I0
I0
I0
I0
I1
I0
tp1083
a(I0
I0
I1
I0
I0
I0
I0
tp1084
a(I0
I0
I1
I0
I1
I0
I0
tp1085
a(I1
I0
I1
I0
I0
I0
I0
tp1086
a(I0
I0
I1
I0
I1
I0
I0
tp1087
a(I0
I0
I1
I0
I0
I0
I0
tp1088
aa(lp1089
(I1
I1
I1
I0
I0
I0
I0
tp1090
a(I0
I0
I1
I0
I0
I0
I0
tp1091
a(I0
I0
I1
I0
I0
I0
I0
tp1092
a(I0
I0
I1
I0
I1
I0
I0
tp1093
a(I1
I0
I1
I0
I0
I0
I0
tp1094
a(I0
I0
I1
I0
I1
I0
I0
tp1095
a(I0
I0
I1
I0
I0
I0
I0
tp1096
aa(lp1097
(I0
I0
I1
I0
I1
I0
I0
tp1098
a(I0
I0
I1
I0
I0
I0
I0
tp1099
a(I0
I0
I1
I0
I0
I0
I0
tp1100
a(I0
I0
I1
I0
I1
I0
I0
tp1101
a(I1
I0
I1
I0
I0
I0
I0
tp1102
a(I0
I0
I1
I0
I1
I0
I0
tp1103
a(I0
I0
I1
I0
I0
I0
I0
tp1104
aa(lp1105
(I0
I0
I1
I0
I0
I0
I0
tp1106
a(I0
I0
I1
I0
I1
I1
I0
tp1107
a(I0
I0
I1
I0
I0
I0
I0
tp1108
a(I1
I1
I1
I0
I0
I0
I0
tp1109
a(I1
I0
I1
I0
I0
I0
I0
tp1110
a(I0
I0
I1
I0
I1
I0
I0
tp1111
a(I0
I0
I1
I0
I0
I0
I0
tp1112
aa(lp1113
(I0
I0
I1
I0
I0
I0
I0
tp1114
a(I0
I0
I1
I1
I0
I1
I0
tp1115
a(I0
I0
I1
I0
I0
I0
I0
tp1116
a(I1
I1
I1
I0
I0
I0
I0
tp1117
a(I1
I0
I1
I0
I0
I0
I0
tp1118
a(I0
I0
I1
I0
I1
I0
I0
tp1119
a(I0
I0
I1
I0
I0
I0
I0
tp1120
aa(lp1121
(I0
I0
I1
I0
I0
I0
I0
tp1122
a(I0
I0
I1
I0
I1
I0
I0
tp1123
a(I0
I0
I1
I0
I0
I0
I0
tp1124
a(I1
I1
I1
I0
I0
I0
I0
tp1125
a(I1
I0
I1
I0
I0
I0
I0
tp1126
a(I0
I0
I1
I0
I1
I0
I0
tp1127
a(I0
I0
I1
I0
I0
I0
I0
tp1128
aa(lp1129
(I0
I0
I1
I0
I0
I0
I0
tp1130
a(I0
I0
I1
I0
I0
I1
I0
tp1131
a(I0
I0
I1
I0
I0
I0
I0
tp1132
a(I1
I1
I1
I0
I0
I0
I0
tp1133
a(I1
I0
I1
I0
I0
I0
I0
tp1134
a(I0
I0
I1
I0
I1
I0
I0
tp1135
a(I0
I0
I1
I0
I0
I0
I0
tp1136
aa(lp1137
(I0
I0
I1
I0
I0
I0
I0
tp1138
a(I0
I0
I1
I0
I0
I1
I0
tp1139
a(I0
I0
I1
I0
I0
I0
I0
tp1140
a(I0
I0
I1
I0
I1
I0
I0
tp1141
a(I1
I0
I1
I0
I0
I0
I0
tp1142
a(I0
I0
I1
I0
I1
I0
I0
tp1143
a(I0
I0
I1
I0
I0
I0
I0
tp1144
aa(lp1145
(I0
I0
I1
I0
I0
I0
I0
tp1146
a(I0
I0
I1
I0
I0
I1
I0
tp1147
a(I0
I0
I1
I0
I0
I0
I0
tp1148
a(I0
I0
I1
I0
I1
I0
I0
tp1149
a(I1
I0
I0
I0
I0
I0
I0
tp1150
a(I0
I0
I1
I0
I1
I0
I0
tp1151
a(I0
I0
I1
I0
I0
I0
I0
tp1152
aa(lp1153
(I0
I0
I1
I0
I0
I0
I0
tp1154
a(I0
I0
I1
I0
I0
I0
I0
tp1155
a(I0
I0
I1
I0
I0
I0
I0
tp1156
a(I1
I1
I1
I0
I0
I0
I0
tp1157
a(I1
I0
I1
I0
I0
I0
I0
tp1158
a(I0
I0
I1
I0
I1
I0
I0
tp1159
a(I0
I0
I1
I0
I0
I0
I0
tp1160
aa(lp1161
(I0
I0
I1
I0
I0
I0
I0
tp1162
a(I0
I0
I1
I1
I0
I0
I0
tp1163
a(I0
I0
I1
I0
I0
I0
I0
tp1164
a(I0
I0
I1
I0
I1
I0
I0
tp1165
a(I1
I0
I1
I0
I0
I0
I0
tp1166
a(I0
I0
I1
I0
I1
I0
I0
tp1167
a(I0
I0
I1
I0
I0
I0
I0
tp1168
aa(lp1169
(I0
I0
I1
I0
I0
I0
I0
tp1170
a(I0
I0
I1
I0
I0
I0
I0
tp1171
a(I0
I0
I1
I0
I0
I0
I0
tp1172
a(I0
I0
I1
I0
I1
I0
I0
tp1173
a(I1
I0
I1
I0
I0
I0
I0
tp1174
a(I0
I0
I1
I0
I1
I0
I0
tp1175
a(I0
I0
I1
I0
I0
I0
I0
tp1176
aa(lp1177
(I1
I1
I1
I0
I0
I0
I0
tp1178
a(I0
I0
I1
I0
I0
I1
I0
tp1179
a(I0
I0
I1
I0
I0
I0
I0
tp1180
a(I1
I1
I1
I0
I0
I0
I0
tp1181
a(I1
I0
I1
I0
I0
I0
I0
tp1182
a(I0
I0
I1
I0
I0
I0
I0
tp1183
a(I0
I0
I1
I0
I0
I0
I0
tp1184
aa(lp1185
(I0
I0
I1
I0
I1
I0
I0
tp1186
a(I0
I0
I1
I0
I0
I1
I0
tp1187
a(I0
I0
I1
I0
I0
I0
I0
tp1188
a(I1
I1
I1
I0
I0
I0
I0
tp1189
a(I1
I0
I1
I0
I0
I0
I0
tp1190
a(I0
I0
I1
I0
I0
I0
I0
tp1191
a(I0
I0
I1
I0
I0
I0
I0
tp1192
aa(lp1193
(I0
I0
I1
I0
I1
I0
I0
tp1194
a(I0
I0
I1
I0
I0
I1
I0
tp1195
a(I0
I0
I1
I0
I0
I0
I0
tp1196
a(I1
I1
I1
I0
I0
I0
I0
tp1197
a(I1
I0
I0
I0
I0
I0
I0
tp1198
a(I0
I0
I1
I0
I0
I0
I0
tp1199
a(I0
I0
I1
I0
I0
I0
I0
tp1200
aa(lp1201
(I1
I1
I1
I0
I0
I0
I0
tp1202
a(I0
I0
I1
I0
I0
I1
I0
tp1203
a(I0
I0
I1
I0
I0
I0
I0
tp1204
a(I0
I0
I1
I0
I1
I0
I0
tp1205
a(I1
I0
I1
I0
I0
I0
I0
tp1206
a(I0
I0
I1
I0
I0
I0
I0
tp1207
a(I0
I0
I1
I0
I0
I0
I0
tp1208
aa(lp1209
(I0
I0
I1
I0
I1
I0
I0
tp1210
a(I0
I0
I1
I0
I0
I1
I0
tp1211
a(I0
I0
I1
I0
I0
I0
I0
tp1212
a(I0
I0
I1
I0
I1
I0
I0
tp1213
a(I1
I0
I1
I0
I0
I0
I0
tp1214
a(I0
I0
I1
I0
I0
I0
I0
tp1215
a(I0
I0
I1
I0
I0
I0
I0
tp1216
aa(lp1217
(I1
I1
I1
I0
I0
I0
I0
tp1218
a(I0
I0
I1
I1
I0
I1
I0
tp1219
a(I0
I0
I1
I0
I0
I0
I0
tp1220
a(I0
I0
I1
I0
I0
I0
I0
tp1221
a(I1
I0
I1
I0
I0
I0
I0
tp1222
a(I0
I0
I1
I0
I1
I0
I0
tp1223
a(I0
I0
I1
I0
I0
I0
I0
tp1224
aa(lp1225
(I1
I1
I1
I1
I0
I0
I0
tp1226
a(I0
I0
I1
I0
I0
I1
I0
tp1227
a(I0
I0
I1
I0
I0
I0
I0
tp1228
a(I0
I0
I1
I0
I0
I0
I0
tp1229
a(I1
I0
I1
I0
I0
I0
I0
tp1230
a(I0
I0
I1
I0
I1
I0
I0
tp1231
a(I0
I0
I1
I0
I0
I0
I0
tp1232
aa(lp1233
(I1
I1
I1
I0
I0
I0
I0
tp1234
a(I0
I0
I1
I0
I1
I0
I0
tp1235
a(I0
I0
I1
I0
I0
I0
I0
tp1236
a(I0
I0
I1
I0
I0
I0
I0
tp1237
a(I1
I0
I1
I0
I0
I0
I0
tp1238
a(I0
I0
I1
I0
I1
I0
I0
tp1239
a(I0
I0
I1
I0
I0
I0
I0
tp1240
aa(lp1241
(I1
I1
I1
I0
I0
I0
I0
tp1242
a(I0
I0
I1
I0
I0
I1
I0
tp1243
a(I0
I0
I1
I0
I0
I0
I0
tp1244
a(I0
I0
I1
I0
I0
I0
I0
tp1245
a(I1
I0
I1
I0
I0
I0
I0
tp1246
a(I0
I0
I1
I0
I1
I0
I0
tp1247
a(I0
I0
I1
I0
I0
I0
I0
tp1248
aa(lp1249
(I0
I0
I1
I0
I1
I0
I0
tp1250
a(I0
I0
I1
I0
I0
I1
I0
tp1251
a(I0
I0
I1
I0
I0
I0
I0
tp1252
a(I0
I0
I1
I0
I0
I0
I0
tp1253
a(I1
I0
I1
I0
I0
I0
I0
tp1254
a(I0
I0
I1
I0
I1
I0
I0
tp1255
a(I0
I0
I1
I0
I0
I0
I0
tp1256
aa(lp1257
(I1
I1
I1
I0
I0
I0
I0
tp1258
a(I0
I0
I1
I0
I0
I1
I0
tp1259
a(I0
I0
I1
I0
I0
I0
I0
tp1260
a(I0
I0
I1
I0
I0
I0
I0
tp1261
a(I1
I0
I0
I0
I0
I0
I0
tp1262
a(I0
I0
I1
I0
I1
I0
I0
tp1263
a(I0
I0
I1
I0
I0
I0
I0
tp1264
aa(lp1265
(I1
I1
I0
I0
I0
I0
I0
tp1266
a(I0
I0
I1
I0
I0
I1
I0
tp1267
a(I0
I0
I1
I0
I0
I0
I0
tp1268
a(I0
I0
I1
I0
I0
I0
I0
tp1269
a(I1
I0
I1
I0
I0
I0
I0
tp1270
a(I0
I0
I1
I0
I1
I0
I0
tp1271
a(I0
I0
I1
I0
I0
I0
I0
tp1272
aa(lp1273
(I0
I0
I1
I0
I1
I0
I0
tp1274
a(I0
I0
I1
I0
I0
I1
I0
tp1275
a(I0
I0
I1
I0
I0
I0
I0
tp1276
a(I0
I0
I1
I0
I0
I0
I0
tp1277
a(I1
I0
I0
I0
I0
I0
I0
tp1278
a(I0
I0
I1
I0
I1
I0
I0
tp1279
a(I0
I0
I1
I0
I0
I0
I0
tp1280
aa(lp1281
(I0
I0
I1
I0
I1
I0
I0
tp1282
a(I0
I0
I1
I0
I0
I1
I0
tp1283
a(I0
I0
I1
I0
I0
I0
I0
tp1284
a(I0
I0
I1
I0
I0
I0
I0
tp1285
a(I1
I0
I1
I0
I0
I0
I0
tp1286
a(I0
I0
I0
I0
I1
I0
I0
tp1287
a(I0
I0
I1
I0
I0
I0
I0
tp1288
aa(lp1289
(I1
I1
I1
I0
I0
I0
I0
tp1290
a(I0
I0
I1
I1
I0
I0
I0
tp1291
a(I0
I0
I1
I0
I0
I0
I0
tp1292
a(I0
I0
I1
I0
I0
I0
I0
tp1293
a(I1
I0
I1
I0
I0
I0
I0
tp1294
a(I0
I0
I1
I0
I1
I0
I0
tp1295
a(I0
I0
I1
I0
I0
I0
I0
tp1296
aa(lp1297
(I1
I1
I1
I0
I0
I0
I0
tp1298
a(I0
I0
I1
I0
I0
I0
I0
tp1299
a(I0
I0
I1
I0
I0
I0
I0
tp1300
a(I0
I0
I1
I0
I0
I0
I0
tp1301
a(I1
I0
I1
I0
I0
I0
I0
tp1302
a(I0
I0
I1
I0
I1
I0
I0
tp1303
a(I0
I0
I1
I0
I0
I0
I0
tp1304
aa(lp1305
(I0
I0
I1
I0
I1
I0
I0
tp1306
a(I0
I0
I1
I0
I0
I0
I0
tp1307
a(I0
I0
I1
I0
I0
I0
I0
tp1308
a(I0
I0
I1
I0
I0
I0
I0
tp1309
a(I1
I0
I1
I0
I0
I0
I0
tp1310
a(I0
I0
I1
I0
I1
I0
I0
tp1311
a(I0
I0
I1
I0
I0
I0
I0
tp1312
aa(lp1313
(I0
I0
I1
I0
I0
I0
I0
tp1314
a(I0
I0
I1
I0
I0
I1
I0
tp1315
a(I0
I0
I1
I0
I0
I0
I0
tp1316
a(I1
I1
I1
I0
I0
I0
I0
tp1317
a(I1
I0
I1
I0
I0
I0
I0
tp1318
a(I0
I0
I1
I0
I0
I0
I0
tp1319
a(I0
I0
I1
I0
I0
I0
I0
tp1320
aa(lp1321
(I0
I0
I1
I0
I0
I0
I0
tp1322
a(I0
I0
I1
I0
I0
I1
I0
tp1323
a(I0
I0
I1
I0
I0
I0
I0
tp1324
a(I1
I1
I1
I0
I0
I0
I0
tp1325
a(I1
I0
I0
I0
I0
I0
I0
tp1326
a(I0
I0
I1
I0
I0
I0
I0
tp1327
a(I0
I0
I1
I0
I0
I0
I0
tp1328
aa(lp1329
(I0
I0
I1
I0
I0
I0
I0
tp1330
a(I0
I0
I1
I0
I1
I0
I0
tp1331
a(I0
I0
I1
I0
I0
I0
I0
tp1332
a(I0
I0
I1
I0
I1
I0
I0
tp1333
a(I1
I0
I1
I0
I0
I0
I0
tp1334
a(I0
I0
I1
I0
I0
I0
I0
tp1335
a(I0
I0
I1
I0
I0
I0
I0
tp1336
aa(lp1337
(I0
I0
I1
I0
I0
I0
I0
tp1338
a(I0
I0
I1
I0
I0
I1
I0
tp1339
a(I0
I0
I1
I0
I0
I0
I0
tp1340
a(I0
I0
I1
I0
I1
I0
I0
tp1341
a(I1
I0
I1
I0
I0
I0
I0
tp1342
a(I0
I0
I1
I0
I0
I0
I0
tp1343
a(I0
I0
I1
I0
I0
I0
I0
tp1344
aa(lp1345
(I0
I0
I1
I0
I0
I0
I0
tp1346
a(I0
I0
I1
I0
I1
I0
I0
tp1347
a(I0
I0
I1
I0
I0
I0
I0
tp1348
a(I0
I0
I1
I0
I0
I0
I0
tp1349
a(I1
I0
I1
I0
I0
I0
I0
tp1350
a(I0
I0
I1
I0
I1
I0
I0
tp1351
a(I0
I0
I1
I0
I0
I0
I0
tp1352
aa(lp1353
(I0
I0
I1
I0
I0
I0
I0
tp1354
a(I0
I0
I1
I0
I0
I1
I0
tp1355
a(I0
I0
I1
I0
I0
I0
I0
tp1356
a(I0
I0
I1
I0
I0
I0
I0
tp1357
a(I1
I0
I1
I0
I0
I0
I0
tp1358
a(I0
I0
I1
I0
I1
I0
I0
tp1359
a(I0
I0
I1
I0
I0
I0
I0
tp1360
aa(lp1361
(I0
I0
I1
I0
I0
I0
I0
tp1362
a(I0
I0
I1
I0
I0
I1
I0
tp1363
a(I0
I0
I1
I0
I0
I0
I0
tp1364
a(I0
I0
I1
I0
I0
I0
I0
tp1365
a(I1
I0
I1
I0
I0
I0
I0
tp1366
a(I0
I0
I0
I0
I1
I0
I0
tp1367
a(I0
I0
I1
I0
I0
I0
I0
tp1368
aa(lp1369
(I1
I1
I1
I0
I0
I0
I0
tp1370
a(I0
I0
I1
I0
I0
I1
I0
tp1371
a(I0
I0
I1
I0
I0
I0
I0
tp1372
a(I0
I0
I1
I0
I0
I0
I0
tp1373
a(I1
I0
I1
I0
I0
I0
I0
tp1374
a(I0
I0
I1
I0
I0
I0
I0
tp1375
a(I0
I0
I1
I0
I0
I0
I0
tp1376
aa(lp1377
(I0
I0
I1
I0
I1
I0
I0
tp1378
a(I0
I0
I1
I0
I0
I1
I0
tp1379
a(I0
I0
I1
I0
I0
I0
I0
tp1380
a(I0
I0
I1
I0
I0
I0
I0
tp1381
a(I1
I0
I1
I0
I0
I0
I0
tp1382
a(I0
I0
I1
I0
I0
I0
I0
tp1383
a(I0
I0
I1
I0
I0
I0
I0
tp1384
aa(lp1385
(I0
I0
I1
I0
I0
I0
I0
tp1386
a(I0
I0
I1
I0
I0
I1
I0
tp1387
a(I0
I0
I1
I0
I0
I0
I0
tp1388
a(I0
I0
I1
I0
I0
I0
I0
tp1389
a(I1
I0
I1
I0
I0
I0
I0
tp1390
a(I0
I0
I1
I0
I0
I1
I0
tp1391
a(I0
I0
I1
I0
I0
I0
I0
tp1392
aa(lp1393
(I0
I0
I1
I0
I0
I0
I0
tp1394
a(I0
I0
I1
I0
I0
I0
I0
tp1395
a(I0
I0
I1
I0
I0
I0
I0
tp1396
a(I0
I0
I1
I0
I0
I0
I0
tp1397
a(I1
I0
I1
I0
I0
I0
I0
tp1398
a(I0
I0
I1
I0
I1
I0
I0
tp1399
a(I0
I0
I1
I0
I0
I0
I0
tp1400
aa(lp1401
(I0
I0
I1
I0
I0
I0
I0
tp1402
a(I0
I0
I1
I0
I0
I0
I0
tp1403
a(I0
I0
I1
I0
I0
I0
I0
tp1404
a(I0
I0
I1
I0
I0
I0
I0
tp1405
a(I1
I0
I1
I0
I0
I0
I0
tp1406
a(I0
I0
I0
I0
I1
I0
I0
tp1407
a(I0
I0
I1
I0
I0
I0
I0
tp1408
aa(lp1409
(I0
I0
I1
I0
I0
I1
I0
tp1410
a(I0
I0
I1
I0
I0
I1
I0
tp1411
a(I0
I0
I1
I0
I0
I0
I0
tp1412
a(I0
I0
I1
I0
I0
I0
I0
tp1413
a(I1
I0
I1
I0
I0
I0
I0
tp1414
a(I0
I0
I1
I0
I0
I0
I0
tp1415
a(I0
I0
I1
I0
I0
I0
I0
tp1416
aa(lp1417
(I1
I1
I1
I0
I0
I0
I0
tp1418
a(I0
I0
I1
I0
I0
I0
I0
tp1419
a(I0
I0
I1
I0
I0
I0
I0
tp1420
a(I0
I0
I1
I0
I0
I0
I0
tp1421
a(I1
I0
I1
I0
I0
I0
I0
tp1422
a(I0
I0
I1
I0
I0
I0
I0
tp1423
a(I0
I0
I1
I0
I0
I0
I0
tp1424
aa(lp1425
(I0
I0
I1
I0
I1
I0
I0
tp1426
a(I0
I0
I1
I0
I0
I0
I0
tp1427
a(I0
I0
I1
I0
I0
I0
I0
tp1428
a(I0
I0
I1
I0
I0
I0
I0
tp1429
a(I1
I0
I1
I0
I0
I0
I0
tp1430
a(I0
I0
I1
I0
I0
I0
I0
tp1431
a(I0
I0
I1
I0
I0
I0
I0
tp1432
aa(lp1433
(I0
I0
I1
I0
I0
I0
I0
tp1434
a(I0
I0
I1
I0
I1
I1
I0
tp1435
a(I0
I0
I1
I0
I0
I0
I0
tp1436
a(I0
I0
I1
I0
I0
I0
I0
tp1437
a(I1
I0
I1
I0
I0
I0
I0
tp1438
a(I0
I0
I1
I0
I0
I0
I0
tp1439
a(I0
I0
I1
I0
I0
I0
I0
tp1440
aa(lp1441
(I0
I0
I1
I0
I0
I0
I0
tp1442
a(I0
I0
I1
I1
I0
I1
I0
tp1443
a(I0
I0
I1
I0
I0
I0
I0
tp1444
a(I0
I0
I1
I0
I0
I0
I0
tp1445
a(I1
I0
I1
I0
I0
I0
I0
tp1446
a(I0
I0
I1
I0
I0
I0
I0
tp1447
a(I0
I0
I1
I0
I0
I0
I0
tp1448
aa(lp1449
(I0
I0
I1
I0
I0
I0
I0
tp1450
a(I0
I0
I1
I0
I0
I1
I0
tp1451
a(I0
I0
I1
I0
I0
I0
I0
tp1452
a(I0
I0
I1
I0
I0
I0
I0
tp1453
a(I1
I0
I1
I0
I0
I0
I0
tp1454
a(I0
I0
I1
I0
I0
I0
I0
tp1455
a(I0
I0
I1
I0
I0
I0
I0
tp1456
aa(lp1457
(I0
I0
I1
I0
I0
I0
I0
tp1458
a(I0
I0
I0
I0
I0
I0
I0
tp1459
a(I0
I0
I1
I0
I0
I0
I0
tp1460
a(I0
I0
I1
I0
I0
I0
I0
tp1461
a(I1
I1
I1
I0
I0
I0
I0
tp1462
a(I0
I0
I1
I0
I0
I0
I0
tp1463
a(I0
I0
I1
I0
I0
I0
I0
tp1464
aa(lp1465
(I0
I0
I1
I0
I0
I0
I0
tp1466
a(I1
I0
I1
I0
I0
I0
I0
tp1467
a(I0
I0
I1
I0
I0
I0
I0
tp1468
a(I0
I0
I1
I0
I0
I0
I0
tp1469
a(I1
I0
I1
I0
I0
I0
I0
tp1470
a(I0
I0
I1
I0
I0
I0
I0
tp1471
a(I0
I0
I1
I0
I0
I0
I0
tp1472
aa(lp1473
(I0
I0
I1
I0
I0
I0
I0
tp1474
a(I0
I0
I1
I1
I0
I0
I0
tp1475
a(I0
I0
I1
I0
I0
I0
I0
tp1476
a(I0
I0
I1
I0
I0
I0
I0
tp1477
a(I1
I0
I1
I0
I0
I0
I0
tp1478
a(I0
I0
I1
I0
I0
I0
I0
tp1479
a(I0
I0
I1
I0
I0
I0
I0
tp1480
aa(lp1481
(I0
I0
I1
I0
I0
I0
I0
tp1482
a(I0
I0
I1
I0
I0
I0
I0
tp1483
a(I0
I0
I1
I0
I0
I0
I0
tp1484
a(I0
I0
I1
I0
I0
I0
I0
tp1485
a(I1
I0
I1
I0
I0
I0
I0
tp1486
a(I0
I0
I1
I0
I0
I0
I0
tp1487
a(I0
I0
I1
I0
I0
I0
I0
tp1488
aa(lp1489
(I0
I0
I1
I0
I0
I0
I0
tp1490
a(I0
I0
I1
I0
I0
I0
I0
tp1491
a(I0
I0
I1
I0
I0
I0
I0
tp1492
a(I0
I0
I0
I0
I0
I0
I0
tp1493
a(I1
I0
I1
I0
I0
I0
I0
tp1494
a(I0
I0
I1
I0
I0
I0
I0
tp1495
a(I0
I0
I1
I0
I0
I0
I0
tp1496
aa(lp1497
(I0
I0
I1
I0
I0
I0
I0
tp1498
a(I0
I0
I1
I0
I0
I0
I0
tp1499
a(I0
I0
I1
I0
I0
I0
I0
tp1500
a(I0
I0
I0
I0
I0
I0
I0
tp1501
a(I1
I0
I0
I0
I0
I0
I0
tp1502
a(I0
I0
I1
I0
I0
I0
I0
tp1503
a(I0
I0
I1
I0
I0
I0
I0
tp1504
aa(lp1505
(I0
I0
I1
I0
I0
I0
I0
tp1506
a(I0
I0
I1
I0
I0
I1
I0
tp1507
a(I0
I0
I1
I0
I0
I0
I0
tp1508
a(I0
I0
I1
I0
I1
I0
I0
tp1509
a(I0
I0
I1
I0
I0
I0
I0
tp1510
a(I0
I0
I1
I0
I0
I0
I0
tp1511
a(I0
I0
I1
I0
I0
I0
I0
tp1512
aa(lp1513
(I0
I0
I1
I0
I0
I0
I0
tp1514
a(I0
I0
I0
I0
I0
I1
I0
tp1515
a(I0
I0
I1
I0
I0
I0
I0
tp1516
a(I0
I0
I1
I0
I1
I0
I0
tp1517
a(I0
I0
I1
I0
I0
I0
I0
tp1518
a(I0
I0
I1
I0
I0
I0
I0
tp1519
a(I0
I0
I1
I0
I0
I0
I0
tp1520
aa(lp1521
(I0
I0
I1
I0
I0
I0
I0
tp1522
a(I0
I0
I1
I0
I0
I0
I0
tp1523
a(I0
I0
I1
I0
I0
I0
I0
tp1524
a(I0
I0
I1
I0
I0
I0
I0
tp1525
a(I0
I1
I1
I0
I0
I0
I0
tp1526
a(I0
I0
I1
I0
I0
I0
I0
tp1527
a(I0
I0
I1
I0
I0
I0
I0
tp1528
aa(lp1529
(I0
I0
I1
I0
I0
I0
I0
tp1530
a(I0
I0
I1
I0
I0
I1
I0
tp1531
a(I0
I0
I1
I0
I0
I0
I0
tp1532
a(I0
I0
I1
I0
I0
I0
I0
tp1533
a(I0
I0
I1
I0
I0
I0
I0
tp1534
a(I0
I0
I1
I0
I1
I0
I0
tp1535
a(I0
I0
I1
I0
I0
I0
I0
tp1536
aa(lp1537
(I0
I0
I1
I0
I1
I0
I0
tp1538
a(I0
I0
I1
I0
I0
I1
I0
tp1539
a(I0
I0
I1
I0
I0
I0
I0
tp1540
a(I0
I0
I1
I0
I0
I0
I0
tp1541
a(I0
I0
I1
I0
I0
I0
I0
tp1542
a(I0
I0
I1
I0
I0
I0
I0
tp1543
a(I0
I0
I1
I0
I0
I0
I0
tp1544
aa(lp1545
(I0
I0
I1
I0
I0
I0
I0
tp1546
a(I0
I0
I1
I0
I0
I1
I0
tp1547
a(I0
I0
I1
I0
I0
I0
I0
tp1548
a(I0
I0
I1
I0
I0
I0
I0
tp1549
a(I0
I0
I1
I0
I0
I0
I0
tp1550
a(I0
I0
I0
I0
I1
I0
I0
tp1551
a(I0
I0
I1
I0
I0
I0
I0
tp1552
aa(lp1553
(I0
I0
I1
I0
I0
I0
I0
tp1554
a(I0
I0
I1
I0
I0
I1
I0
tp1555
a(I0
I0
I1
I0
I0
I0
I0
tp1556
a(I0
I0
I1
I0
I0
I1
I0
tp1557
a(I0
I0
I1
I0
I0
I0
I0
tp1558
a(I0
I0
I1
I0
I0
I0
I0
tp1559
a(I0
I0
I1
I0
I0
I0
I0
tp1560
aa(lp1561
(I0
I0
I1
I0
I0
I0
I0
tp1562
a(I0
I0
I1
I1
I0
I0
I0
tp1563
a(I0
I0
I1
I0
I0
I0
I0
tp1564
a(I0
I0
I1
I0
I0
I0
I0
tp1565
a(I0
I0
I1
I0
I0
I0
I0
tp1566
a(I0
I0
I1
I0
I1
I0
I0
tp1567
a(I0
I0
I1
I0
I0
I0
I0
tp1568
aa(lp1569
(I1
I1
I1
I0
I0
I0
I0
tp1570
a(I0
I0
I1
I0
I0
I0
I0
tp1571
a(I0
I0
I1
I0
I0
I0
I0
tp1572
a(I0
I0
I1
I0
I0
I0
I0
tp1573
a(I0
I0
I1
I0
I0
I0
I0
tp1574
a(I0
I0
I1
I0
I0
I0
I0
tp1575
a(I0
I0
I1
I0
I0
I0
I0
tp1576
aa(lp1577
(I0
I0
I1
I0
I0
I0
I0
tp1578
a(I0
I0
I1
I0
I0
I0
I0
tp1579
a(I0
I0
I1
I0
I0
I0
I0
tp1580
a(I0
I0
I1
I0
I0
I0
I0
tp1581
a(I0
I0
I1
I0
I0
I0
I0
tp1582
a(I0
I0
I1
I0
I1
I0
I0
tp1583
a(I0
I0
I1
I0
I0
I0
I0
tp1584
aa(lp1585
(I0
I0
I1
I0
I0
I0
I0
tp1586
a(I0
I0
I1
I0
I0
I0
I0
tp1587
a(I0
I0
I1
I0
I0
I0
I0
tp1588
a(I0
I0
I1
I0
I0
I0
I0
tp1589
a(I0
I0
I1
I0
I0
I0
I0
tp1590
a(I0
I0
I0
I0
I1
I0
I0
tp1591
a(I0
I0
I1
I0
I0
I0
I0
tp1592
aa(lp1593
(I0
I0
I1
I0
I0
I0
I0
tp1594
a(I0
I0
I1
I1
I0
I1
I0
tp1595
a(I0
I0
I1
I0
I0
I0
I0
tp1596
a(I0
I0
I1
I0
I0
I0
I0
tp1597
a(I0
I0
I1
I0
I0
I0
I0
tp1598
a(I0
I0
I1
I0
I0
I0
I0
tp1599
a(I0
I0
I1
I0
I0
I0
I0
tp1600
aa(lp1601
(I0
I0
I1
I0
I0
I0
I0
tp1602
a(I0
I0
I1
I0
I0
I1
I0
tp1603
a(I0
I0
I1
I0
I0
I0
I0
tp1604
a(I0
I0
I1
I0
I0
I0
I0
tp1605
a(I0
I0
I1
I0
I0
I0
I0
tp1606
a(I0
I0
I1
I0
I0
I0
I0
tp1607
a(I0
I0
I1
I0
I0
I0
I0
tp1608
aa(lp1609
(I0
I0
I1
I0
I0
I0
I0
tp1610
a(I0
I1
I1
I1
I0
I1
I0
tp1611
a(I0
I0
I1
I0
I0
I0
I0
tp1612
a(I0
I0
I1
I0
I0
I0
I0
tp1613
a(I0
I0
I1
I0
I0
I0
I0
tp1614
a(I0
I0
I1
I0
I0
I0
I0
tp1615
a(I0
I0
I1
I0
I0
I0
I0
tp1616
aa(lp1617
(I0
I0
I1
I0
I0
I0
I0
tp1618
a(I0
I1
I1
I0
I0
I1
I0
tp1619
a(I0
I0
I1
I0
I0
I0
I0
tp1620
a(I0
I0
I1
I0
I0
I0
I0
tp1621
a(I0
I0
I1
I0
I0
I0
I0
tp1622
a(I0
I0
I1
I0
I0
I0
I0
tp1623
a(I0
I0
I1
I0
I0
I0
I0
tp1624
aa(lp1625
(I0
I0
I1
I0
I0
I0
I0
tp1626
a(I0
I0
I1
I1
I0
I0
I0
tp1627
a(I0
I0
I1
I0
I0
I0
I0
tp1628
a(I0
I0
I1
I0
I0
I0
I0
tp1629
a(I0
I0
I1
I0
I0
I0
I0
tp1630
a(I0
I0
I1
I0
I0
I0
I0
tp1631
a(I0
I0
I1
I0
I0
I0
I0
tp1632
aa(lp1633
(I0
I0
I1
I0
I0
I0
I0
tp1634
a(I0
I0
I1
I0
I0
I0
I0
tp1635
a(I0
I0
I1
I0
I0
I0
I0
tp1636
a(I0
I0
I1
I0
I0
I0
I0
tp1637
a(I0
I0
I1
I0
I0
I0
I0
tp1638
a(I0
I0
I1
I0
I0
I0
I0
tp1639
a(I0
I0
I1
I0
I0
I0
I0
tp1640
aa(lp1641
(I1
I0
I1
I1
I0
I1
I0
tp1642
a(I0
I1
I1
I0
I1
I0
I0
tp1643
a(I0
I0
I0
I0
I0
I0
I0
tp1644
a(I0
I0
I1
I0
I1
I0
I0
tp1645
a(I1
I0
I1
I0
I0
I0
I0
tp1646
a(I0
I0
I1
I0
I1
I1
I1
tp1647
a(I0
I0
I0
I0
I1
I1
I0
tp1648
aa(lp1649
(I1
I0
I1
I1
I0
I0
I1
tp1650
a(I0
I0
I1
I1
I1
I0
I0
tp1651
a(I0
I0
I0
I0
I0
I0
I0
tp1652
a(I0
I0
I0
I1
I1
I1
I0
tp1653
a(I1
I0
I1
I0
I0
I0
I0
tp1654
a(I0
I0
I1
I1
I1
I1
I1
tp1655
a(I0
I0
I0
I0
I1
I1
I0
tp1656
aa(lp1657
(I0
I1
I1
I0
I1
I0
I0
tp1658
a(I0
I1
I1
I1
I1
I1
I0
tp1659
a(I0
I0
I0
I0
I0
I0
I0
tp1660
a(I0
I0
I0
I1
I1
I1
I0
tp1661
a(I1
I0
I1
I0
I0
I0
I0
tp1662
a(I0
I0
I1
I0
I1
I0
I0
tp1663
a(I0
I0
I0
I0
I0
I1
I0
tp1664
aa(lp1665
(I0
I0
I1
I0
I1
I1
I0
tp1666
a(I0
I0
I1
I0
I1
I0
I0
tp1667
a(I0
I0
I0
I0
I0
I0
I0
tp1668
a(I1
I0
I0
I0
I1
I1
I0
tp1669
a(I0
I1
I1
I0
I0
I0
I0
tp1670
a(I0
I0
I1
I1
I1
I1
I1
tp1671
a(I0
I0
I0
I0
I0
I1
I0
tp1672
aa(lp1673
(I1
I0
I1
I1
I0
I1
I0
tp1674
a(I0
I1
I1
I0
I1
I0
I0
tp1675
a(I0
I0
I0
I0
I0
I0
I0
tp1676
a(I0
I0
I0
I1
I1
I1
I0
tp1677
a(I1
I0
I1
I0
I0
I0
I0
tp1678
a(I0
I0
I0
I1
I1
I1
I1
tp1679
a(I0
I0
I0
I0
I1
I1
I0
tp1680
aa(lp1681
(I1
I0
I1
I1
I1
I1
I0
tp1682
a(I0
I1
I1
I0
I1
I1
I0
tp1683
a(I0
I0
I0
I0
I0
I0
I0
tp1684
a(I0
I0
I0
I1
I1
I1
I0
tp1685
a(I1
I0
I1
I1
I0
I1
I0
tp1686
a(I0
I0
I1
I0
I1
I0
I0
tp1687
a(I0
I0
I0
I0
I1
I1
I0
tp1688
aa(lp1689
(I0
I0
I1
I1
I0
I1
I0
tp1690
a(I0
I1
I0
I0
I1
I0
I0
tp1691
a(I0
I0
I0
I0
I0
I0
I0
tp1692
a(I0
I0
I0
I1
I1
I1
I0
tp1693
a(I1
I0
I1
I0
I0
I0
I0
tp1694
a(I0
I0
I1
I1
I1
I1
I1
tp1695
a(I0
I0
I0
I0
I1
I1
I0
tp1696
aa(lp1697
(I0
I0
I1
I1
I0
I1
I0
tp1698
a(I0
I1
I1
I1
I1
I0
I0
tp1699
a(I0
I0
I0
I0
I0
I0
I0
tp1700
a(I0
I0
I0
I1
I1
I1
I0
tp1701
a(I1
I0
I1
I0
I0
I0
I0
tp1702
a(I0
I0
I1
I1
I1
I1
I1
tp1703
a(I0
I0
I0
I0
I1
I1
I0
tp1704
aa(lp1705
(F0.9307046685807068
F103.77194396322894
tp1706
a(F0.930351163748677
F99.74318741470114
tp1707
a(F0.9300579585865352
F98.07699467098725
tp1708
a(F0.9300274527080503
F93.95058454475534
tp1709
a(F0.9299849394447594
F93.85115714212314
tp1710
a(F0.929968751682167
F93.35345275789598
tp1711
a(F0.9296325020342551
F92.35349002727713
tp1712
a(F0.9282941068193237
F91.78075416025429
tp1713
a(F0.9270562693163681
F91.513256514919
tp1714
a(F0.927028998690907
F91.51271202219579
tp1715
a(F0.9264926148876442
F91.28448395264141
tp1716
a(F0.9262344940336977
F90.81055724821229
tp1717
a(F0.9262326430836458
F90.81001177905686
tp1718
a(F0.9261977137700693
F90.71160172435103
tp1719
a(F0.9261811036205273
F90.21546063612729
tp1720
a(F0.925839472816913
F89.22223940188307
tp1721
a(F0.9248792343829647
F88.66164479925106
tp1722
a(F0.9244082293111932
F88.6266464834646
tp1723
a(F0.9240433095819247
F87.04005755825915
tp1724
a(F0.9229849341777997
F87.01669084039418
tp1725
a(F0.9222044730723278
F86.17054986505619
tp1726
a(F0.9221961785494526
F86.14624073872555
tp1727
a(F0.9221442490460176
F85.53780762684286
tp1728
a(F0.9215596619665813
F84.5167699007216
tp1729
a(F0.9196450460226206
F84.26711566821953
tp1730
a(F0.9181628440106466
F83.17322535383708
tp1731
a(F0.9180098026469483
F82.93945484414112
tp1732
a(F0.9179675670569882
F82.32900319140546
tp1733
a(F0.9175562305270674
F82.29142826374965
tp1734
a(F0.9174320281691463
F81.9357579697212
tp1735
a(F0.9172449505896157
F81.29787572992606
tp1736
a(F0.9170654139815084
F81.29449076193036
tp1737
a(F0.9160406404429391
F81.24908255135044
tp1738
a(F0.9124495795793781
F79.07292866779318
tp1739
a(F0.912343630765486
F78.43694720609676
tp1740
a(F0.912269181017146
F78.43347804596667
tp1741
a(F0.9121269498254625
F77.66906643676758
tp1742
a(F0.9112215308724514
F77.37042072514988
tp1743
a(F0.9109660085632048
F77.36156407253858
tp1744
a(F0.9070742197685768
F77.23356216170643
tp1745
a(F0.906591700458386
F77.15747845393348
tp1746
a(F0.9065835429271346
F77.0633988382721
tp1747
a(F0.9061463989375844
F76.89151905759633
tp1748
a(F0.9054693625390939
F76.55227926341949
tp1749
a(F0.9054044861205099
F76.06143191673436
tp1750
a(F0.9049021235358843
F75.07004730063127
tp1751
a(F0.903268249216017
F74.15331493459902
tp1752
a(F0.9029282839751533
F73.4006128065619
tp1753
a(F0.9029083428222621
F73.30494449824106
tp1754
a(F0.9029005644836905
F72.82483529441558
tp1755
a(F0.9025018813589465
F71.85444097671387
tp1756
a(F0.8990803445745341
F71.42903348262368
tp1757
a(F0.8989315700158055
F70.8305057428118
tp1758
a(F0.8982675024095428
F70.56748182920984
tp1759
a(F0.8980389944745986
F70.54035942597494
tp1760
a(F0.8976525542392748
F70.53814242325552
tp1761
a(F0.8960707396768026
F70.0700070003435
tp1762
a(F0.8958372868064065
F70.04231863949991
tp1763
a(F0.8939973647235924
F69.33810296562004
tp1764
a(F0.8939718541894777
F69.2417341064582
tp1765
a(F0.8939621029728975
F68.75994667303212
tp1766
a(F0.8934378804543761
F67.78329736030382
tp1767
a(F0.8908053849746931
F67.66586173447219
tp1768
a(F0.8908013873427213
F67.66576475486848
tp1769
a(F0.8905600799419835
F66.70427721387075
tp1770
a(F0.8848371252044547
F66.20730250280985
tp1771
a(F0.8824162282212653
F65.62887637772675
tp1772
a(F0.8815359630603807
F65.53469005850653
tp1773
a(F0.8815183590288618
F64.95089512362242
tp1774
a(F0.8807403947497122
F63.96938916212837
tp1775
a(F0.8797956385898906
F63.714977783045
tp1776
a(F0.8797240217515355
F63.355347616474624
tp1777
a(F0.879591319442167
F62.75743768865276
tp1778
a(F0.8743060891264918
F62.54096614898436
tp1779
a(F0.8741329282982745
F61.83266756269333
tp1780
a(F0.8723810050764036
F61.636811183691236
tp1781
a(F0.8709316045660733
F61.4567389871169
tp1782
a(F0.8696984073517151
F61.35777709360414
tp1783
a(F0.8676548700364611
F60.64203099550878
tp1784
a(F0.8630555343215297
F60.08848731071751
tp1785
a(F0.8616170494846749
F59.209577325724034
tp1786
a(F0.8615972702292953
F59.11351038725422
tp1787
a(F0.8615596092460536
F58.631319926576374
tp1788
a(F0.8613773022627469
F58.264514555503816
tp1789
a(F0.8612302365833243
F57.66304507486506
tp1790
a(F0.859332734973842
F57.32395971806191
tp1791
a(F0.8560543274133307
F56.786738166400994
tp1792
a(F0.8553602156220818
F56.271350375557404
tp1793
a(F0.8531689490052916
F56.26207846992457
tp1794
a(F0.8519892904050232
F55.621547008986894
tp1795
a(F0.8437420378867815
F55.30801881222823
tp1796
a(F0.8405234429595483
F55.1388168470517
tp1797
a(F0.840505071164615
F55.042656477091455
tp1798
a(F0.8404759713412178
F54.56164741977969
tp1799
a(F0.8402580175953612
F54.19884773133333
tp1800
a(F0.8401650077755758
F53.59747986745849
tp1801
a(F0.8385552397135125
F53.58480988831768
tp1802
a(F0.8370674818803567
F53.1321069501702
tp1803
a(F0.8312670504726015
F52.925804202270164
tp1804
a(F0.8269013470264142
F52.71414140112143
tp1805
a(F0.8210494417376125
F52.50500354291527
tp1806
a(F0.8197111518596788
F52.41894993874777
tp1807
a(F0.8093841880293864
F51.990768197466664
tp1808
a(F0.8005141372481615
F51.96116488089779
tp1809
a(F0.7968214369228463
F51.417791262170134
tp1810
a(F0.795187939603048
F50.962371798074244
tp1811
a(F0.7944657600177287
F49.70928055988681
tp1812
a(F0.7914105022446044
F48.34892895412909
tp1813
a(F0.7892965836861573
F48.27379513195068
tp1814
a(F0.7891905105585855
F47.79601248548475
tp1815
a(F0.7882378307999302
F46.76809168116898
tp1816
a(F0.7787290327839997
F46.62277643162216
tp1817
a(F0.7775708943569108
F46.29406289608082
tp1818
a(F0.7729585182397651
F46.13735148133547
tp1819
a(F0.7713387788853755
F45.253815910149385
tp1820
a(F0.7628740974805491
F45.17654326088021
tp1821
a(F0.7605546408106787
F45.17029715120269
tp1822
a(F0.7604224175999421
F44.76638132090777
tp1823
a(F0.7341460590349536
F44.05672090827839
tp1824
a(F0.732458601314298
F43.99722663295506
tp1825
a(F0.7307877092902167
F43.438856130642364
tp1826
a(F0.7296574880867717
F42.899534212848934
tp1827
a(F0.7294025631479695
F42.03546708997732
tp1828
a(F0.7265488703188715
F41.4392502318599
tp1829
a(F0.725566601088048
F41.4360891441214
tp1830
a(F0.7253201201353977
F40.89924279406593
tp1831
a(F0.7252712133359269
F40.417635076114834
tp1832
a(F0.7250522301572513
F40.02691008877582
tp1833
a(F0.7231298687409851
F39.92189743759451
tp1834
a(F0.7138928995910314
F39.41203769404481
tp1835
a(F0.7121688916912434
F39.28034656318066
tp1836
a(F0.7102353870894621
F39.19096039554002
tp1837
a(F0.7054066862315855
F39.00887824320007
tp1838
a(F0.7036506172399718
F38.91776923804526
tp1839
a(F0.7013261216100759
F38.7187664540956
tp1840
a(F0.6988692690717522
F38.65642395371357
tp1841
a(F0.6937131179929992
F38.36085570294533
tp1842
a(F0.6919603110527143
F38.28639176349556
tp1843
a(F0.6899714143945599
F38.198890271320955
tp1844
a(F0.6887840168859353
F37.6569495465137
tp1845
a(F0.6884859754644022
F37.15516818953097
tp1846
a(F0.688458112171331
F36.77404966315285
tp1847
a(F0.6772504304171023
F36.08775409627164
tp1848
a(F0.671566198529022
F36.01578747045875
tp1849
a(F0.6675868649733905
F35.668539387336544
tp1850
a(F0.6592563135179418
F35.532648683532116
tp1851
a(F0.6580485233664901
F35.10535368533582
tp1852
a(F0.6519292540618105
F35.03969362540717
tp1853
a(F0.6494260697452336
F34.84751520279578
tp1854
a(F0.6438067179608158
F34.79030622571541
tp1855
a(F0.642604939791765
F34.403088477290574
tp1856
a(F0.6402917161817046
F34.24355540834303
tp1857
a(F0.6363229361327458
F33.980804891847384
tp1858
a(F0.6357866878008173
F33.680465753062265
tp1859
a(F0.6356901742894012
F33.460913731767725
tp1860
a(F0.6355940845016436
F33.066783712205456
tp1861
a(F0.6341971254080377
F33.004041484604784
tp1862
a(F0.629997496720178
F32.99997029532584
tp1863
a(F0.6292493882026986
F32.968751665501614
tp1864
a(F0.6285005119986938
F32.93450207334863
tp1865
a(F0.625148548193489
F32.82352185558883
tp1866
a(F0.6169135040691647
F32.514240013552595
tp1867
a(F0.6154531310287846
F32.00287818578524
tp1868
a(F0.6144267614533234
F31.968317118625762
tp1869
a(F0.6137245799282404
F31.596187598136897
tp1870
a(F0.6078937124297651
F31.540296256822373
tp1871
a(F0.6070229436683434
F31.472279371619777
tp1872
a(F0.6068945325354989
F31.07994490750457
tp1873
a(F0.6032525515140239
F30.560377925791403
tp1874
a(F0.6031930195828556
F30.166508774833478
tp1875
a(F0.5957924742270828
F30.03207099183777
tp1876
a(F0.5889362187079876
F29.6596125917207
tp1877
a(F0.58682059121677
F29.504687001084875
tp1878
a(F0.5834774610886381
F29.482429201131385
tp1879
a(F0.5821635875425646
F29.041302324347235
tp1880
a(F0.5742654954430142
F28.817812553893635
tp1881
a(F0.5695357752353506
F28.775807874449875
tp1882
a(F0.5690347139921414
F28.583032112579545
tp1883
a(F0.5669812087582987
F28.437877061822164
tp1884
a(F0.5619551094461261
F28.409276908526127
tp1885
a(F0.5610132193539005
F27.846872846471904
tp1886
a(F0.5606996964021451
F26.92191038282688
tp1887
a(F0.5461251840852677
F26.91008562508208
tp1888
a(F0.543221048093233
F26.49294147413017
tp1889
a(F0.5421329809393856
F26.337505579691584
tp1890
a(F0.5405141344976729
F25.815320435138187
tp1891
a(F0.5290952995258789
F25.700957737735543
tp1892
a(F0.523135924473595
F25.639092986825624
tp1893
a(F0.5184430898330509
F25.327258216883955
tp1894
a(F0.516227189157372
F25.317906134108334
tp1895
a(F0.5110129795243527
F23.925434043530444
tp1896
a(F0.5037696409315665
F23.882096699382974
tp1897
a(F0.4992625125865989
F23.805822408219946
tp1898
a(F0.49750486803479693
F23.611746965322546
tp1899
a(F0.48807621057991585
F23.394874212740394
tp1900
a(F0.48273385020655196
F23.2179145325203
tp1901
a(F0.4811854819139358
F22.886314522751988
tp1902
a(F0.4808839935794699
F22.702097020972726
tp1903
a(F0.4749335672935872
F22.387584069045296
tp1904
a(F0.47277138883693587
F22.00502567447574
tp1905
a(F0.4721513372911179
F21.093650367895854
tp1906
a(F0.4541524595194581
F21.001763641734108
tp1907
a(F0.4535603287646033
F20.927086821547583
tp1908
a(F0.45342269451384754
F20.504811099564332
tp1909
a(F0.4517131383320765
F19.999999999999993
tp1910
a(F0.19297151174881266
F19.999999999999982
tp1911
a(F0.19297151174880836
F19.99999999999998
tp1912
a(F0.19297151174880833
F19.999999999999975
tp1913
a(F0.19297151174880825
F19.99999999999993
tp1914
a(F0.1929715117488032
F19.999999999999904
tp1915
a(F0.1929715117488025
F19.999999999999865
tp1916
a(F0.192971511748797
F19.999999999999844
tp1917
a(F0.1929715117487967
F19.999999999999815
tp1918
atp1919
.