((lp0
(lp1
I20
aI30
aI50
aI50
aa(lp2
I20
aI30
aI50
aI30
aa(lp3
I20
aI20
aI50
aI30
aa(lp4
I20
aI20
aI40
aI30
aa(lp5
I20
aI10
aI50
aI30
aa(lp6
I20
aI2
aI50
aI30
aa(lp7
I20
aI2
aI40
aI30
aa(lp8
I20
aI1
aI40
aI30
aa(lp9
I20
aI2
aI30
aI30
aa(lp10
I20
aI1
aI30
aI30
aa(lp11
I20
aI2
aI20
aI30
aa(lp12
I20
aI2
aI10
aI30
aa(lp13
I20
aI1
aI10
aI30
aa(lp14
I20
aI2
aI1
aI30
aa(lp15
I20
aI1
aI1
aI30
aa(lp16
I20
aI2
aI50
aI10
aa(lp17
I2
aI2
aI1
aI30
aa(lp18
I1
aI2
aI1
aI30
aa(lp19
I10
aI1
aI1
aI30
aa(lp20
I20
aI2
aI40
aI10
aa(lp21
I20
aI1
aI40
aI10
aa(lp22
I20
aI2
aI30
aI10
aa(lp23
I20
aI1
aI30
aI10
aa(lp24
I20
aI2
aI40
aI1
aa(lp25
I20
aI2
aI20
aI10
aa(lp26
I20
aI2
aI10
aI10
aa(lp27
I20
aI2
aI30
aI1
aa(lp28
I20
aI1
aI10
aI10
aa(lp29
I20
aI2
aI1
aI10
aa(lp30
I20
aI1
aI1
aI10
aa(lp31
I10
aI2
aI1
aI10
aa(lp32
I20
aI1
aI20
aI1
aa(lp33
I5
aI2
aI1
aI10
aa(lp34
I20
aI2
aI10
aI1
aa(lp35
I20
aI1
aI10
aI2
aa(lp36
I20
aI1
aI10
aI1
aa(lp37
I20
aI2
aI1
aI1
aa(lp38
I5
aI2
aI10
aI1
aa(lp39
I1
aI2
aI10
aI1
aa(lp40
I20
aI1
aI1
aI2
aa(lp41
I20
aI1
aI1
aI1
aa(lp42
I10
aI2
aI1
aI1
aa(lp43
I2
aI1
aI10
aI1
aa(lp44
I1
aI1
aI10
aI1
aa(lp45
I5
aI2
aI1
aI1
aa(lp46
I1
aI2
aI1
aI1
aa(lp47
I10
aI1
aI1
aI1
aa(lp48
I5
aI1
aI1
aI1
aa(lp49
I1
aI1
aI1
aI1
aa(lp50
(F0.9049630628741494
F39.615755617438246
tp51
a(F0.9047985817053377
F36.92442612618052
tp52
a(F0.9022876082955888
F34.20935604612156
tp53
a(F0.8981700539612849
F33.681904773605254
tp54
a(F0.8944067229613748
F31.494501230983968
tp55
a(F0.8903807386164817
F29.345371608106923
tp56
a(F0.8862562793950243
F28.818947415054527
tp57
a(F0.8803444102746123
F28.574238123717997
tp58
a(F0.8776813453110088
F28.31858350189144
tp59
a(F0.8718862517161037
F28.081174124594757
tp60
a(F0.8677853551372743
F27.862178721481516
tp61
a(F0.8657690085469794
F27.419489767751443
tp62
a(F0.8599876815012863
F27.1978791131277
tp63
a(F0.8593789840221123
F27.048813709427446
tp64
a(F0.8535805462134478
F26.833340070477547
tp65
a(F0.8448604328625556
F26.702080409113496
tp66
a(F0.8435523645262186
F26.673518995263272
tp67
a(F0.8429203130592356
F26.643761179090617
tp68
a(F0.8412127152269528
F26.60751846511546
tp69
a(F0.8401724833037553
F26.080344746818298
tp70
a(F0.8345668702593569
F25.82721885463644
tp71
a(F0.831094530387919
F25.436516046432182
tp72
a(F0.8256008906855494
F25.193979733255286
tp73
a(F0.8219546118796816
F25.10106833182423
tp74
a(F0.8205521128335409
F24.939395088543073
tp75
a(F0.816588170131578
F24.42580840263498
tp76
a(F0.8127659792027212
F24.392440564196562
tp77
a(F0.8111607958538511
F24.202583380358533
tp78
a(F0.8095323515105693
F24.025109020447726
tp79
a(F0.8041212097461048
F23.810340005419942
tp80
a(F0.7981494241015733
F23.755536035825
tp81
a(F0.797338553223006
F23.658403060641994
tp82
a(F0.7961429530486218
F23.644362982136382
tp83
a(F0.7956920661054082
F23.313452966867963
tp84
a(F0.7901845733507603
F23.178934940372397
tp85
a(F0.7901777905903118
F23.090656117295485
tp86
a(F0.7879125307707864
F22.892382015113572
tp87
a(F0.7837196888233884
F22.882365844035647
tp88
a(F0.7828999942621662
F22.786796915872767
tp89
a(F0.782463781097206
F22.75444678872258
tp90
a(F0.7823665580648933
F22.67652278799918
tp91
a(F0.7789986636211534
F22.553585629244214
tp92
a(F0.7776591499284536
F22.52572260263195
tp93
a(F0.7775933496076531
F22.495649997599298
tp94
a(F0.7760872231543243
F22.428769381911508
tp95
a(F0.7755461150906766
F22.32625734867598
tp96
a(F0.7738975800865779
F22.304616964539413
tp97
a(F0.7707359739248272
F22.16153829119692
tp98
a(F0.770297298888738
F22.044444444444444
tp99
atp100
.